ARM GAS  C:\Users\EDTRIC~1\AppData\Local\Temp\ccXQQyjM.s 			page 1


   1              		.syntax unified
   2              		.cpu cortex-m3
   3              		.fpu softvfp
   4              		.eabi_attribute 20, 1
   5              		.eabi_attribute 21, 1
   6              		.eabi_attribute 23, 3
   7              		.eabi_attribute 24, 1
   8              		.eabi_attribute 25, 1
   9              		.eabi_attribute 26, 1
  10              		.eabi_attribute 30, 1
  11              		.eabi_attribute 34, 1
  12              		.eabi_attribute 18, 4
  13              		.thumb
  14              		.file	"herkulex2.c"
  15              		.text
  16              	.Ltext0:
  17              		.cfi_sections	.debug_frame
  18              		.section	.text.clearBuffer,"ax",%progbits
  19              		.align	2
  20              		.global	clearBuffer
  21              		.thumb
  22              		.thumb_func
  23              		.type	clearBuffer, %function
  24              	clearBuffer:
  25              	.LFB63:
  26              		.file 1 ".\\herkulex2.c"
   1:.\herkulex2.c **** /* ========================================
   2:.\herkulex2.c ****  *
   3:.\herkulex2.c ****  * Copyright YOUR COMPANY, THE YEAR
   4:.\herkulex2.c ****  * All Rights Reserved
   5:.\herkulex2.c ****  * UNPUBLISHED, LICENSED SOFTWARE.
   6:.\herkulex2.c ****  *
   7:.\herkulex2.c ****  * CONFIDENTIAL AND PROPRIETARY INFORMATION
   8:.\herkulex2.c ****  * WHICH IS THE PROPERTY OF your company.
   9:.\herkulex2.c ****  *
  10:.\herkulex2.c ****  * ========================================
  11:.\herkulex2.c **** */
  12:.\herkulex2.c **** 
  13:.\herkulex2.c **** #include "herkulex2.h"
  14:.\herkulex2.c **** 
  15:.\herkulex2.c **** uint8 pSize;
  16:.\herkulex2.c **** uint8 pID;
  17:.\herkulex2.c **** uint8 cmd;
  18:.\herkulex2.c **** uint8 lengthString;
  19:.\herkulex2.c **** uint8 ck1;
  20:.\herkulex2.c **** uint8 ck2;
  21:.\herkulex2.c **** 
  22:.\herkulex2.c **** uint8 conta;
  23:.\herkulex2.c **** 
  24:.\herkulex2.c **** uint8 XOR;
  25:.\herkulex2.c **** int playTime;
  26:.\herkulex2.c **** 
  27:.\herkulex2.c **** uint8 data[DATASIZE];
  28:.\herkulex2.c **** uint8 dataEx[DATAMOVE+8];
  29:.\herkulex2.c **** uint8 moveData[DATAMOVE];
  30:.\herkulex2.c **** 
  31:.\herkulex2.c **** void clearBuffer( void )
ARM GAS  C:\Users\EDTRIC~1\AppData\Local\Temp\ccXQQyjM.s 			page 2


  32:.\herkulex2.c **** {
  27              		.loc 1 32 0
  28              		.cfi_startproc
  29              		@ args = 0, pretend = 0, frame = 0
  30              		@ frame_needed = 0, uses_anonymous_args = 0
  31 0000 08B5     		push	{r3, lr}
  32              		.cfi_def_cfa_offset 8
  33              		.cfi_offset 3, -8
  34              		.cfi_offset 14, -4
  33:.\herkulex2.c ****     UART_SRV_ClearTxBuffer();
  35              		.loc 1 33 0
  36 0002 FFF7FEFF 		bl	UART_SRV_ClearTxBuffer
  37              	.LVL0:
  34:.\herkulex2.c ****     UART_SRV_ClearRxBuffer();
  38              		.loc 1 34 0
  39 0006 FFF7FEFF 		bl	UART_SRV_ClearRxBuffer
  40              	.LVL1:
  41 000a 08BD     		pop	{r3, pc}
  42              		.cfi_endproc
  43              	.LFE63:
  44              		.size	clearBuffer, .-clearBuffer
  45              		.section	.text.checksum1,"ax",%progbits
  46              		.align	2
  47              		.global	checksum1
  48              		.thumb
  49              		.thumb_func
  50              		.type	checksum1, %function
  51              	checksum1:
  52              	.LFB64:
  35:.\herkulex2.c **** }
  36:.\herkulex2.c **** 
  37:.\herkulex2.c **** uint8 checksum1( uint8 * data , uint8 lengthString )
  38:.\herkulex2.c **** {
  53              		.loc 1 38 0
  54              		.cfi_startproc
  55              		@ args = 0, pretend = 0, frame = 0
  56              		@ frame_needed = 0, uses_anonymous_args = 0
  57              		@ link register save eliminated.
  58              	.LVL2:
  59 0000 30B4     		push	{r4, r5}
  60              		.cfi_def_cfa_offset 8
  61              		.cfi_offset 4, -8
  62              		.cfi_offset 5, -4
  39:.\herkulex2.c ****     uint8 i;
  40:.\herkulex2.c ****     
  41:.\herkulex2.c ****     XOR = 0;
  42:.\herkulex2.c ****     XOR = XOR ^ pSize;
  63              		.loc 1 42 0
  64 0002 0D4B     		ldr	r3, .L7
  65 0004 1A78     		ldrb	r2, [r3]	@ zero_extendqisi2
  43:.\herkulex2.c ****     XOR = XOR ^ pID;
  66              		.loc 1 43 0
  67 0006 0D4B     		ldr	r3, .L7+4
  68 0008 1B78     		ldrb	r3, [r3]	@ zero_extendqisi2
  69 000a 5A40     		eors	r2, r2, r3
  44:.\herkulex2.c ****     XOR = XOR ^ cmd;
  70              		.loc 1 44 0
ARM GAS  C:\Users\EDTRIC~1\AppData\Local\Temp\ccXQQyjM.s 			page 3


  71 000c 0C4B     		ldr	r3, .L7+8
  72 000e 1B78     		ldrb	r3, [r3]	@ zero_extendqisi2
  73 0010 5340     		eors	r3, r3, r2
  74 0012 0C4A     		ldr	r2, .L7+12
  75 0014 1370     		strb	r3, [r2]
  76              	.LVL3:
  45:.\herkulex2.c ****     
  46:.\herkulex2.c ****     for( i = 0; i < lengthString; i++ )
  77              		.loc 1 46 0
  78 0016 0023     		movs	r3, #0
  79 0018 06E0     		b	.L4
  80              	.LVL4:
  81              	.L5:
  47:.\herkulex2.c ****     {
  48:.\herkulex2.c ****         XOR = XOR ^ data[i];
  82              		.loc 1 48 0 discriminator 3
  83 001a C55C     		ldrb	r5, [r0, r3]	@ zero_extendqisi2
  84 001c 094C     		ldr	r4, .L7+12
  85 001e 2278     		ldrb	r2, [r4]	@ zero_extendqisi2
  86 0020 6A40     		eors	r2, r2, r5
  87 0022 2270     		strb	r2, [r4]
  46:.\herkulex2.c ****     {
  88              		.loc 1 46 0 discriminator 3
  89 0024 0133     		adds	r3, r3, #1
  90              	.LVL5:
  91 0026 DBB2     		uxtb	r3, r3
  92              	.LVL6:
  93              	.L4:
  46:.\herkulex2.c ****     {
  94              		.loc 1 46 0 is_stmt 0 discriminator 1
  95 0028 8B42     		cmp	r3, r1
  96 002a F6D3     		bcc	.L5
  49:.\herkulex2.c ****     }
  50:.\herkulex2.c ****     
  51:.\herkulex2.c ****     return XOR & 0xFE;
  97              		.loc 1 51 0 is_stmt 1
  98 002c 054B     		ldr	r3, .L7+12
  99              	.LVL7:
 100 002e 1878     		ldrb	r0, [r3]	@ zero_extendqisi2
 101              	.LVL8:
  52:.\herkulex2.c **** }
 102              		.loc 1 52 0
 103 0030 00F0FE00 		and	r0, r0, #254
 104 0034 30BC     		pop	{r4, r5}
 105              		.cfi_restore 5
 106              		.cfi_restore 4
 107              		.cfi_def_cfa_offset 0
 108 0036 7047     		bx	lr
 109              	.L8:
 110              		.align	2
 111              	.L7:
 112 0038 00000000 		.word	pSize
 113 003c 00000000 		.word	pID
 114 0040 00000000 		.word	cmd
 115 0044 00000000 		.word	XOR
 116              		.cfi_endproc
 117              	.LFE64:
ARM GAS  C:\Users\EDTRIC~1\AppData\Local\Temp\ccXQQyjM.s 			page 4


 118              		.size	checksum1, .-checksum1
 119              		.section	.text.checksum2,"ax",%progbits
 120              		.align	2
 121              		.global	checksum2
 122              		.thumb
 123              		.thumb_func
 124              		.type	checksum2, %function
 125              	checksum2:
 126              	.LFB65:
  53:.\herkulex2.c **** 
  54:.\herkulex2.c **** uint8 checksum2( uint8 XOR )
  55:.\herkulex2.c **** {
 127              		.loc 1 55 0
 128              		.cfi_startproc
 129              		@ args = 0, pretend = 0, frame = 0
 130              		@ frame_needed = 0, uses_anonymous_args = 0
 131              		@ link register save eliminated.
 132              	.LVL9:
  56:.\herkulex2.c ****     return (~XOR) & 0xFE;
 133              		.loc 1 56 0
 134 0000 C043     		mvns	r0, r0
 135              	.LVL10:
  57:.\herkulex2.c **** }
 136              		.loc 1 57 0
 137 0002 00F0FE00 		and	r0, r0, #254
 138 0006 7047     		bx	lr
 139              		.cfi_endproc
 140              	.LFE65:
 141              		.size	checksum2, .-checksum2
 142              		.section	.text.sendData,"ax",%progbits
 143              		.align	2
 144              		.global	sendData
 145              		.thumb
 146              		.thumb_func
 147              		.type	sendData, %function
 148              	sendData:
 149              	.LFB66:
  58:.\herkulex2.c **** 
  59:.\herkulex2.c **** /*void printHexByte( uint8 x )
  60:.\herkulex2.c **** {
  61:.\herkulex2.c ****     char byte[4];
  62:.\herkulex2.c ****     
  63:.\herkulex2.c ****     sprintf( byte , "%x" , x );
  64:.\herkulex2.c ****     
  65:.\herkulex2.c ****     UART_UartPutString("0x");
  66:.\herkulex2.c ****     if( x < 16)
  67:.\herkulex2.c ****     {
  68:.\herkulex2.c ****         UART_UartPutChar('0');
  69:.\herkulex2.c ****     }
  70:.\herkulex2.c ****     UART_UartPutString(byte);
  71:.\herkulex2.c ****     UART_UartPutChar(' ');
  72:.\herkulex2.c **** }*/
  73:.\herkulex2.c **** 
  74:.\herkulex2.c **** void sendData( uint8 * buffer , uint8 length )
  75:.\herkulex2.c **** {
 150              		.loc 1 75 0
 151              		.cfi_startproc
ARM GAS  C:\Users\EDTRIC~1\AppData\Local\Temp\ccXQQyjM.s 			page 5


 152              		@ args = 0, pretend = 0, frame = 0
 153              		@ frame_needed = 0, uses_anonymous_args = 0
 154              	.LVL11:
 155 0000 38B5     		push	{r3, r4, r5, lr}
 156              		.cfi_def_cfa_offset 16
 157              		.cfi_offset 3, -16
 158              		.cfi_offset 4, -12
 159              		.cfi_offset 5, -8
 160              		.cfi_offset 14, -4
 161 0002 0546     		mov	r5, r0
 162 0004 0C46     		mov	r4, r1
  76:.\herkulex2.c ****     clearBuffer();
 163              		.loc 1 76 0
 164 0006 FFF7FEFF 		bl	clearBuffer
 165              	.LVL12:
  77:.\herkulex2.c ****     UART_SRV_PutArray( buffer , length );
 166              		.loc 1 77 0
 167 000a 2846     		mov	r0, r5
 168 000c 2146     		mov	r1, r4
 169 000e FFF7FEFF 		bl	UART_SRV_PutArray
 170              	.LVL13:
  78:.\herkulex2.c ****     CyDelay(1);
 171              		.loc 1 78 0
 172 0012 0120     		movs	r0, #1
 173 0014 FFF7FEFF 		bl	CyDelay
 174              	.LVL14:
 175 0018 38BD     		pop	{r3, r4, r5, pc}
 176              		.cfi_endproc
 177              	.LFE66:
 178              		.size	sendData, .-sendData
 179 001a 00BF     		.section	.text.readData,"ax",%progbits
 180              		.align	2
 181              		.global	readData
 182              		.thumb
 183              		.thumb_func
 184              		.type	readData, %function
 185              	readData:
 186              	.LFB67:
  79:.\herkulex2.c **** }
  80:.\herkulex2.c **** 
  81:.\herkulex2.c **** void readData( uint8 size )
  82:.\herkulex2.c **** {
 187              		.loc 1 82 0
 188              		.cfi_startproc
 189              		@ args = 0, pretend = 0, frame = 0
 190              		@ frame_needed = 0, uses_anonymous_args = 0
 191              	.LVL15:
 192 0000 70B5     		push	{r4, r5, r6, lr}
 193              		.cfi_def_cfa_offset 16
 194              		.cfi_offset 4, -16
 195              		.cfi_offset 5, -12
 196              		.cfi_offset 6, -8
 197              		.cfi_offset 14, -4
 198 0002 0546     		mov	r5, r0
 199              	.LVL16:
  83:.\herkulex2.c ****     uint8 i = 0;
  84:.\herkulex2.c ****     uint8 beginsave = 0;
ARM GAS  C:\Users\EDTRIC~1\AppData\Local\Temp\ccXQQyjM.s 			page 6


  85:.\herkulex2.c ****     uint8 timeCounter = 0;
 200              		.loc 1 85 0
 201 0004 0024     		movs	r4, #0
  86:.\herkulex2.c ****     
  87:.\herkulex2.c ****     while( (UART_SRV_GetRxBufferSize() < size) & (timeCounter < TIMEOUT) )
 202              		.loc 1 87 0
 203 0006 04E0     		b	.L13
 204              	.LVL17:
 205              	.L14:
  88:.\herkulex2.c ****     {
  89:.\herkulex2.c ****         timeCounter++;
 206              		.loc 1 89 0
 207 0008 0134     		adds	r4, r4, #1
 208              	.LVL18:
 209 000a E4B2     		uxtb	r4, r4
 210              	.LVL19:
  90:.\herkulex2.c ****         CyDelay(1);
 211              		.loc 1 90 0
 212 000c 0120     		movs	r0, #1
 213 000e FFF7FEFF 		bl	CyDelay
 214              	.LVL20:
 215              	.L13:
  87:.\herkulex2.c ****     {
 216              		.loc 1 87 0
 217 0012 FFF7FEFF 		bl	UART_SRV_GetRxBufferSize
 218              	.LVL21:
 219 0016 042C     		cmp	r4, #4
 220 0018 98BF     		it	ls
 221 001a A842     		cmpls	r0, r5
 222 001c F4D3     		bcc	.L14
 223 001e 0024     		movs	r4, #0
 224              	.LVL22:
 225 0020 2646     		mov	r6, r4
 226 0022 0DE0     		b	.L15
 227              	.LVL23:
 228              	.L18:
 229              	.LBB2:
  91:.\herkulex2.c ****     }
  92:.\herkulex2.c ****     while( (UART_SRV_GetRxBufferSize() > 0) )
  93:.\herkulex2.c ****     {
  94:.\herkulex2.c ****         uint8 recByte = UART_SRV_GetByte();
 230              		.loc 1 94 0
 231 0024 FFF7FEFF 		bl	UART_SRV_GetByte
 232              	.LVL24:
 233 0028 C0B2     		uxtb	r0, r0
 234              	.LVL25:
  95:.\herkulex2.c ****         if( recByte == 0xFF )
 235              		.loc 1 95 0
 236 002a FF28     		cmp	r0, #255
 237 002c 01D1     		bne	.L16
  96:.\herkulex2.c ****         {
  97:.\herkulex2.c ****             beginsave = 1;
 238              		.loc 1 97 0
 239 002e 0124     		movs	r4, #1
 240              	.LVL26:
  98:.\herkulex2.c ****             i = 0;
 241              		.loc 1 98 0
ARM GAS  C:\Users\EDTRIC~1\AppData\Local\Temp\ccXQQyjM.s 			page 7


 242 0030 0026     		movs	r6, #0
 243              	.LVL27:
 244              	.L16:
  99:.\herkulex2.c ****         }
 100:.\herkulex2.c ****         if( beginsave == 1 && i < size )
 245              		.loc 1 100 0
 246 0032 2CB1     		cbz	r4, .L15
 247              		.loc 1 100 0 is_stmt 0 discriminator 1
 248 0034 AE42     		cmp	r6, r5
 249 0036 03D2     		bcs	.L15
 101:.\herkulex2.c ****         {
 102:.\herkulex2.c ****             dataEx[i] = recByte;
 250              		.loc 1 102 0 is_stmt 1
 251 0038 054B     		ldr	r3, .L21
 252 003a 9855     		strb	r0, [r3, r6]
 103:.\herkulex2.c ****             i++;
 253              		.loc 1 103 0
 254 003c 0136     		adds	r6, r6, #1
 255              	.LVL28:
 256 003e F6B2     		uxtb	r6, r6
 257              	.LVL29:
 258              	.L15:
 259              	.LBE2:
  92:.\herkulex2.c ****     {
 260              		.loc 1 92 0
 261 0040 FFF7FEFF 		bl	UART_SRV_GetRxBufferSize
 262              	.LVL30:
 263 0044 0028     		cmp	r0, #0
 264 0046 EDD1     		bne	.L18
 104:.\herkulex2.c ****         }
 105:.\herkulex2.c ****     }
 106:.\herkulex2.c ****     clearBuffer();
 265              		.loc 1 106 0
 266 0048 FFF7FEFF 		bl	clearBuffer
 267              	.LVL31:
 268 004c 70BD     		pop	{r4, r5, r6, pc}
 269              	.LVL32:
 270              	.L22:
 271 004e 00BF     		.align	2
 272              	.L21:
 273 0050 00000000 		.word	dataEx
 274              		.cfi_endproc
 275              	.LFE67:
 276              		.size	readData, .-readData
 277              		.section	.text.addData,"ax",%progbits
 278              		.align	2
 279              		.global	addData
 280              		.thumb
 281              		.thumb_func
 282              		.type	addData, %function
 283              	addData:
 284              	.LFB68:
 107:.\herkulex2.c **** }
 108:.\herkulex2.c **** 
 109:.\herkulex2.c **** void addData( int goalLSB , int goalMSB , uint8 set , uint8 servoID )
 110:.\herkulex2.c **** {
 285              		.loc 1 110 0
ARM GAS  C:\Users\EDTRIC~1\AppData\Local\Temp\ccXQQyjM.s 			page 8


 286              		.cfi_startproc
 287              		@ args = 0, pretend = 0, frame = 0
 288              		@ frame_needed = 0, uses_anonymous_args = 0
 289              		@ link register save eliminated.
 290              	.LVL33:
 291 0000 F0B4     		push	{r4, r5, r6, r7}
 292              		.cfi_def_cfa_offset 16
 293              		.cfi_offset 4, -16
 294              		.cfi_offset 5, -12
 295              		.cfi_offset 6, -8
 296              		.cfi_offset 7, -4
 111:.\herkulex2.c ****     moveData[conta++] = goalLSB;
 297              		.loc 1 111 0
 298 0002 084E     		ldr	r6, .L25
 299 0004 3778     		ldrb	r7, [r6]	@ zero_extendqisi2
 300 0006 7D1C     		adds	r5, r7, #1
 301 0008 EDB2     		uxtb	r5, r5
 302 000a 074C     		ldr	r4, .L25+4
 303 000c E055     		strb	r0, [r4, r7]
 112:.\herkulex2.c ****     moveData[conta++] = goalMSB;
 304              		.loc 1 112 0
 305 000e 681C     		adds	r0, r5, #1
 306              	.LVL34:
 307 0010 C0B2     		uxtb	r0, r0
 308 0012 6155     		strb	r1, [r4, r5]
 113:.\herkulex2.c ****     moveData[conta++] = set;
 309              		.loc 1 113 0
 310 0014 411C     		adds	r1, r0, #1
 311              	.LVL35:
 312 0016 C9B2     		uxtb	r1, r1
 313 0018 2254     		strb	r2, [r4, r0]
 114:.\herkulex2.c ****     moveData[conta++] = servoID;
 314              		.loc 1 114 0
 315 001a 4A1C     		adds	r2, r1, #1
 316              	.LVL36:
 317 001c 3270     		strb	r2, [r6]
 318 001e 6354     		strb	r3, [r4, r1]
 319              	.LVL37:
 115:.\herkulex2.c **** }
 320              		.loc 1 115 0
 321 0020 F0BC     		pop	{r4, r5, r6, r7}
 322              		.cfi_restore 7
 323              		.cfi_restore 6
 324              		.cfi_restore 5
 325              		.cfi_restore 4
 326              		.cfi_def_cfa_offset 0
 327 0022 7047     		bx	lr
 328              	.L26:
 329              		.align	2
 330              	.L25:
 331 0024 00000000 		.word	conta
 332 0028 00000000 		.word	moveData
 333              		.cfi_endproc
 334              	.LFE68:
 335              		.size	addData, .-addData
 336              		.section	.text.Servo_status,"ax",%progbits
 337              		.align	2
ARM GAS  C:\Users\EDTRIC~1\AppData\Local\Temp\ccXQQyjM.s 			page 9


 338              		.global	Servo_status
 339              		.thumb
 340              		.thumb_func
 341              		.type	Servo_status, %function
 342              	Servo_status:
 343              	.LFB70:
 116:.\herkulex2.c **** 
 117:.\herkulex2.c **** void Servo_Start( void )
 118:.\herkulex2.c **** {
 119:.\herkulex2.c ****     conta = 0;
 120:.\herkulex2.c ****     lengthString = 0;
 121:.\herkulex2.c ****     CyDelay(100);
 122:.\herkulex2.c ****     Servo_clearError(PIDALL);
 123:.\herkulex2.c ****     CyDelay(10);
 124:.\herkulex2.c ****     Servo_ACK(1);
 125:.\herkulex2.c ****     CyDelay(10);
 126:.\herkulex2.c ****     Servo_torqueON(PIDALL);
 127:.\herkulex2.c ****     CyDelay(10);
 128:.\herkulex2.c ****     
 129:.\herkulex2.c ****     Servo_moveOneAngle( PIDALL , 0 , 1000 , LED_RED );
 130:.\herkulex2.c ****     CyDelay(1200);
 131:.\herkulex2.c ****     Servo_setLED( PIDALL , LED_GREEN );
 132:.\herkulex2.c ****     CyDelay(100);
 133:.\herkulex2.c ****     Servo_setLED( PIDALL , 0 );
 134:.\herkulex2.c ****     CyDelay(500);
 135:.\herkulex2.c **** }
 136:.\herkulex2.c **** 
 137:.\herkulex2.c **** uint8 Servo_status( uint8 servoID )
 138:.\herkulex2.c **** {
 344              		.loc 1 138 0
 345              		.cfi_startproc
 346              		@ args = 0, pretend = 0, frame = 0
 347              		@ frame_needed = 0, uses_anonymous_args = 0
 348              	.LVL38:
 349 0000 2DE9F843 		push	{r3, r4, r5, r6, r7, r8, r9, lr}
 350              		.cfi_def_cfa_offset 32
 351              		.cfi_offset 3, -32
 352              		.cfi_offset 4, -28
 353              		.cfi_offset 5, -24
 354              		.cfi_offset 6, -20
 355              		.cfi_offset 7, -16
 356              		.cfi_offset 8, -12
 357              		.cfi_offset 9, -8
 358              		.cfi_offset 14, -4
 139:.\herkulex2.c ****     pSize = 0x07;
 359              		.loc 1 139 0
 360 0004 DFF8B890 		ldr	r9, .L31+24
 361 0008 0721     		movs	r1, #7
 362 000a 89F80010 		strb	r1, [r9]
 140:.\herkulex2.c ****     pID = servoID;
 363              		.loc 1 140 0
 364 000e 264C     		ldr	r4, .L31
 365 0010 2070     		strb	r0, [r4]
 141:.\herkulex2.c ****     cmd = STAT;
 366              		.loc 1 141 0
 367 0012 264E     		ldr	r6, .L31+4
 368 0014 3170     		strb	r1, [r6]
ARM GAS  C:\Users\EDTRIC~1\AppData\Local\Temp\ccXQQyjM.s 			page 10


 142:.\herkulex2.c ****     
 143:.\herkulex2.c ****     ck1 = ( pSize ^ pID ^ cmd) & 0xFE;
 369              		.loc 1 143 0
 370 0016 00F0FE02 		and	r2, r0, #254
 371 001a DFF8A880 		ldr	r8, .L31+28
 372 001e 88F80020 		strb	r2, [r8]
 144:.\herkulex2.c ****     ck2 = ( ~( pSize ^ pID ^ cmd ) ) & 0xFE;
 373              		.loc 1 144 0
 374 0022 C343     		mvns	r3, r0
 375 0024 03F0FE03 		and	r3, r3, #254
 376 0028 214F     		ldr	r7, .L31+8
 377 002a 3B70     		strb	r3, [r7]
 145:.\herkulex2.c ****     
 146:.\herkulex2.c ****     dataEx[0] = HEADER;
 378              		.loc 1 146 0
 379 002c 214D     		ldr	r5, .L31+12
 380 002e 4FF0FF0E 		mov	lr, #255
 381 0032 85F800E0 		strb	lr, [r5]
 147:.\herkulex2.c ****     dataEx[1] = HEADER;
 382              		.loc 1 147 0
 383 0036 85F801E0 		strb	lr, [r5, #1]
 148:.\herkulex2.c ****     dataEx[2] = pSize;
 384              		.loc 1 148 0
 385 003a A970     		strb	r1, [r5, #2]
 149:.\herkulex2.c ****     dataEx[3] = pID;
 386              		.loc 1 149 0
 387 003c E870     		strb	r0, [r5, #3]
 150:.\herkulex2.c ****     dataEx[4] = cmd;
 388              		.loc 1 150 0
 389 003e 2971     		strb	r1, [r5, #4]
 151:.\herkulex2.c ****     dataEx[5] = ck1;
 390              		.loc 1 151 0
 391 0040 6A71     		strb	r2, [r5, #5]
 152:.\herkulex2.c ****     dataEx[6] = ck2;
 392              		.loc 1 152 0
 393 0042 AB71     		strb	r3, [r5, #6]
 153:.\herkulex2.c ****     
 154:.\herkulex2.c ****     sendData( dataEx , pSize );
 394              		.loc 1 154 0
 395 0044 2846     		mov	r0, r5
 396              	.LVL39:
 397 0046 FFF7FEFF 		bl	sendData
 398              	.LVL40:
 155:.\herkulex2.c ****     CyDelay(5);
 399              		.loc 1 155 0
 400 004a 0520     		movs	r0, #5
 401 004c FFF7FEFF 		bl	CyDelay
 402              	.LVL41:
 156:.\herkulex2.c ****     readData(9);
 403              		.loc 1 156 0
 404 0050 0920     		movs	r0, #9
 405 0052 FFF7FEFF 		bl	readData
 406              	.LVL42:
 157:.\herkulex2.c ****     
 158:.\herkulex2.c ****     pSize = dataEx[2];
 407              		.loc 1 158 0
 408 0056 A878     		ldrb	r0, [r5, #2]	@ zero_extendqisi2
ARM GAS  C:\Users\EDTRIC~1\AppData\Local\Temp\ccXQQyjM.s 			page 11


 409 0058 89F80000 		strb	r0, [r9]
 159:.\herkulex2.c ****     pID = dataEx[3];
 410              		.loc 1 159 0
 411 005c EB78     		ldrb	r3, [r5, #3]	@ zero_extendqisi2
 412 005e 2370     		strb	r3, [r4]
 160:.\herkulex2.c ****     cmd = dataEx[4];
 413              		.loc 1 160 0
 414 0060 2979     		ldrb	r1, [r5, #4]	@ zero_extendqisi2
 415 0062 3170     		strb	r1, [r6]
 161:.\herkulex2.c ****     data[0] = data[7];
 416              		.loc 1 161 0
 417 0064 144A     		ldr	r2, .L31+16
 418 0066 D479     		ldrb	r4, [r2, #7]	@ zero_extendqisi2
 419 0068 1470     		strb	r4, [r2]
 162:.\herkulex2.c ****     data[1] = data[8];
 420              		.loc 1 162 0
 421 006a 147A     		ldrb	r4, [r2, #8]	@ zero_extendqisi2
 422 006c 5470     		strb	r4, [r2, #1]
 163:.\herkulex2.c ****     lengthString = 2;
 423              		.loc 1 163 0
 424 006e 0224     		movs	r4, #2
 425 0070 124A     		ldr	r2, .L31+20
 426 0072 1470     		strb	r4, [r2]
 164:.\herkulex2.c ****     
 165:.\herkulex2.c ****     ck1 = ( dataEx[2] ^ dataEx[3] ^ dataEx[4] ^ dataEx[7] ^ dataEx[8] ) & 0xFE;
 427              		.loc 1 165 0
 428 0074 EE79     		ldrb	r6, [r5, #7]	@ zero_extendqisi2
 429 0076 2C7A     		ldrb	r4, [r5, #8]	@ zero_extendqisi2
 430 0078 4340     		eors	r3, r3, r0
 431 007a 4B40     		eors	r3, r3, r1
 432 007c 7340     		eors	r3, r3, r6
 433 007e 5C40     		eors	r4, r4, r3
 434 0080 04F0FE04 		and	r4, r4, #254
 435 0084 88F80040 		strb	r4, [r8]
 166:.\herkulex2.c ****     ck2 = checksum2(ck1);
 436              		.loc 1 166 0
 437 0088 2046     		mov	r0, r4
 438 008a FFF7FEFF 		bl	checksum2
 439              	.LVL43:
 440 008e 3870     		strb	r0, [r7]
 167:.\herkulex2.c ****     
 168:.\herkulex2.c ****     if( ck1 != dataEx[5] ) return -1;
 441              		.loc 1 168 0
 442 0090 6B79     		ldrb	r3, [r5, #5]	@ zero_extendqisi2
 443 0092 9C42     		cmp	r4, r3
 444 0094 04D1     		bne	.L29
 169:.\herkulex2.c ****     if( ck2 != dataEx[6] ) return -2;
 445              		.loc 1 169 0
 446 0096 AB79     		ldrb	r3, [r5, #6]	@ zero_extendqisi2
 447 0098 9842     		cmp	r0, r3
 448 009a 02D0     		beq	.L28
 449 009c FE26     		movs	r6, #254
 450 009e 00E0     		b	.L28
 451              	.L29:
 168:.\herkulex2.c ****     if( ck2 != dataEx[6] ) return -2;
 452              		.loc 1 168 0
 453 00a0 FF26     		movs	r6, #255
ARM GAS  C:\Users\EDTRIC~1\AppData\Local\Temp\ccXQQyjM.s 			page 12


 454              	.L28:
 170:.\herkulex2.c ****     
 171:.\herkulex2.c ****     return dataEx[7];
 172:.\herkulex2.c **** }
 455              		.loc 1 172 0
 456 00a2 3046     		mov	r0, r6
 457 00a4 BDE8F883 		pop	{r3, r4, r5, r6, r7, r8, r9, pc}
 458              	.L32:
 459              		.align	2
 460              	.L31:
 461 00a8 00000000 		.word	pID
 462 00ac 00000000 		.word	cmd
 463 00b0 00000000 		.word	ck2
 464 00b4 00000000 		.word	dataEx
 465 00b8 00000000 		.word	data
 466 00bc 00000000 		.word	lengthString
 467 00c0 00000000 		.word	pSize
 468 00c4 00000000 		.word	ck1
 469              		.cfi_endproc
 470              	.LFE70:
 471              		.size	Servo_status, .-Servo_status
 472              		.section	.text.Servo_torqueON,"ax",%progbits
 473              		.align	2
 474              		.global	Servo_torqueON
 475              		.thumb
 476              		.thumb_func
 477              		.type	Servo_torqueON, %function
 478              	Servo_torqueON:
 479              	.LFB71:
 173:.\herkulex2.c **** 
 174:.\herkulex2.c **** void Servo_torqueON( uint8 servoID )
 175:.\herkulex2.c **** {
 480              		.loc 1 175 0
 481              		.cfi_startproc
 482              		@ args = 0, pretend = 0, frame = 0
 483              		@ frame_needed = 0, uses_anonymous_args = 0
 484              	.LVL44:
 485 0000 2DE9F041 		push	{r4, r5, r6, r7, r8, lr}
 486              		.cfi_def_cfa_offset 24
 487              		.cfi_offset 4, -24
 488              		.cfi_offset 5, -20
 489              		.cfi_offset 6, -16
 490              		.cfi_offset 7, -12
 491              		.cfi_offset 8, -8
 492              		.cfi_offset 14, -4
 176:.\herkulex2.c ****     pSize = 0x0A;
 493              		.loc 1 176 0
 494 0004 DFF88480 		ldr	r8, .L35+28
 495 0008 0A23     		movs	r3, #10
 496 000a 88F80030 		strb	r3, [r8]
 177:.\herkulex2.c ****     pID = servoID;
 497              		.loc 1 177 0
 498 000e 184F     		ldr	r7, .L35
 499 0010 3870     		strb	r0, [r7]
 178:.\herkulex2.c ****     cmd = RAM_WRITE;
 500              		.loc 1 178 0
 501 0012 184E     		ldr	r6, .L35+4
ARM GAS  C:\Users\EDTRIC~1\AppData\Local\Temp\ccXQQyjM.s 			page 13


 502 0014 0321     		movs	r1, #3
 503 0016 3170     		strb	r1, [r6]
 179:.\herkulex2.c ****     data[0] = 0x34;
 504              		.loc 1 179 0
 505 0018 174C     		ldr	r4, .L35+8
 506 001a 3423     		movs	r3, #52
 507 001c 2370     		strb	r3, [r4]
 180:.\herkulex2.c ****     data[1] = 0x01;
 508              		.loc 1 180 0
 509 001e 0123     		movs	r3, #1
 510 0020 6370     		strb	r3, [r4, #1]
 181:.\herkulex2.c ****     data[2] = 0x60;
 511              		.loc 1 181 0
 512 0022 6023     		movs	r3, #96
 513 0024 A370     		strb	r3, [r4, #2]
 182:.\herkulex2.c ****     lengthString = 3;
 514              		.loc 1 182 0
 515 0026 154B     		ldr	r3, .L35+12
 516 0028 1970     		strb	r1, [r3]
 183:.\herkulex2.c ****     
 184:.\herkulex2.c ****     ck1 = checksum1( data , lengthString );
 517              		.loc 1 184 0
 518 002a 2046     		mov	r0, r4
 519              	.LVL45:
 520 002c FFF7FEFF 		bl	checksum1
 521              	.LVL46:
 522 0030 0546     		mov	r5, r0
 523 0032 134B     		ldr	r3, .L35+16
 524 0034 1870     		strb	r0, [r3]
 185:.\herkulex2.c ****     ck2 = checksum2( ck1 );
 525              		.loc 1 185 0
 526 0036 FFF7FEFF 		bl	checksum2
 527              	.LVL47:
 528 003a 124B     		ldr	r3, .L35+20
 529 003c 1870     		strb	r0, [r3]
 186:.\herkulex2.c ****     
 187:.\herkulex2.c ****     dataEx[0] = HEADER;
 530              		.loc 1 187 0
 531 003e 124B     		ldr	r3, .L35+24
 532 0040 FF22     		movs	r2, #255
 533 0042 1A70     		strb	r2, [r3]
 188:.\herkulex2.c ****     dataEx[1] = HEADER;
 534              		.loc 1 188 0
 535 0044 5A70     		strb	r2, [r3, #1]
 189:.\herkulex2.c ****     dataEx[2] = pSize;
 536              		.loc 1 189 0
 537 0046 98F80010 		ldrb	r1, [r8]	@ zero_extendqisi2
 538 004a 9970     		strb	r1, [r3, #2]
 190:.\herkulex2.c ****     dataEx[3] = pID;
 539              		.loc 1 190 0
 540 004c 3A78     		ldrb	r2, [r7]	@ zero_extendqisi2
 541 004e DA70     		strb	r2, [r3, #3]
 191:.\herkulex2.c ****     dataEx[4] = cmd;
 542              		.loc 1 191 0
 543 0050 3278     		ldrb	r2, [r6]	@ zero_extendqisi2
 544 0052 1A71     		strb	r2, [r3, #4]
 192:.\herkulex2.c ****     dataEx[5] = ck1;
ARM GAS  C:\Users\EDTRIC~1\AppData\Local\Temp\ccXQQyjM.s 			page 14


 545              		.loc 1 192 0
 546 0054 5D71     		strb	r5, [r3, #5]
 193:.\herkulex2.c ****     dataEx[6] = ck2;
 547              		.loc 1 193 0
 548 0056 9871     		strb	r0, [r3, #6]
 194:.\herkulex2.c ****     dataEx[7] = data[0];
 549              		.loc 1 194 0
 550 0058 2278     		ldrb	r2, [r4]	@ zero_extendqisi2
 551 005a DA71     		strb	r2, [r3, #7]
 195:.\herkulex2.c ****     dataEx[8] = data[1];
 552              		.loc 1 195 0
 553 005c 6278     		ldrb	r2, [r4, #1]	@ zero_extendqisi2
 554 005e 1A72     		strb	r2, [r3, #8]
 196:.\herkulex2.c ****     dataEx[9] = data[2];
 555              		.loc 1 196 0
 556 0060 A278     		ldrb	r2, [r4, #2]	@ zero_extendqisi2
 557 0062 5A72     		strb	r2, [r3, #9]
 197:.\herkulex2.c ****     
 198:.\herkulex2.c ****     sendData( dataEx , pSize );
 558              		.loc 1 198 0
 559 0064 1846     		mov	r0, r3
 560 0066 FFF7FEFF 		bl	sendData
 561              	.LVL48:
 562 006a BDE8F081 		pop	{r4, r5, r6, r7, r8, pc}
 563              	.L36:
 564 006e 00BF     		.align	2
 565              	.L35:
 566 0070 00000000 		.word	pID
 567 0074 00000000 		.word	cmd
 568 0078 00000000 		.word	data
 569 007c 00000000 		.word	lengthString
 570 0080 00000000 		.word	ck1
 571 0084 00000000 		.word	ck2
 572 0088 00000000 		.word	dataEx
 573 008c 00000000 		.word	pSize
 574              		.cfi_endproc
 575              	.LFE71:
 576              		.size	Servo_torqueON, .-Servo_torqueON
 577              		.section	.text.Servo_torqueOFF,"ax",%progbits
 578              		.align	2
 579              		.global	Servo_torqueOFF
 580              		.thumb
 581              		.thumb_func
 582              		.type	Servo_torqueOFF, %function
 583              	Servo_torqueOFF:
 584              	.LFB72:
 199:.\herkulex2.c **** }
 200:.\herkulex2.c **** 
 201:.\herkulex2.c **** void Servo_torqueOFF( uint8 servoID )
 202:.\herkulex2.c **** {
 585              		.loc 1 202 0
 586              		.cfi_startproc
 587              		@ args = 0, pretend = 0, frame = 0
 588              		@ frame_needed = 0, uses_anonymous_args = 0
 589              	.LVL49:
 590 0000 2DE9F041 		push	{r4, r5, r6, r7, r8, lr}
 591              		.cfi_def_cfa_offset 24
ARM GAS  C:\Users\EDTRIC~1\AppData\Local\Temp\ccXQQyjM.s 			page 15


 592              		.cfi_offset 4, -24
 593              		.cfi_offset 5, -20
 594              		.cfi_offset 6, -16
 595              		.cfi_offset 7, -12
 596              		.cfi_offset 8, -8
 597              		.cfi_offset 14, -4
 203:.\herkulex2.c ****     pSize = 0x0A;
 598              		.loc 1 203 0
 599 0004 DFF88480 		ldr	r8, .L39+28
 600 0008 0A23     		movs	r3, #10
 601 000a 88F80030 		strb	r3, [r8]
 204:.\herkulex2.c ****     pID = servoID;
 602              		.loc 1 204 0
 603 000e 184F     		ldr	r7, .L39
 604 0010 3870     		strb	r0, [r7]
 205:.\herkulex2.c ****     cmd = RAM_WRITE;
 605              		.loc 1 205 0
 606 0012 184E     		ldr	r6, .L39+4
 607 0014 0321     		movs	r1, #3
 608 0016 3170     		strb	r1, [r6]
 206:.\herkulex2.c ****     data[0] = 0x34;
 609              		.loc 1 206 0
 610 0018 174C     		ldr	r4, .L39+8
 611 001a 3423     		movs	r3, #52
 612 001c 2370     		strb	r3, [r4]
 207:.\herkulex2.c ****     data[1] = 0x01;
 613              		.loc 1 207 0
 614 001e 0123     		movs	r3, #1
 615 0020 6370     		strb	r3, [r4, #1]
 208:.\herkulex2.c ****     data[2] = 0x00;
 616              		.loc 1 208 0
 617 0022 0023     		movs	r3, #0
 618 0024 A370     		strb	r3, [r4, #2]
 209:.\herkulex2.c ****     lengthString = 3;
 619              		.loc 1 209 0
 620 0026 154B     		ldr	r3, .L39+12
 621 0028 1970     		strb	r1, [r3]
 210:.\herkulex2.c ****     
 211:.\herkulex2.c ****     ck1 = checksum1( data , lengthString );
 622              		.loc 1 211 0
 623 002a 2046     		mov	r0, r4
 624              	.LVL50:
 625 002c FFF7FEFF 		bl	checksum1
 626              	.LVL51:
 627 0030 0546     		mov	r5, r0
 628 0032 134B     		ldr	r3, .L39+16
 629 0034 1870     		strb	r0, [r3]
 212:.\herkulex2.c ****     ck2 = checksum2( ck1 );
 630              		.loc 1 212 0
 631 0036 FFF7FEFF 		bl	checksum2
 632              	.LVL52:
 633 003a 124B     		ldr	r3, .L39+20
 634 003c 1870     		strb	r0, [r3]
 213:.\herkulex2.c ****     
 214:.\herkulex2.c ****     dataEx[0] = HEADER;
 635              		.loc 1 214 0
 636 003e 124B     		ldr	r3, .L39+24
ARM GAS  C:\Users\EDTRIC~1\AppData\Local\Temp\ccXQQyjM.s 			page 16


 637 0040 FF22     		movs	r2, #255
 638 0042 1A70     		strb	r2, [r3]
 215:.\herkulex2.c ****     dataEx[1] = HEADER;
 639              		.loc 1 215 0
 640 0044 5A70     		strb	r2, [r3, #1]
 216:.\herkulex2.c ****     dataEx[2] = pSize;
 641              		.loc 1 216 0
 642 0046 98F80010 		ldrb	r1, [r8]	@ zero_extendqisi2
 643 004a 9970     		strb	r1, [r3, #2]
 217:.\herkulex2.c ****     dataEx[3] = pID;
 644              		.loc 1 217 0
 645 004c 3A78     		ldrb	r2, [r7]	@ zero_extendqisi2
 646 004e DA70     		strb	r2, [r3, #3]
 218:.\herkulex2.c ****     dataEx[4] = cmd;
 647              		.loc 1 218 0
 648 0050 3278     		ldrb	r2, [r6]	@ zero_extendqisi2
 649 0052 1A71     		strb	r2, [r3, #4]
 219:.\herkulex2.c ****     dataEx[5] = ck1;
 650              		.loc 1 219 0
 651 0054 5D71     		strb	r5, [r3, #5]
 220:.\herkulex2.c ****     dataEx[6] = ck2;
 652              		.loc 1 220 0
 653 0056 9871     		strb	r0, [r3, #6]
 221:.\herkulex2.c ****     dataEx[7] = data[0];
 654              		.loc 1 221 0
 655 0058 2278     		ldrb	r2, [r4]	@ zero_extendqisi2
 656 005a DA71     		strb	r2, [r3, #7]
 222:.\herkulex2.c ****     dataEx[8] = data[1];
 657              		.loc 1 222 0
 658 005c 6278     		ldrb	r2, [r4, #1]	@ zero_extendqisi2
 659 005e 1A72     		strb	r2, [r3, #8]
 223:.\herkulex2.c ****     dataEx[9] = data[2];
 660              		.loc 1 223 0
 661 0060 A278     		ldrb	r2, [r4, #2]	@ zero_extendqisi2
 662 0062 5A72     		strb	r2, [r3, #9]
 224:.\herkulex2.c ****     
 225:.\herkulex2.c ****     sendData( dataEx , pSize );
 663              		.loc 1 225 0
 664 0064 1846     		mov	r0, r3
 665 0066 FFF7FEFF 		bl	sendData
 666              	.LVL53:
 667 006a BDE8F081 		pop	{r4, r5, r6, r7, r8, pc}
 668              	.L40:
 669 006e 00BF     		.align	2
 670              	.L39:
 671 0070 00000000 		.word	pID
 672 0074 00000000 		.word	cmd
 673 0078 00000000 		.word	data
 674 007c 00000000 		.word	lengthString
 675 0080 00000000 		.word	ck1
 676 0084 00000000 		.word	ck2
 677 0088 00000000 		.word	dataEx
 678 008c 00000000 		.word	pSize
 679              		.cfi_endproc
 680              	.LFE72:
 681              		.size	Servo_torqueOFF, .-Servo_torqueOFF
 682              		.section	.text.Servo_ACK,"ax",%progbits
ARM GAS  C:\Users\EDTRIC~1\AppData\Local\Temp\ccXQQyjM.s 			page 17


 683              		.align	2
 684              		.global	Servo_ACK
 685              		.thumb
 686              		.thumb_func
 687              		.type	Servo_ACK, %function
 688              	Servo_ACK:
 689              	.LFB73:
 226:.\herkulex2.c **** }
 227:.\herkulex2.c **** 
 228:.\herkulex2.c **** void Servo_ACK( uint8 valueACK )
 229:.\herkulex2.c **** {
 690              		.loc 1 229 0
 691              		.cfi_startproc
 692              		@ args = 0, pretend = 0, frame = 0
 693              		@ frame_needed = 0, uses_anonymous_args = 0
 694              	.LVL54:
 695 0000 2DE9F041 		push	{r4, r5, r6, r7, r8, lr}
 696              		.cfi_def_cfa_offset 24
 697              		.cfi_offset 4, -24
 698              		.cfi_offset 5, -20
 699              		.cfi_offset 6, -16
 700              		.cfi_offset 7, -12
 701              		.cfi_offset 8, -8
 702              		.cfi_offset 14, -4
 230:.\herkulex2.c ****     pSize = 0x0A;
 703              		.loc 1 230 0
 704 0004 DFF88480 		ldr	r8, .L43+28
 705 0008 0A23     		movs	r3, #10
 706 000a 88F80030 		strb	r3, [r8]
 231:.\herkulex2.c ****     pID = PIDALL;
 707              		.loc 1 231 0
 708 000e 184F     		ldr	r7, .L43
 709 0010 FE23     		movs	r3, #254
 710 0012 3B70     		strb	r3, [r7]
 232:.\herkulex2.c ****     cmd = RAM_WRITE;
 711              		.loc 1 232 0
 712 0014 174E     		ldr	r6, .L43+4
 713 0016 0321     		movs	r1, #3
 714 0018 3170     		strb	r1, [r6]
 233:.\herkulex2.c ****     data[0] = 0x34;
 715              		.loc 1 233 0
 716 001a 174C     		ldr	r4, .L43+8
 717 001c 3423     		movs	r3, #52
 718 001e 2370     		strb	r3, [r4]
 234:.\herkulex2.c ****     data[1] = 0x01;
 719              		.loc 1 234 0
 720 0020 0123     		movs	r3, #1
 721 0022 6370     		strb	r3, [r4, #1]
 235:.\herkulex2.c ****     data[2] = valueACK;
 722              		.loc 1 235 0
 723 0024 A070     		strb	r0, [r4, #2]
 236:.\herkulex2.c ****     lengthString = 3;
 724              		.loc 1 236 0
 725 0026 154B     		ldr	r3, .L43+12
 726 0028 1970     		strb	r1, [r3]
 237:.\herkulex2.c ****     
 238:.\herkulex2.c ****     ck1 = checksum1( data , lengthString );
ARM GAS  C:\Users\EDTRIC~1\AppData\Local\Temp\ccXQQyjM.s 			page 18


 727              		.loc 1 238 0
 728 002a 2046     		mov	r0, r4
 729              	.LVL55:
 730 002c FFF7FEFF 		bl	checksum1
 731              	.LVL56:
 732 0030 0546     		mov	r5, r0
 733 0032 134B     		ldr	r3, .L43+16
 734 0034 1870     		strb	r0, [r3]
 239:.\herkulex2.c ****     ck2 = checksum2( ck1 );
 735              		.loc 1 239 0
 736 0036 FFF7FEFF 		bl	checksum2
 737              	.LVL57:
 738 003a 124B     		ldr	r3, .L43+20
 739 003c 1870     		strb	r0, [r3]
 240:.\herkulex2.c ****     
 241:.\herkulex2.c ****     dataEx[0] = HEADER;
 740              		.loc 1 241 0
 741 003e 124B     		ldr	r3, .L43+24
 742 0040 FF22     		movs	r2, #255
 743 0042 1A70     		strb	r2, [r3]
 242:.\herkulex2.c ****     dataEx[1] = HEADER;
 744              		.loc 1 242 0
 745 0044 5A70     		strb	r2, [r3, #1]
 243:.\herkulex2.c ****     dataEx[2] = pSize;
 746              		.loc 1 243 0
 747 0046 98F80010 		ldrb	r1, [r8]	@ zero_extendqisi2
 748 004a 9970     		strb	r1, [r3, #2]
 244:.\herkulex2.c ****     dataEx[3] = pID;
 749              		.loc 1 244 0
 750 004c 3A78     		ldrb	r2, [r7]	@ zero_extendqisi2
 751 004e DA70     		strb	r2, [r3, #3]
 245:.\herkulex2.c ****     dataEx[4] = cmd;
 752              		.loc 1 245 0
 753 0050 3278     		ldrb	r2, [r6]	@ zero_extendqisi2
 754 0052 1A71     		strb	r2, [r3, #4]
 246:.\herkulex2.c ****     dataEx[5] = ck1;
 755              		.loc 1 246 0
 756 0054 5D71     		strb	r5, [r3, #5]
 247:.\herkulex2.c ****     dataEx[6] = ck2;
 757              		.loc 1 247 0
 758 0056 9871     		strb	r0, [r3, #6]
 248:.\herkulex2.c ****     dataEx[7] = data[0];
 759              		.loc 1 248 0
 760 0058 2278     		ldrb	r2, [r4]	@ zero_extendqisi2
 761 005a DA71     		strb	r2, [r3, #7]
 249:.\herkulex2.c ****     dataEx[8] = data[1];
 762              		.loc 1 249 0
 763 005c 6278     		ldrb	r2, [r4, #1]	@ zero_extendqisi2
 764 005e 1A72     		strb	r2, [r3, #8]
 250:.\herkulex2.c ****     dataEx[9] = data[2];
 765              		.loc 1 250 0
 766 0060 A278     		ldrb	r2, [r4, #2]	@ zero_extendqisi2
 767 0062 5A72     		strb	r2, [r3, #9]
 251:.\herkulex2.c ****     
 252:.\herkulex2.c ****     sendData( dataEx , pSize );    
 768              		.loc 1 252 0
 769 0064 1846     		mov	r0, r3
ARM GAS  C:\Users\EDTRIC~1\AppData\Local\Temp\ccXQQyjM.s 			page 19


 770 0066 FFF7FEFF 		bl	sendData
 771              	.LVL58:
 772 006a BDE8F081 		pop	{r4, r5, r6, r7, r8, pc}
 773              	.L44:
 774 006e 00BF     		.align	2
 775              	.L43:
 776 0070 00000000 		.word	pID
 777 0074 00000000 		.word	cmd
 778 0078 00000000 		.word	data
 779 007c 00000000 		.word	lengthString
 780 0080 00000000 		.word	ck1
 781 0084 00000000 		.word	ck2
 782 0088 00000000 		.word	dataEx
 783 008c 00000000 		.word	pSize
 784              		.cfi_endproc
 785              	.LFE73:
 786              		.size	Servo_ACK, .-Servo_ACK
 787              		.section	.text.Servo_model,"ax",%progbits
 788              		.align	2
 789              		.global	Servo_model
 790              		.thumb
 791              		.thumb_func
 792              		.type	Servo_model, %function
 793              	Servo_model:
 794              	.LFB74:
 253:.\herkulex2.c **** }
 254:.\herkulex2.c **** 
 255:.\herkulex2.c **** uint8 Servo_model( void )
 256:.\herkulex2.c **** {
 795              		.loc 1 256 0
 796              		.cfi_startproc
 797              		@ args = 0, pretend = 0, frame = 8
 798              		@ frame_needed = 0, uses_anonymous_args = 0
 799 0000 2DE9F04F 		push	{r4, r5, r6, r7, r8, r9, r10, fp, lr}
 800              		.cfi_def_cfa_offset 36
 801              		.cfi_offset 4, -36
 802              		.cfi_offset 5, -32
 803              		.cfi_offset 6, -28
 804              		.cfi_offset 7, -24
 805              		.cfi_offset 8, -20
 806              		.cfi_offset 9, -16
 807              		.cfi_offset 10, -12
 808              		.cfi_offset 11, -8
 809              		.cfi_offset 14, -4
 810 0004 83B0     		sub	sp, sp, #12
 811              		.cfi_def_cfa_offset 48
 257:.\herkulex2.c ****     pSize = 0x09;
 812              		.loc 1 257 0
 813 0006 DFF8D890 		ldr	r9, .L50+16
 814 000a 0923     		movs	r3, #9
 815 000c 89F80030 		strb	r3, [r9]
 258:.\herkulex2.c ****     pID = PIDALL;
 816              		.loc 1 258 0
 817 0010 DFF8D080 		ldr	r8, .L50+20
 818 0014 FE23     		movs	r3, #254
 819 0016 88F80030 		strb	r3, [r8]
 259:.\herkulex2.c ****     cmd = EEP_READ;
ARM GAS  C:\Users\EDTRIC~1\AppData\Local\Temp\ccXQQyjM.s 			page 20


 820              		.loc 1 259 0
 821 001a 2D4F     		ldr	r7, .L50
 822 001c 0221     		movs	r1, #2
 823 001e 3970     		strb	r1, [r7]
 260:.\herkulex2.c ****     data[0] = 0x00;
 824              		.loc 1 260 0
 825 0020 2C4D     		ldr	r5, .L50+4
 826 0022 0023     		movs	r3, #0
 827 0024 2B70     		strb	r3, [r5]
 261:.\herkulex2.c ****     data[1] = 0x01;
 828              		.loc 1 261 0
 829 0026 0126     		movs	r6, #1
 830 0028 6E70     		strb	r6, [r5, #1]
 262:.\herkulex2.c ****     lengthString = 2;
 831              		.loc 1 262 0
 832 002a DFF8BCB0 		ldr	fp, .L50+24
 833 002e 8BF80010 		strb	r1, [fp]
 263:.\herkulex2.c ****     
 264:.\herkulex2.c ****     ck1 = checksum1( data , lengthString );
 834              		.loc 1 264 0
 835 0032 2846     		mov	r0, r5
 836 0034 FFF7FEFF 		bl	checksum1
 837              	.LVL59:
 838 0038 DFF8B0A0 		ldr	r10, .L50+28
 839 003c 0190     		str	r0, [sp, #4]
 840 003e 8AF80000 		strb	r0, [r10]
 265:.\herkulex2.c ****     ck2 = checksum2( ck1 );
 841              		.loc 1 265 0
 842 0042 FFF7FEFF 		bl	checksum2
 843              	.LVL60:
 844 0046 244B     		ldr	r3, .L50+8
 845 0048 1870     		strb	r0, [r3]
 266:.\herkulex2.c ****     
 267:.\herkulex2.c ****     dataEx[0] = HEADER;
 846              		.loc 1 267 0
 847 004a 244C     		ldr	r4, .L50+12
 848 004c FF23     		movs	r3, #255
 849 004e 2370     		strb	r3, [r4]
 268:.\herkulex2.c ****     dataEx[1] = HEADER;
 850              		.loc 1 268 0
 851 0050 6370     		strb	r3, [r4, #1]
 269:.\herkulex2.c ****     dataEx[2] = pSize;
 852              		.loc 1 269 0
 853 0052 99F80010 		ldrb	r1, [r9]	@ zero_extendqisi2
 854 0056 A170     		strb	r1, [r4, #2]
 270:.\herkulex2.c ****     dataEx[3] = pID;
 855              		.loc 1 270 0
 856 0058 98F80030 		ldrb	r3, [r8]	@ zero_extendqisi2
 857 005c E370     		strb	r3, [r4, #3]
 271:.\herkulex2.c ****     dataEx[4] = cmd;
 858              		.loc 1 271 0
 859 005e 3B78     		ldrb	r3, [r7]	@ zero_extendqisi2
 860 0060 2371     		strb	r3, [r4, #4]
 272:.\herkulex2.c ****     dataEx[5] = ck1;
 861              		.loc 1 272 0
 862 0062 9DF80430 		ldrb	r3, [sp, #4]	@ zero_extendqisi2
 863 0066 6371     		strb	r3, [r4, #5]
ARM GAS  C:\Users\EDTRIC~1\AppData\Local\Temp\ccXQQyjM.s 			page 21


 273:.\herkulex2.c ****     dataEx[6] = ck2;
 864              		.loc 1 273 0
 865 0068 A071     		strb	r0, [r4, #6]
 274:.\herkulex2.c ****     dataEx[7] = data[0];
 866              		.loc 1 274 0
 867 006a 2B78     		ldrb	r3, [r5]	@ zero_extendqisi2
 868 006c E371     		strb	r3, [r4, #7]
 275:.\herkulex2.c ****     dataEx[8] = data[1];
 869              		.loc 1 275 0
 870 006e 6B78     		ldrb	r3, [r5, #1]	@ zero_extendqisi2
 871 0070 2372     		strb	r3, [r4, #8]
 276:.\herkulex2.c ****     
 277:.\herkulex2.c ****     sendData( dataEx , pSize );
 872              		.loc 1 277 0
 873 0072 2046     		mov	r0, r4
 874 0074 FFF7FEFF 		bl	sendData
 875              	.LVL61:
 278:.\herkulex2.c ****     CyDelay(5);
 876              		.loc 1 278 0
 877 0078 0520     		movs	r0, #5
 878 007a FFF7FEFF 		bl	CyDelay
 879              	.LVL62:
 279:.\herkulex2.c ****     readData(9);
 880              		.loc 1 279 0
 881 007e 0920     		movs	r0, #9
 882 0080 FFF7FEFF 		bl	readData
 883              	.LVL63:
 280:.\herkulex2.c ****     
 281:.\herkulex2.c ****     pSize = dataEx[2];
 884              		.loc 1 281 0
 885 0084 A378     		ldrb	r3, [r4, #2]	@ zero_extendqisi2
 886 0086 89F80030 		strb	r3, [r9]
 282:.\herkulex2.c ****     pID = dataEx[3];
 887              		.loc 1 282 0
 888 008a E378     		ldrb	r3, [r4, #3]	@ zero_extendqisi2
 889 008c 88F80030 		strb	r3, [r8]
 283:.\herkulex2.c ****     cmd = dataEx[4];
 890              		.loc 1 283 0
 891 0090 2379     		ldrb	r3, [r4, #4]	@ zero_extendqisi2
 892 0092 3B70     		strb	r3, [r7]
 284:.\herkulex2.c ****     data[0] = data[7];
 893              		.loc 1 284 0
 894 0094 EB79     		ldrb	r3, [r5, #7]	@ zero_extendqisi2
 895 0096 2B70     		strb	r3, [r5]
 285:.\herkulex2.c ****     lengthString = 1;
 896              		.loc 1 285 0
 897 0098 8BF80060 		strb	r6, [fp]
 286:.\herkulex2.c ****     
 287:.\herkulex2.c ****     ck1 = checksum1( data , lengthString );
 898              		.loc 1 287 0
 899 009c 2846     		mov	r0, r5
 900 009e 3146     		mov	r1, r6
 901 00a0 FFF7FEFF 		bl	checksum1
 902              	.LVL64:
 903 00a4 0546     		mov	r5, r0
 904 00a6 8AF80000 		strb	r0, [r10]
 288:.\herkulex2.c ****     ck2 = checksum2( ck1 );
ARM GAS  C:\Users\EDTRIC~1\AppData\Local\Temp\ccXQQyjM.s 			page 22


 905              		.loc 1 288 0
 906 00aa FFF7FEFF 		bl	checksum2
 907              	.LVL65:
 908 00ae 0A4B     		ldr	r3, .L50+8
 909 00b0 1870     		strb	r0, [r3]
 289:.\herkulex2.c ****     
 290:.\herkulex2.c ****     if( ck1 != dataEx[5] ) return -1;
 910              		.loc 1 290 0
 911 00b2 6379     		ldrb	r3, [r4, #5]	@ zero_extendqisi2
 912 00b4 9D42     		cmp	r5, r3
 913 00b6 04D1     		bne	.L47
 291:.\herkulex2.c ****     if( ck2 != dataEx[6] ) return -2;
 914              		.loc 1 291 0
 915 00b8 A379     		ldrb	r3, [r4, #6]	@ zero_extendqisi2
 916 00ba 9842     		cmp	r0, r3
 917 00bc 03D1     		bne	.L48
 292:.\herkulex2.c ****     
 293:.\herkulex2.c ****     return dataEx[7];
 918              		.loc 1 293 0
 919 00be E079     		ldrb	r0, [r4, #7]	@ zero_extendqisi2
 920 00c0 02E0     		b	.L46
 921              	.L47:
 290:.\herkulex2.c ****     if( ck2 != dataEx[6] ) return -2;
 922              		.loc 1 290 0
 923 00c2 FF20     		movs	r0, #255
 924 00c4 00E0     		b	.L46
 925              	.L48:
 291:.\herkulex2.c ****     if( ck2 != dataEx[6] ) return -2;
 926              		.loc 1 291 0
 927 00c6 FE20     		movs	r0, #254
 928              	.L46:
 294:.\herkulex2.c **** }
 929              		.loc 1 294 0
 930 00c8 03B0     		add	sp, sp, #12
 931              		.cfi_def_cfa_offset 36
 932              		@ sp needed
 933 00ca BDE8F08F 		pop	{r4, r5, r6, r7, r8, r9, r10, fp, pc}
 934              	.L51:
 935 00ce 00BF     		.align	2
 936              	.L50:
 937 00d0 00000000 		.word	cmd
 938 00d4 00000000 		.word	data
 939 00d8 00000000 		.word	ck2
 940 00dc 00000000 		.word	dataEx
 941 00e0 00000000 		.word	pSize
 942 00e4 00000000 		.word	pID
 943 00e8 00000000 		.word	lengthString
 944 00ec 00000000 		.word	ck1
 945              		.cfi_endproc
 946              	.LFE74:
 947              		.size	Servo_model, .-Servo_model
 948              		.section	.text.Servo_setID,"ax",%progbits
 949              		.align	2
 950              		.global	Servo_setID
 951              		.thumb
 952              		.thumb_func
 953              		.type	Servo_setID, %function
ARM GAS  C:\Users\EDTRIC~1\AppData\Local\Temp\ccXQQyjM.s 			page 23


 954              	Servo_setID:
 955              	.LFB75:
 295:.\herkulex2.c **** 
 296:.\herkulex2.c **** void Servo_setID( uint8 oldID , uint8 newID )
 297:.\herkulex2.c **** {
 956              		.loc 1 297 0
 957              		.cfi_startproc
 958              		@ args = 0, pretend = 0, frame = 0
 959              		@ frame_needed = 0, uses_anonymous_args = 0
 960              	.LVL66:
 961 0000 2DE9F041 		push	{r4, r5, r6, r7, r8, lr}
 962              		.cfi_def_cfa_offset 24
 963              		.cfi_offset 4, -24
 964              		.cfi_offset 5, -20
 965              		.cfi_offset 6, -16
 966              		.cfi_offset 7, -12
 967              		.cfi_offset 8, -8
 968              		.cfi_offset 14, -4
 298:.\herkulex2.c ****     pSize = 0x0A;
 969              		.loc 1 298 0
 970 0004 DFF88080 		ldr	r8, .L54+28
 971 0008 0A23     		movs	r3, #10
 972 000a 88F80030 		strb	r3, [r8]
 299:.\herkulex2.c ****     pID = oldID;
 973              		.loc 1 299 0
 974 000e 174F     		ldr	r7, .L54
 975 0010 3870     		strb	r0, [r7]
 300:.\herkulex2.c ****     cmd = EEP_WRITE;
 976              		.loc 1 300 0
 977 0012 174E     		ldr	r6, .L54+4
 978 0014 0123     		movs	r3, #1
 979 0016 3370     		strb	r3, [r6]
 301:.\herkulex2.c ****     data[0] = 0x06;
 980              		.loc 1 301 0
 981 0018 164C     		ldr	r4, .L54+8
 982 001a 0622     		movs	r2, #6
 983 001c 2270     		strb	r2, [r4]
 302:.\herkulex2.c ****     data[1] = 0x01;
 984              		.loc 1 302 0
 985 001e 6370     		strb	r3, [r4, #1]
 303:.\herkulex2.c ****     data[2] = newID;
 986              		.loc 1 303 0
 987 0020 A170     		strb	r1, [r4, #2]
 304:.\herkulex2.c ****     lengthString = 3;
 988              		.loc 1 304 0
 989 0022 0321     		movs	r1, #3
 990              	.LVL67:
 991 0024 144B     		ldr	r3, .L54+12
 992 0026 1970     		strb	r1, [r3]
 305:.\herkulex2.c ****     
 306:.\herkulex2.c ****     ck1 = checksum1( data , lengthString );
 993              		.loc 1 306 0
 994 0028 2046     		mov	r0, r4
 995              	.LVL68:
 996 002a FFF7FEFF 		bl	checksum1
 997              	.LVL69:
 998 002e 0546     		mov	r5, r0
ARM GAS  C:\Users\EDTRIC~1\AppData\Local\Temp\ccXQQyjM.s 			page 24


 999 0030 124B     		ldr	r3, .L54+16
 1000 0032 1870     		strb	r0, [r3]
 307:.\herkulex2.c ****     ck2 = checksum2( ck1 );
 1001              		.loc 1 307 0
 1002 0034 FFF7FEFF 		bl	checksum2
 1003              	.LVL70:
 1004 0038 114B     		ldr	r3, .L54+20
 1005 003a 1870     		strb	r0, [r3]
 308:.\herkulex2.c ****     
 309:.\herkulex2.c ****     dataEx[0] = HEADER;
 1006              		.loc 1 309 0
 1007 003c 114B     		ldr	r3, .L54+24
 1008 003e FF22     		movs	r2, #255
 1009 0040 1A70     		strb	r2, [r3]
 310:.\herkulex2.c ****     dataEx[1] = HEADER;
 1010              		.loc 1 310 0
 1011 0042 5A70     		strb	r2, [r3, #1]
 311:.\herkulex2.c ****     dataEx[2] = pSize;
 1012              		.loc 1 311 0
 1013 0044 98F80010 		ldrb	r1, [r8]	@ zero_extendqisi2
 1014 0048 9970     		strb	r1, [r3, #2]
 312:.\herkulex2.c ****     dataEx[3] = pID;
 1015              		.loc 1 312 0
 1016 004a 3A78     		ldrb	r2, [r7]	@ zero_extendqisi2
 1017 004c DA70     		strb	r2, [r3, #3]
 313:.\herkulex2.c ****     dataEx[4] = cmd;
 1018              		.loc 1 313 0
 1019 004e 3278     		ldrb	r2, [r6]	@ zero_extendqisi2
 1020 0050 1A71     		strb	r2, [r3, #4]
 314:.\herkulex2.c ****     dataEx[5] = ck1;
 1021              		.loc 1 314 0
 1022 0052 5D71     		strb	r5, [r3, #5]
 315:.\herkulex2.c ****     dataEx[6] = ck2;
 1023              		.loc 1 315 0
 1024 0054 9871     		strb	r0, [r3, #6]
 316:.\herkulex2.c ****     dataEx[7] = data[0];
 1025              		.loc 1 316 0
 1026 0056 2278     		ldrb	r2, [r4]	@ zero_extendqisi2
 1027 0058 DA71     		strb	r2, [r3, #7]
 317:.\herkulex2.c ****     dataEx[8] = data[1];
 1028              		.loc 1 317 0
 1029 005a 6278     		ldrb	r2, [r4, #1]	@ zero_extendqisi2
 1030 005c 1A72     		strb	r2, [r3, #8]
 318:.\herkulex2.c ****     dataEx[9] = data[2];
 1031              		.loc 1 318 0
 1032 005e A278     		ldrb	r2, [r4, #2]	@ zero_extendqisi2
 1033 0060 5A72     		strb	r2, [r3, #9]
 319:.\herkulex2.c ****     
 320:.\herkulex2.c ****     sendData( dataEx , pSize );
 1034              		.loc 1 320 0
 1035 0062 1846     		mov	r0, r3
 1036 0064 FFF7FEFF 		bl	sendData
 1037              	.LVL71:
 1038 0068 BDE8F081 		pop	{r4, r5, r6, r7, r8, pc}
 1039              	.L55:
 1040              		.align	2
 1041              	.L54:
ARM GAS  C:\Users\EDTRIC~1\AppData\Local\Temp\ccXQQyjM.s 			page 25


 1042 006c 00000000 		.word	pID
 1043 0070 00000000 		.word	cmd
 1044 0074 00000000 		.word	data
 1045 0078 00000000 		.word	lengthString
 1046 007c 00000000 		.word	ck1
 1047 0080 00000000 		.word	ck2
 1048 0084 00000000 		.word	dataEx
 1049 0088 00000000 		.word	pSize
 1050              		.cfi_endproc
 1051              	.LFE75:
 1052              		.size	Servo_setID, .-Servo_setID
 1053              		.section	.text.Servo_resetID,"ax",%progbits
 1054              		.align	2
 1055              		.global	Servo_resetID
 1056              		.thumb
 1057              		.thumb_func
 1058              		.type	Servo_resetID, %function
 1059              	Servo_resetID:
 1060              	.LFB76:
 321:.\herkulex2.c **** }
 322:.\herkulex2.c **** 
 323:.\herkulex2.c **** void Servo_resetID( void )
 324:.\herkulex2.c **** {
 1061              		.loc 1 324 0
 1062              		.cfi_startproc
 1063              		@ args = 0, pretend = 0, frame = 0
 1064              		@ frame_needed = 0, uses_anonymous_args = 0
 1065 0000 2DE9F041 		push	{r4, r5, r6, r7, r8, lr}
 1066              		.cfi_def_cfa_offset 24
 1067              		.cfi_offset 4, -24
 1068              		.cfi_offset 5, -20
 1069              		.cfi_offset 6, -16
 1070              		.cfi_offset 7, -12
 1071              		.cfi_offset 8, -8
 1072              		.cfi_offset 14, -4
 325:.\herkulex2.c ****     uint8 i;
 326:.\herkulex2.c ****     pSize = 0x09;
 1073              		.loc 1 326 0
 1074 0004 0922     		movs	r2, #9
 1075 0006 234B     		ldr	r3, .L60
 1076 0008 1A70     		strb	r2, [r3]
 327:.\herkulex2.c ****     cmd = EEP_READ;
 1077              		.loc 1 327 0
 1078 000a 0223     		movs	r3, #2
 1079 000c 224A     		ldr	r2, .L60+4
 1080 000e 1370     		strb	r3, [r2]
 328:.\herkulex2.c ****     data[0] = 0x06;
 1081              		.loc 1 328 0
 1082 0010 224A     		ldr	r2, .L60+8
 1083 0012 0621     		movs	r1, #6
 1084 0014 1170     		strb	r1, [r2]
 329:.\herkulex2.c ****     data[1] = 0x01;
 1085              		.loc 1 329 0
 1086 0016 0125     		movs	r5, #1
 1087 0018 5570     		strb	r5, [r2, #1]
 330:.\herkulex2.c ****     
 331:.\herkulex2.c ****     lengthString = 2u;
ARM GAS  C:\Users\EDTRIC~1\AppData\Local\Temp\ccXQQyjM.s 			page 26


 1088              		.loc 1 331 0
 1089 001a 214A     		ldr	r2, .L60+12
 1090 001c 1370     		strb	r3, [r2]
 1091              	.LVL72:
 332:.\herkulex2.c ****     
 333:.\herkulex2.c ****     for ( i = 1 ; i <= 253 ; i++ )
 1092              		.loc 1 333 0
 1093 001e 35E0     		b	.L57
 1094              	.LVL73:
 1095              	.L58:
 334:.\herkulex2.c ****     {
 335:.\herkulex2.c ****         pID = i;
 1096              		.loc 1 335 0 discriminator 3
 1097 0020 DFF88C80 		ldr	r8, .L60+28
 1098 0024 88F80050 		strb	r5, [r8]
 336:.\herkulex2.c ****         ck1 = checksum1( data , lengthString );
 1099              		.loc 1 336 0 discriminator 3
 1100 0028 1C4E     		ldr	r6, .L60+8
 1101 002a 3046     		mov	r0, r6
 1102 002c 1C4B     		ldr	r3, .L60+12
 1103 002e 1978     		ldrb	r1, [r3]	@ zero_extendqisi2
 1104 0030 FFF7FEFF 		bl	checksum1
 1105              	.LVL74:
 1106 0034 0746     		mov	r7, r0
 1107 0036 1B4B     		ldr	r3, .L60+16
 1108 0038 1870     		strb	r0, [r3]
 337:.\herkulex2.c ****         ck2 = checksum2( ck1 );
 1109              		.loc 1 337 0 discriminator 3
 1110 003a FFF7FEFF 		bl	checksum2
 1111              	.LVL75:
 1112 003e 1A4B     		ldr	r3, .L60+20
 1113 0040 1870     		strb	r0, [r3]
 338:.\herkulex2.c ****         
 339:.\herkulex2.c ****         dataEx[0] = HEADER;
 1114              		.loc 1 339 0 discriminator 3
 1115 0042 1A4C     		ldr	r4, .L60+24
 1116 0044 FF23     		movs	r3, #255
 1117 0046 2370     		strb	r3, [r4]
 340:.\herkulex2.c ****         dataEx[1] = HEADER;
 1118              		.loc 1 340 0 discriminator 3
 1119 0048 6370     		strb	r3, [r4, #1]
 341:.\herkulex2.c ****         dataEx[2] = pSize;
 1120              		.loc 1 341 0 discriminator 3
 1121 004a 124B     		ldr	r3, .L60
 1122 004c 1978     		ldrb	r1, [r3]	@ zero_extendqisi2
 1123 004e A170     		strb	r1, [r4, #2]
 342:.\herkulex2.c ****         dataEx[3] = pID;
 1124              		.loc 1 342 0 discriminator 3
 1125 0050 98F80030 		ldrb	r3, [r8]	@ zero_extendqisi2
 1126 0054 E370     		strb	r3, [r4, #3]
 343:.\herkulex2.c ****         dataEx[4] = cmd;
 1127              		.loc 1 343 0 discriminator 3
 1128 0056 104B     		ldr	r3, .L60+4
 1129 0058 1B78     		ldrb	r3, [r3]	@ zero_extendqisi2
 1130 005a 2371     		strb	r3, [r4, #4]
 344:.\herkulex2.c ****         dataEx[5] = ck1;
 1131              		.loc 1 344 0 discriminator 3
ARM GAS  C:\Users\EDTRIC~1\AppData\Local\Temp\ccXQQyjM.s 			page 27


 1132 005c 6771     		strb	r7, [r4, #5]
 345:.\herkulex2.c ****         dataEx[6] = ck2;
 1133              		.loc 1 345 0 discriminator 3
 1134 005e A071     		strb	r0, [r4, #6]
 346:.\herkulex2.c ****         dataEx[7] = data[0];
 1135              		.loc 1 346 0 discriminator 3
 1136 0060 3378     		ldrb	r3, [r6]	@ zero_extendqisi2
 1137 0062 E371     		strb	r3, [r4, #7]
 347:.\herkulex2.c ****         dataEx[8] = data[1];
 1138              		.loc 1 347 0 discriminator 3
 1139 0064 7378     		ldrb	r3, [r6, #1]	@ zero_extendqisi2
 1140 0066 2372     		strb	r3, [r4, #8]
 348:.\herkulex2.c ****         
 349:.\herkulex2.c ****         sendData( dataEx , pSize );
 1141              		.loc 1 349 0 discriminator 3
 1142 0068 2046     		mov	r0, r4
 1143 006a FFF7FEFF 		bl	sendData
 1144              	.LVL76:
 350:.\herkulex2.c ****         CyDelay(5);
 1145              		.loc 1 350 0 discriminator 3
 1146 006e 0520     		movs	r0, #5
 1147 0070 FFF7FEFF 		bl	CyDelay
 1148              	.LVL77:
 351:.\herkulex2.c ****         readData( 15 );
 1149              		.loc 1 351 0 discriminator 3
 1150 0074 0F20     		movs	r0, #15
 1151 0076 FFF7FEFF 		bl	readData
 1152              	.LVL78:
 352:.\herkulex2.c ****         CyDelay(10);
 1153              		.loc 1 352 0 discriminator 3
 1154 007a 0A20     		movs	r0, #10
 1155 007c FFF7FEFF 		bl	CyDelay
 1156              	.LVL79:
 353:.\herkulex2.c ****         Servo_setID( dataEx[3] , 253 );        
 1157              		.loc 1 353 0 discriminator 3
 1158 0080 E078     		ldrb	r0, [r4, #3]	@ zero_extendqisi2
 1159 0082 FD21     		movs	r1, #253
 1160 0084 FFF7FEFF 		bl	Servo_setID
 1161              	.LVL80:
 333:.\herkulex2.c ****     {
 1162              		.loc 1 333 0 discriminator 3
 1163 0088 0135     		adds	r5, r5, #1
 1164              	.LVL81:
 1165 008a EDB2     		uxtb	r5, r5
 1166              	.LVL82:
 1167              	.L57:
 333:.\herkulex2.c ****     {
 1168              		.loc 1 333 0 is_stmt 0 discriminator 1
 1169 008c FD2D     		cmp	r5, #253
 1170 008e C7D9     		bls	.L58
 354:.\herkulex2.c ****     }
 355:.\herkulex2.c **** }
 1171              		.loc 1 355 0 is_stmt 1
 1172 0090 BDE8F081 		pop	{r4, r5, r6, r7, r8, pc}
 1173              	.LVL83:
 1174              	.L61:
 1175              		.align	2
ARM GAS  C:\Users\EDTRIC~1\AppData\Local\Temp\ccXQQyjM.s 			page 28


 1176              	.L60:
 1177 0094 00000000 		.word	pSize
 1178 0098 00000000 		.word	cmd
 1179 009c 00000000 		.word	data
 1180 00a0 00000000 		.word	lengthString
 1181 00a4 00000000 		.word	ck1
 1182 00a8 00000000 		.word	ck2
 1183 00ac 00000000 		.word	dataEx
 1184 00b0 00000000 		.word	pID
 1185              		.cfi_endproc
 1186              	.LFE76:
 1187              		.size	Servo_resetID, .-Servo_resetID
 1188              		.section	.text.Servo_clearError,"ax",%progbits
 1189              		.align	2
 1190              		.global	Servo_clearError
 1191              		.thumb
 1192              		.thumb_func
 1193              		.type	Servo_clearError, %function
 1194              	Servo_clearError:
 1195              	.LFB77:
 356:.\herkulex2.c **** 
 357:.\herkulex2.c **** void Servo_clearError( uint8 servoID )
 358:.\herkulex2.c **** {
 1196              		.loc 1 358 0
 1197              		.cfi_startproc
 1198              		@ args = 0, pretend = 0, frame = 0
 1199              		@ frame_needed = 0, uses_anonymous_args = 0
 1200              	.LVL84:
 1201 0000 2DE9F041 		push	{r4, r5, r6, r7, r8, lr}
 1202              		.cfi_def_cfa_offset 24
 1203              		.cfi_offset 4, -24
 1204              		.cfi_offset 5, -20
 1205              		.cfi_offset 6, -16
 1206              		.cfi_offset 7, -12
 1207              		.cfi_offset 8, -8
 1208              		.cfi_offset 14, -4
 359:.\herkulex2.c ****     pSize = 0x0B;
 1209              		.loc 1 359 0
 1210 0004 DFF88C80 		ldr	r8, .L64+28
 1211 0008 0B23     		movs	r3, #11
 1212 000a 88F80030 		strb	r3, [r8]
 360:.\herkulex2.c ****     pID = servoID;
 1213              		.loc 1 360 0
 1214 000e 1A4F     		ldr	r7, .L64
 1215 0010 3870     		strb	r0, [r7]
 361:.\herkulex2.c ****     cmd = RAM_WRITE;
 1216              		.loc 1 361 0
 1217 0012 1A4E     		ldr	r6, .L64+4
 1218 0014 0323     		movs	r3, #3
 1219 0016 3370     		strb	r3, [r6]
 362:.\herkulex2.c ****     data[0] = 0x30;
 1220              		.loc 1 362 0
 1221 0018 194C     		ldr	r4, .L64+8
 1222 001a 3023     		movs	r3, #48
 1223 001c 2370     		strb	r3, [r4]
 363:.\herkulex2.c ****     data[1] = 0x02;
 1224              		.loc 1 363 0
ARM GAS  C:\Users\EDTRIC~1\AppData\Local\Temp\ccXQQyjM.s 			page 29


 1225 001e 0223     		movs	r3, #2
 1226 0020 6370     		strb	r3, [r4, #1]
 364:.\herkulex2.c ****     data[2] = 0x00;
 1227              		.loc 1 364 0
 1228 0022 0023     		movs	r3, #0
 1229 0024 A370     		strb	r3, [r4, #2]
 365:.\herkulex2.c ****     data[3] = 0x00;
 1230              		.loc 1 365 0
 1231 0026 E370     		strb	r3, [r4, #3]
 366:.\herkulex2.c ****     lengthString = 4;
 1232              		.loc 1 366 0
 1233 0028 0421     		movs	r1, #4
 1234 002a 164B     		ldr	r3, .L64+12
 1235 002c 1970     		strb	r1, [r3]
 367:.\herkulex2.c ****     
 368:.\herkulex2.c ****     ck1 = checksum1( data , lengthString );
 1236              		.loc 1 368 0
 1237 002e 2046     		mov	r0, r4
 1238              	.LVL85:
 1239 0030 FFF7FEFF 		bl	checksum1
 1240              	.LVL86:
 1241 0034 0546     		mov	r5, r0
 1242 0036 144B     		ldr	r3, .L64+16
 1243 0038 1870     		strb	r0, [r3]
 369:.\herkulex2.c ****     ck2 = checksum2( ck1 );
 1244              		.loc 1 369 0
 1245 003a FFF7FEFF 		bl	checksum2
 1246              	.LVL87:
 1247 003e 134B     		ldr	r3, .L64+20
 1248 0040 1870     		strb	r0, [r3]
 370:.\herkulex2.c ****     
 371:.\herkulex2.c ****     dataEx[0] = HEADER;
 1249              		.loc 1 371 0
 1250 0042 134B     		ldr	r3, .L64+24
 1251 0044 FF22     		movs	r2, #255
 1252 0046 1A70     		strb	r2, [r3]
 372:.\herkulex2.c ****     dataEx[1] = HEADER;
 1253              		.loc 1 372 0
 1254 0048 5A70     		strb	r2, [r3, #1]
 373:.\herkulex2.c ****     dataEx[2] = pSize;
 1255              		.loc 1 373 0
 1256 004a 98F80010 		ldrb	r1, [r8]	@ zero_extendqisi2
 1257 004e 9970     		strb	r1, [r3, #2]
 374:.\herkulex2.c ****     dataEx[3] = pID;
 1258              		.loc 1 374 0
 1259 0050 3A78     		ldrb	r2, [r7]	@ zero_extendqisi2
 1260 0052 DA70     		strb	r2, [r3, #3]
 375:.\herkulex2.c ****     dataEx[4] = cmd;
 1261              		.loc 1 375 0
 1262 0054 3278     		ldrb	r2, [r6]	@ zero_extendqisi2
 1263 0056 1A71     		strb	r2, [r3, #4]
 376:.\herkulex2.c ****     dataEx[5] = ck1;
 1264              		.loc 1 376 0
 1265 0058 5D71     		strb	r5, [r3, #5]
 377:.\herkulex2.c ****     dataEx[6] = ck2;
 1266              		.loc 1 377 0
 1267 005a 9871     		strb	r0, [r3, #6]
ARM GAS  C:\Users\EDTRIC~1\AppData\Local\Temp\ccXQQyjM.s 			page 30


 378:.\herkulex2.c ****     dataEx[7] = data[0];
 1268              		.loc 1 378 0
 1269 005c 2278     		ldrb	r2, [r4]	@ zero_extendqisi2
 1270 005e DA71     		strb	r2, [r3, #7]
 379:.\herkulex2.c ****     dataEx[8] = data[1];
 1271              		.loc 1 379 0
 1272 0060 6278     		ldrb	r2, [r4, #1]	@ zero_extendqisi2
 1273 0062 1A72     		strb	r2, [r3, #8]
 380:.\herkulex2.c ****     dataEx[9] = data[2];
 1274              		.loc 1 380 0
 1275 0064 A278     		ldrb	r2, [r4, #2]	@ zero_extendqisi2
 1276 0066 5A72     		strb	r2, [r3, #9]
 381:.\herkulex2.c ****     dataEx[10] = data[3];
 1277              		.loc 1 381 0
 1278 0068 E278     		ldrb	r2, [r4, #3]	@ zero_extendqisi2
 1279 006a 9A72     		strb	r2, [r3, #10]
 382:.\herkulex2.c ****     
 383:.\herkulex2.c ****     sendData( dataEx , pSize );
 1280              		.loc 1 383 0
 1281 006c 1846     		mov	r0, r3
 1282 006e FFF7FEFF 		bl	sendData
 1283              	.LVL88:
 1284 0072 BDE8F081 		pop	{r4, r5, r6, r7, r8, pc}
 1285              	.L65:
 1286 0076 00BF     		.align	2
 1287              	.L64:
 1288 0078 00000000 		.word	pID
 1289 007c 00000000 		.word	cmd
 1290 0080 00000000 		.word	data
 1291 0084 00000000 		.word	lengthString
 1292 0088 00000000 		.word	ck1
 1293 008c 00000000 		.word	ck2
 1294 0090 00000000 		.word	dataEx
 1295 0094 00000000 		.word	pSize
 1296              		.cfi_endproc
 1297              	.LFE77:
 1298              		.size	Servo_clearError, .-Servo_clearError
 1299              		.section	.text.Servo_moveAll,"ax",%progbits
 1300              		.align	2
 1301              		.global	Servo_moveAll
 1302              		.thumb
 1303              		.thumb_func
 1304              		.type	Servo_moveAll, %function
 1305              	Servo_moveAll:
 1306              	.LFB78:
 384:.\herkulex2.c **** }
 385:.\herkulex2.c **** 
 386:.\herkulex2.c **** void Servo_moveAll( uint8 servoID , int goal , uint8 LED )
 387:.\herkulex2.c **** {
 1307              		.loc 1 387 0
 1308              		.cfi_startproc
 1309              		@ args = 0, pretend = 0, frame = 0
 1310              		@ frame_needed = 0, uses_anonymous_args = 0
 1311              	.LVL89:
 388:.\herkulex2.c ****     if( goal > 1023 || goal < 0 ) return;
 1312              		.loc 1 388 0
 1313 0000 B1F5806F 		cmp	r1, #1024
ARM GAS  C:\Users\EDTRIC~1\AppData\Local\Temp\ccXQQyjM.s 			page 31


 1314 0004 23D2     		bcs	.L74
 387:.\herkulex2.c ****     if( goal > 1023 || goal < 0 ) return;
 1315              		.loc 1 387 0
 1316 0006 38B5     		push	{r3, r4, r5, lr}
 1317              		.cfi_def_cfa_offset 16
 1318              		.cfi_offset 3, -16
 1319              		.cfi_offset 4, -12
 1320              		.cfi_offset 5, -8
 1321              		.cfi_offset 14, -4
 1322 0008 0346     		mov	r3, r0
 1323              	.LVL90:
 389:.\herkulex2.c ****     
 390:.\herkulex2.c ****     uint8 mode = 0;
 391:.\herkulex2.c ****     uint8 stop = 0;
 392:.\herkulex2.c ****     
 393:.\herkulex2.c ****     int posLSB = goal & 0x00FF;
 1324              		.loc 1 393 0
 1325 000a C8B2     		uxtb	r0, r1
 1326              	.LVL91:
 394:.\herkulex2.c ****     int posMSB = ( goal & 0xFF00 ) >> 8;
 1327              		.loc 1 394 0
 1328 000c C1F30721 		ubfx	r1, r1, #8, #8
 1329              	.LVL92:
 395:.\herkulex2.c ****     
 396:.\herkulex2.c ****     uint8 blue = 0;
 397:.\herkulex2.c ****     uint8 green = 0;
 398:.\herkulex2.c ****     uint8 red = 0;
 399:.\herkulex2.c ****     
 400:.\herkulex2.c ****     switch( LED )
 1330              		.loc 1 400 0
 1331 0010 022A     		cmp	r2, #2
 1332 0012 07D0     		beq	.L69
 1333 0014 042A     		cmp	r2, #4
 1334 0016 09D0     		beq	.L70
 1335 0018 012A     		cmp	r2, #1
 1336 001a 0BD0     		beq	.L72
 398:.\herkulex2.c ****     
 1337              		.loc 1 398 0
 1338 001c 0025     		movs	r5, #0
 397:.\herkulex2.c ****     uint8 red = 0;
 1339              		.loc 1 397 0
 1340 001e 2A46     		mov	r2, r5
 1341              	.LVL93:
 396:.\herkulex2.c ****     uint8 green = 0;
 1342              		.loc 1 396 0
 1343 0020 2C46     		mov	r4, r5
 1344 0022 0AE0     		b	.L71
 1345              	.LVL94:
 1346              	.L69:
 398:.\herkulex2.c ****     
 1347              		.loc 1 398 0
 1348 0024 0025     		movs	r5, #0
 397:.\herkulex2.c ****     uint8 red = 0;
 1349              		.loc 1 397 0
 1350 0026 2A46     		mov	r2, r5
 1351              	.LVL95:
 401:.\herkulex2.c ****     {
ARM GAS  C:\Users\EDTRIC~1\AppData\Local\Temp\ccXQQyjM.s 			page 32


 402:.\herkulex2.c ****         case 1:
 403:.\herkulex2.c ****             green = 1;
 404:.\herkulex2.c ****             break;
 405:.\herkulex2.c ****         case 2:
 406:.\herkulex2.c ****             blue = 1;
 1352              		.loc 1 406 0
 1353 0028 0124     		movs	r4, #1
 407:.\herkulex2.c ****             break;
 1354              		.loc 1 407 0
 1355 002a 06E0     		b	.L71
 1356              	.LVL96:
 1357              	.L70:
 408:.\herkulex2.c ****         case 4:
 409:.\herkulex2.c ****             red = 1;
 1358              		.loc 1 409 0
 1359 002c 0125     		movs	r5, #1
 397:.\herkulex2.c ****     uint8 red = 0;
 1360              		.loc 1 397 0
 1361 002e 0022     		movs	r2, #0
 1362              	.LVL97:
 396:.\herkulex2.c ****     uint8 green = 0;
 1363              		.loc 1 396 0
 1364 0030 1446     		mov	r4, r2
 410:.\herkulex2.c ****             break;
 1365              		.loc 1 410 0
 1366 0032 02E0     		b	.L71
 1367              	.LVL98:
 1368              	.L72:
 398:.\herkulex2.c ****     
 1369              		.loc 1 398 0
 1370 0034 0025     		movs	r5, #0
 403:.\herkulex2.c ****             break;
 1371              		.loc 1 403 0
 1372 0036 0122     		movs	r2, #1
 1373              	.LVL99:
 396:.\herkulex2.c ****     uint8 green = 0;
 1374              		.loc 1 396 0
 1375 0038 2C46     		mov	r4, r5
 1376              	.LVL100:
 1377              	.L71:
 411:.\herkulex2.c ****     }
 412:.\herkulex2.c ****     
 413:.\herkulex2.c ****     int setValue = stop + mode * 2 + green * 4 + blue * 8 + red * 16;
 1378              		.loc 1 413 0
 1379 003a E400     		lsls	r4, r4, #3
 1380              	.LVL101:
 1381 003c 04EB8204 		add	r4, r4, r2, lsl #2
 1382 0040 04EB0512 		add	r2, r4, r5, lsl #4
 1383              	.LVL102:
 414:.\herkulex2.c ****     
 415:.\herkulex2.c ****     addData( posLSB , posMSB , setValue , servoID );
 1384              		.loc 1 415 0
 1385 0044 02F0FC02 		and	r2, r2, #252
 1386              	.LVL103:
 1387 0048 FFF7FEFF 		bl	addData
 1388              	.LVL104:
 1389 004c 38BD     		pop	{r3, r4, r5, pc}
ARM GAS  C:\Users\EDTRIC~1\AppData\Local\Temp\ccXQQyjM.s 			page 33


 1390              	.LVL105:
 1391              	.L74:
 1392              		.cfi_def_cfa_offset 0
 1393              		.cfi_restore 3
 1394              		.cfi_restore 4
 1395              		.cfi_restore 5
 1396              		.cfi_restore 14
 1397 004e 7047     		bx	lr
 1398              		.cfi_endproc
 1399              	.LFE78:
 1400              		.size	Servo_moveAll, .-Servo_moveAll
 1401              		.global	__aeabi_fcmpgt
 1402              		.global	__aeabi_fcmplt
 1403              		.global	__aeabi_f2d
 1404              		.global	__aeabi_ddiv
 1405              		.global	__aeabi_d2iz
 1406              		.section	.text.Servo_moveAllAngle,"ax",%progbits
 1407              		.align	2
 1408              		.global	Servo_moveAllAngle
 1409              		.thumb
 1410              		.thumb_func
 1411              		.type	Servo_moveAllAngle, %function
 1412              	Servo_moveAllAngle:
 1413              	.LFB79:
 416:.\herkulex2.c **** }
 417:.\herkulex2.c **** 
 418:.\herkulex2.c **** void Servo_moveAllAngle( uint8 servoID , float angle , uint8 LED )
 419:.\herkulex2.c **** {
 1414              		.loc 1 419 0
 1415              		.cfi_startproc
 1416              		@ args = 0, pretend = 0, frame = 0
 1417              		@ frame_needed = 0, uses_anonymous_args = 0
 1418              	.LVL106:
 1419 0000 70B5     		push	{r4, r5, r6, lr}
 1420              		.cfi_def_cfa_offset 16
 1421              		.cfi_offset 4, -16
 1422              		.cfi_offset 5, -12
 1423              		.cfi_offset 6, -8
 1424              		.cfi_offset 14, -4
 1425 0002 0646     		mov	r6, r0
 1426 0004 0C46     		mov	r4, r1
 1427 0006 1546     		mov	r5, r2
 420:.\herkulex2.c ****     if( angle > 160.0 || angle < -160.0 ) return;
 1428              		.loc 1 420 0
 1429 0008 0846     		mov	r0, r1
 1430              	.LVL107:
 1431 000a 0F49     		ldr	r1, .L78+8
 1432              	.LVL108:
 1433 000c FFF7FEFF 		bl	__aeabi_fcmpgt
 1434              	.LVL109:
 1435 0010 A0B9     		cbnz	r0, .L75
 1436              		.loc 1 420 0 is_stmt 0 discriminator 1
 1437 0012 2046     		mov	r0, r4
 1438 0014 0D49     		ldr	r1, .L78+12
 1439 0016 FFF7FEFF 		bl	__aeabi_fcmplt
 1440              	.LVL110:
 1441 001a 78B9     		cbnz	r0, .L75
ARM GAS  C:\Users\EDTRIC~1\AppData\Local\Temp\ccXQQyjM.s 			page 34


 421:.\herkulex2.c ****     int position = (int)(angle/0.325) + 512;
 1442              		.loc 1 421 0 is_stmt 1
 1443 001c 2046     		mov	r0, r4
 1444 001e FFF7FEFF 		bl	__aeabi_f2d
 1445              	.LVL111:
 1446 0022 07A3     		adr	r3, .L78
 1447 0024 D3E90023 		ldrd	r2, [r3]
 1448 0028 FFF7FEFF 		bl	__aeabi_ddiv
 1449              	.LVL112:
 1450 002c FFF7FEFF 		bl	__aeabi_d2iz
 1451              	.LVL113:
 1452 0030 00F50071 		add	r1, r0, #512
 1453              	.LVL114:
 422:.\herkulex2.c ****     Servo_moveAll( servoID , position , LED );
 1454              		.loc 1 422 0
 1455 0034 3046     		mov	r0, r6
 1456 0036 2A46     		mov	r2, r5
 1457 0038 FFF7FEFF 		bl	Servo_moveAll
 1458              	.LVL115:
 1459              	.L75:
 1460 003c 70BD     		pop	{r4, r5, r6, pc}
 1461              	.LVL116:
 1462              	.L79:
 1463 003e 00BF     		.align	3
 1464              	.L78:
 1465 0040 CDCCCCCC 		.word	-858993459
 1466 0044 CCCCD43F 		.word	1070910668
 1467 0048 00002043 		.word	1126170624
 1468 004c 000020C3 		.word	-1021313024
 1469              		.cfi_endproc
 1470              	.LFE79:
 1471              		.size	Servo_moveAllAngle, .-Servo_moveAllAngle
 1472              		.section	.text.Servo_moveSpeedAll,"ax",%progbits
 1473              		.align	2
 1474              		.global	Servo_moveSpeedAll
 1475              		.thumb
 1476              		.thumb_func
 1477              		.type	Servo_moveSpeedAll, %function
 1478              	Servo_moveSpeedAll:
 1479              	.LFB80:
 423:.\herkulex2.c **** }
 424:.\herkulex2.c **** 
 425:.\herkulex2.c **** void Servo_moveSpeedAll( uint8 servoID , int goal , uint8 LED )
 426:.\herkulex2.c **** {
 1480              		.loc 1 426 0
 1481              		.cfi_startproc
 1482              		@ args = 0, pretend = 0, frame = 0
 1483              		@ frame_needed = 0, uses_anonymous_args = 0
 1484              	.LVL117:
 1485 0000 38B5     		push	{r3, r4, r5, lr}
 1486              		.cfi_def_cfa_offset 16
 1487              		.cfi_offset 3, -16
 1488              		.cfi_offset 4, -12
 1489              		.cfi_offset 5, -8
 1490              		.cfi_offset 14, -4
 1491 0002 0346     		mov	r3, r0
 427:.\herkulex2.c ****     if( goal > 1023 || goal < -1023 ) return;
ARM GAS  C:\Users\EDTRIC~1\AppData\Local\Temp\ccXQQyjM.s 			page 35


 1492              		.loc 1 427 0
 1493 0004 01F2FF34 		addw	r4, r1, #1023
 1494 0008 40F2FE70 		movw	r0, #2046
 1495              	.LVL118:
 1496 000c 8442     		cmp	r4, r0
 1497 000e 26D8     		bhi	.L80
 1498              	.LVL119:
 428:.\herkulex2.c ****     
 429:.\herkulex2.c ****     uint8 mode = 1;
 430:.\herkulex2.c ****     uint8 stop = 0;
 431:.\herkulex2.c ****     
 432:.\herkulex2.c ****     int goalSpeedSign;
 433:.\herkulex2.c ****     if ( goal < 0 ) 
 1499              		.loc 1 433 0
 1500 0010 0029     		cmp	r1, #0
 1501 0012 02DA     		bge	.L82
 434:.\herkulex2.c ****     {
 435:.\herkulex2.c ****         goalSpeedSign = (-1) * goal;
 1502              		.loc 1 435 0
 1503 0014 4942     		negs	r1, r1
 1504              	.LVL120:
 436:.\herkulex2.c ****         goalSpeedSign |= 0x4000;
 1505              		.loc 1 436 0
 1506 0016 41F48041 		orr	r1, r1, #16384
 1507              	.LVL121:
 1508              	.L82:
 437:.\herkulex2.c ****     }
 438:.\herkulex2.c ****     else 
 439:.\herkulex2.c ****     {
 440:.\herkulex2.c ****         goalSpeedSign = goal;
 441:.\herkulex2.c ****     }
 442:.\herkulex2.c ****     
 443:.\herkulex2.c ****     int speedGoalLSB = goalSpeedSign & 0X00FF;
 1509              		.loc 1 443 0
 1510 001a C8B2     		uxtb	r0, r1
 1511              	.LVL122:
 444:.\herkulex2.c ****     int speedGoalMSB = ( goalSpeedSign & 0xFF00 ) >> 8;
 1512              		.loc 1 444 0
 1513 001c C1F30721 		ubfx	r1, r1, #8, #8
 1514              	.LVL123:
 445:.\herkulex2.c **** 
 446:.\herkulex2.c ****     int blue = 0;
 447:.\herkulex2.c ****     int green = 0;
 448:.\herkulex2.c ****     int red = 0;
 449:.\herkulex2.c ****     switch (LED) 
 1515              		.loc 1 449 0
 1516 0020 022A     		cmp	r2, #2
 1517 0022 07D0     		beq	.L84
 1518 0024 042A     		cmp	r2, #4
 1519 0026 09D0     		beq	.L85
 1520 0028 012A     		cmp	r2, #1
 1521 002a 0BD0     		beq	.L87
 448:.\herkulex2.c ****     switch (LED) 
 1522              		.loc 1 448 0
 1523 002c 0025     		movs	r5, #0
 447:.\herkulex2.c ****     int red = 0;
 1524              		.loc 1 447 0
ARM GAS  C:\Users\EDTRIC~1\AppData\Local\Temp\ccXQQyjM.s 			page 36


 1525 002e 2C46     		mov	r4, r5
 1526              	.LVL124:
 446:.\herkulex2.c ****     int green = 0;
 1527              		.loc 1 446 0
 1528 0030 2A46     		mov	r2, r5
 1529              	.LVL125:
 1530 0032 0AE0     		b	.L86
 1531              	.LVL126:
 1532              	.L84:
 448:.\herkulex2.c ****     switch (LED) 
 1533              		.loc 1 448 0
 1534 0034 0025     		movs	r5, #0
 447:.\herkulex2.c ****     int red = 0;
 1535              		.loc 1 447 0
 1536 0036 2C46     		mov	r4, r5
 450:.\herkulex2.c ****     {
 451:.\herkulex2.c ****         case 1:
 452:.\herkulex2.c ****             green = 1;
 453:.\herkulex2.c ****             break;
 454:.\herkulex2.c ****         case 2:
 455:.\herkulex2.c ****             blue = 1;
 1537              		.loc 1 455 0
 1538 0038 0122     		movs	r2, #1
 1539              	.LVL127:
 456:.\herkulex2.c ****             break;
 1540              		.loc 1 456 0
 1541 003a 06E0     		b	.L86
 1542              	.LVL128:
 1543              	.L85:
 457:.\herkulex2.c ****         case 4:
 458:.\herkulex2.c ****             red = 1;
 1544              		.loc 1 458 0
 1545 003c 0125     		movs	r5, #1
 447:.\herkulex2.c ****     int red = 0;
 1546              		.loc 1 447 0
 1547 003e 0024     		movs	r4, #0
 446:.\herkulex2.c ****     int green = 0;
 1548              		.loc 1 446 0
 1549 0040 2246     		mov	r2, r4
 1550              	.LVL129:
 459:.\herkulex2.c ****             break;
 1551              		.loc 1 459 0
 1552 0042 02E0     		b	.L86
 1553              	.LVL130:
 1554              	.L87:
 448:.\herkulex2.c ****     switch (LED) 
 1555              		.loc 1 448 0
 1556 0044 0025     		movs	r5, #0
 452:.\herkulex2.c ****             break;
 1557              		.loc 1 452 0
 1558 0046 0124     		movs	r4, #1
 446:.\herkulex2.c ****     int green = 0;
 1559              		.loc 1 446 0
 1560 0048 2A46     		mov	r2, r5
 1561              	.LVL131:
 1562              	.L86:
 460:.\herkulex2.c ****     }
ARM GAS  C:\Users\EDTRIC~1\AppData\Local\Temp\ccXQQyjM.s 			page 37


 461:.\herkulex2.c ****     
 462:.\herkulex2.c ****     int setValue = stop + mode * 2 + green * 4 + blue * 8 + red * 16;
 1563              		.loc 1 462 0
 1564 004a A400     		lsls	r4, r4, #2
 1565              	.LVL132:
 1566 004c 0234     		adds	r4, r4, #2
 1567 004e 04EBC204 		add	r4, r4, r2, lsl #3
 1568 0052 04EB0512 		add	r2, r4, r5, lsl #4
 1569              	.LVL133:
 463:.\herkulex2.c ****     
 464:.\herkulex2.c ****     addData( speedGoalLSB , speedGoalMSB , setValue , servoID );
 1570              		.loc 1 464 0
 1571 0056 02F0FE02 		and	r2, r2, #254
 1572              	.LVL134:
 1573 005a FFF7FEFF 		bl	addData
 1574              	.LVL135:
 1575              	.L80:
 1576 005e 38BD     		pop	{r3, r4, r5, pc}
 1577              		.cfi_endproc
 1578              	.LFE80:
 1579              		.size	Servo_moveSpeedAll, .-Servo_moveSpeedAll
 1580              		.global	__aeabi_i2f
 1581              		.section	.text.Servo_actionAll,"ax",%progbits
 1582              		.align	2
 1583              		.global	Servo_actionAll
 1584              		.thumb
 1585              		.thumb_func
 1586              		.type	Servo_actionAll, %function
 1587              	Servo_actionAll:
 1588              	.LFB81:
 465:.\herkulex2.c **** }
 466:.\herkulex2.c **** 
 467:.\herkulex2.c **** void Servo_actionAll( int time )
 468:.\herkulex2.c **** {
 1589              		.loc 1 468 0
 1590              		.cfi_startproc
 1591              		@ args = 0, pretend = 0, frame = 0
 1592              		@ frame_needed = 0, uses_anonymous_args = 0
 1593              	.LVL136:
 1594 0000 2DE9F843 		push	{r3, r4, r5, r6, r7, r8, r9, lr}
 1595              		.cfi_def_cfa_offset 32
 1596              		.cfi_offset 3, -32
 1597              		.cfi_offset 4, -28
 1598              		.cfi_offset 5, -24
 1599              		.cfi_offset 6, -20
 1600              		.cfi_offset 7, -16
 1601              		.cfi_offset 8, -12
 1602              		.cfi_offset 9, -8
 1603              		.cfi_offset 14, -4
 469:.\herkulex2.c ****     uint8 i;
 470:.\herkulex2.c ****     
 471:.\herkulex2.c ****     if( time < 0 || time > 2856 ) return;
 1604              		.loc 1 471 0
 1605 0004 40F62833 		movw	r3, #2856
 1606 0008 9842     		cmp	r0, r3
 1607 000a 4BD8     		bhi	.L89
 472:.\herkulex2.c ****     
ARM GAS  C:\Users\EDTRIC~1\AppData\Local\Temp\ccXQQyjM.s 			page 38


 473:.\herkulex2.c ****     pSize = 0x08 + conta;
 1608              		.loc 1 473 0
 1609 000c 264B     		ldr	r3, .L94
 1610 000e 93F80080 		ldrb	r8, [r3]	@ zero_extendqisi2
 1611 0012 264F     		ldr	r7, .L94+4
 1612 0014 08F10803 		add	r3, r8, #8
 1613 0018 3B70     		strb	r3, [r7]
 474:.\herkulex2.c ****     cmd = S_JOG;
 1614              		.loc 1 474 0
 1615 001a 254D     		ldr	r5, .L94+8
 1616 001c 0623     		movs	r3, #6
 1617 001e 2B70     		strb	r3, [r5]
 475:.\herkulex2.c ****     playTime = (int)((float)time/11.2);
 1618              		.loc 1 475 0
 1619 0020 FFF7FEFF 		bl	__aeabi_i2f
 1620              	.LVL137:
 1621 0024 FFF7FEFF 		bl	__aeabi_f2d
 1622              	.LVL138:
 1623 0028 4FF06632 		mov	r2, #1717986918
 1624 002c 214B     		ldr	r3, .L94+12
 1625 002e FFF7FEFF 		bl	__aeabi_ddiv
 1626              	.LVL139:
 1627 0032 FFF7FEFF 		bl	__aeabi_d2iz
 1628              	.LVL140:
 1629 0036 204C     		ldr	r4, .L94+16
 1630 0038 2060     		str	r0, [r4]
 476:.\herkulex2.c ****     
 477:.\herkulex2.c ****     pID = PIDALL ^ playTime;
 1631              		.loc 1 477 0
 1632 003a DFF89090 		ldr	r9, .L94+36
 1633 003e FE26     		movs	r6, #254
 1634 0040 7040     		eors	r0, r0, r6
 1635 0042 89F80000 		strb	r0, [r9]
 478:.\herkulex2.c ****     
 479:.\herkulex2.c ****     ck1 = checksum1 ( moveData , conta );
 1636              		.loc 1 479 0
 1637 0046 1D48     		ldr	r0, .L94+20
 1638 0048 4146     		mov	r1, r8
 1639 004a FFF7FEFF 		bl	checksum1
 1640              	.LVL141:
 1641 004e 8046     		mov	r8, r0
 1642 0050 1B4B     		ldr	r3, .L94+24
 1643 0052 1870     		strb	r0, [r3]
 480:.\herkulex2.c ****     ck2 = checksum2 ( ck1 );
 1644              		.loc 1 480 0
 1645 0054 FFF7FEFF 		bl	checksum2
 1646              	.LVL142:
 1647 0058 1A4B     		ldr	r3, .L94+28
 1648 005a 1870     		strb	r0, [r3]
 481:.\herkulex2.c ****     
 482:.\herkulex2.c ****     pID = PIDALL;
 1649              		.loc 1 482 0
 1650 005c 89F80060 		strb	r6, [r9]
 483:.\herkulex2.c ****     
 484:.\herkulex2.c ****     dataEx[0] = HEADER;
 1651              		.loc 1 484 0
 1652 0060 194B     		ldr	r3, .L94+32
ARM GAS  C:\Users\EDTRIC~1\AppData\Local\Temp\ccXQQyjM.s 			page 39


 1653 0062 FF22     		movs	r2, #255
 1654 0064 1A70     		strb	r2, [r3]
 485:.\herkulex2.c ****     dataEx[1] = HEADER;
 1655              		.loc 1 485 0
 1656 0066 5A70     		strb	r2, [r3, #1]
 486:.\herkulex2.c ****     dataEx[2] = pSize;
 1657              		.loc 1 486 0
 1658 0068 3978     		ldrb	r1, [r7]	@ zero_extendqisi2
 1659 006a 9970     		strb	r1, [r3, #2]
 487:.\herkulex2.c ****     dataEx[3] = pID;
 1660              		.loc 1 487 0
 1661 006c DE70     		strb	r6, [r3, #3]
 488:.\herkulex2.c ****     dataEx[4] = cmd;
 1662              		.loc 1 488 0
 1663 006e 2A78     		ldrb	r2, [r5]	@ zero_extendqisi2
 1664 0070 1A71     		strb	r2, [r3, #4]
 489:.\herkulex2.c ****     dataEx[5] = ck1;
 1665              		.loc 1 489 0
 1666 0072 83F80580 		strb	r8, [r3, #5]
 490:.\herkulex2.c ****     dataEx[6] = ck2;
 1667              		.loc 1 490 0
 1668 0076 9871     		strb	r0, [r3, #6]
 491:.\herkulex2.c ****     dataEx[7] = playTime;
 1669              		.loc 1 491 0
 1670 0078 2268     		ldr	r2, [r4]
 1671 007a DA71     		strb	r2, [r3, #7]
 1672              	.LVL143:
 492:.\herkulex2.c ****     
 493:.\herkulex2.c ****     for ( i = 0; i < conta; i++ )
 1673              		.loc 1 493 0
 1674 007c 0023     		movs	r3, #0
 1675 007e 07E0     		b	.L91
 1676              	.LVL144:
 1677              	.L92:
 494:.\herkulex2.c ****     {
 495:.\herkulex2.c ****         dataEx[i+8] = moveData[i];
 1678              		.loc 1 495 0 discriminator 3
 1679 0080 03F10802 		add	r2, r3, #8
 1680 0084 0D48     		ldr	r0, .L94+20
 1681 0086 C45C     		ldrb	r4, [r0, r3]	@ zero_extendqisi2
 1682 0088 0F48     		ldr	r0, .L94+32
 1683 008a 8454     		strb	r4, [r0, r2]
 493:.\herkulex2.c ****     {
 1684              		.loc 1 493 0 discriminator 3
 1685 008c 0133     		adds	r3, r3, #1
 1686              	.LVL145:
 1687 008e DBB2     		uxtb	r3, r3
 1688              	.LVL146:
 1689              	.L91:
 493:.\herkulex2.c ****     {
 1690              		.loc 1 493 0 is_stmt 0 discriminator 1
 1691 0090 054A     		ldr	r2, .L94
 1692 0092 1278     		ldrb	r2, [r2]	@ zero_extendqisi2
 1693 0094 9342     		cmp	r3, r2
 1694 0096 F3D3     		bcc	.L92
 496:.\herkulex2.c ****     }
 497:.\herkulex2.c ****     
ARM GAS  C:\Users\EDTRIC~1\AppData\Local\Temp\ccXQQyjM.s 			page 40


 498:.\herkulex2.c ****     sendData( dataEx , pSize );
 1695              		.loc 1 498 0 is_stmt 1
 1696 0098 0B48     		ldr	r0, .L94+32
 1697 009a FFF7FEFF 		bl	sendData
 1698              	.LVL147:
 499:.\herkulex2.c ****     
 500:.\herkulex2.c ****     conta = 0;
 1699              		.loc 1 500 0
 1700 009e 0022     		movs	r2, #0
 1701 00a0 014B     		ldr	r3, .L94
 1702 00a2 1A70     		strb	r2, [r3]
 1703              	.L89:
 1704 00a4 BDE8F883 		pop	{r3, r4, r5, r6, r7, r8, r9, pc}
 1705              	.L95:
 1706              		.align	2
 1707              	.L94:
 1708 00a8 00000000 		.word	conta
 1709 00ac 00000000 		.word	pSize
 1710 00b0 00000000 		.word	cmd
 1711 00b4 66662640 		.word	1076258406
 1712 00b8 00000000 		.word	playTime
 1713 00bc 00000000 		.word	moveData
 1714 00c0 00000000 		.word	ck1
 1715 00c4 00000000 		.word	ck2
 1716 00c8 00000000 		.word	dataEx
 1717 00cc 00000000 		.word	pID
 1718              		.cfi_endproc
 1719              	.LFE81:
 1720              		.size	Servo_actionAll, .-Servo_actionAll
 1721              		.section	.text.Servo_getPosition,"ax",%progbits
 1722              		.align	2
 1723              		.global	Servo_getPosition
 1724              		.thumb
 1725              		.thumb_func
 1726              		.type	Servo_getPosition, %function
 1727              	Servo_getPosition:
 1728              	.LFB82:
 501:.\herkulex2.c **** }
 502:.\herkulex2.c **** 
 503:.\herkulex2.c **** int Servo_getPosition( uint8 servoID )
 504:.\herkulex2.c **** {
 1729              		.loc 1 504 0
 1730              		.cfi_startproc
 1731              		@ args = 0, pretend = 0, frame = 8
 1732              		@ frame_needed = 0, uses_anonymous_args = 0
 1733              	.LVL148:
 1734 0000 2DE9F04F 		push	{r4, r5, r6, r7, r8, r9, r10, fp, lr}
 1735              		.cfi_def_cfa_offset 36
 1736              		.cfi_offset 4, -36
 1737              		.cfi_offset 5, -32
 1738              		.cfi_offset 6, -28
 1739              		.cfi_offset 7, -24
 1740              		.cfi_offset 8, -20
 1741              		.cfi_offset 9, -16
 1742              		.cfi_offset 10, -12
 1743              		.cfi_offset 11, -8
 1744              		.cfi_offset 14, -4
ARM GAS  C:\Users\EDTRIC~1\AppData\Local\Temp\ccXQQyjM.s 			page 41


 1745 0004 83B0     		sub	sp, sp, #12
 1746              		.cfi_def_cfa_offset 48
 1747              	.LVL149:
 505:.\herkulex2.c ****     int position = 0;
 506:.\herkulex2.c ****     
 507:.\herkulex2.c ****     pSize = 0x09;
 1748              		.loc 1 507 0
 1749 0006 DFF8F480 		ldr	r8, .L101+16
 1750 000a 0923     		movs	r3, #9
 1751 000c 88F80030 		strb	r3, [r8]
 508:.\herkulex2.c ****     pID = servoID;
 1752              		.loc 1 508 0
 1753 0010 364F     		ldr	r7, .L101
 1754 0012 3870     		strb	r0, [r7]
 509:.\herkulex2.c ****     cmd = RAM_READ;
 1755              		.loc 1 509 0
 1756 0014 364E     		ldr	r6, .L101+4
 1757 0016 0423     		movs	r3, #4
 1758 0018 3370     		strb	r3, [r6]
 510:.\herkulex2.c ****     data[0] = 0x3A;
 1759              		.loc 1 510 0
 1760 001a 364C     		ldr	r4, .L101+8
 1761 001c 3A23     		movs	r3, #58
 1762 001e 2370     		strb	r3, [r4]
 511:.\herkulex2.c ****     data[1] = 0x02;
 1763              		.loc 1 511 0
 1764 0020 0221     		movs	r1, #2
 1765 0022 6170     		strb	r1, [r4, #1]
 512:.\herkulex2.c ****     lengthString = 2;
 1766              		.loc 1 512 0
 1767 0024 DFF8D8B0 		ldr	fp, .L101+20
 1768 0028 8BF80010 		strb	r1, [fp]
 513:.\herkulex2.c ****     
 514:.\herkulex2.c ****     ck1 = checksum1( data , lengthString );
 1769              		.loc 1 514 0
 1770 002c 2046     		mov	r0, r4
 1771              	.LVL150:
 1772 002e FFF7FEFF 		bl	checksum1
 1773              	.LVL151:
 1774 0032 DFF8D0A0 		ldr	r10, .L101+24
 1775 0036 0190     		str	r0, [sp, #4]
 1776 0038 8AF80000 		strb	r0, [r10]
 515:.\herkulex2.c ****     ck2 = checksum2( ck1 );
 1777              		.loc 1 515 0
 1778 003c FFF7FEFF 		bl	checksum2
 1779              	.LVL152:
 1780 0040 DFF8C490 		ldr	r9, .L101+28
 1781 0044 89F80000 		strb	r0, [r9]
 516:.\herkulex2.c ****     
 517:.\herkulex2.c ****     dataEx[0] = HEADER;
 1782              		.loc 1 517 0
 1783 0048 2B4D     		ldr	r5, .L101+12
 1784 004a FF23     		movs	r3, #255
 1785 004c 2B70     		strb	r3, [r5]
 518:.\herkulex2.c ****     dataEx[1] = HEADER;
 1786              		.loc 1 518 0
 1787 004e 6B70     		strb	r3, [r5, #1]
ARM GAS  C:\Users\EDTRIC~1\AppData\Local\Temp\ccXQQyjM.s 			page 42


 519:.\herkulex2.c ****     dataEx[2] = pSize;
 1788              		.loc 1 519 0
 1789 0050 98F80010 		ldrb	r1, [r8]	@ zero_extendqisi2
 1790 0054 A970     		strb	r1, [r5, #2]
 520:.\herkulex2.c ****     dataEx[3] = pID;
 1791              		.loc 1 520 0
 1792 0056 3B78     		ldrb	r3, [r7]	@ zero_extendqisi2
 1793 0058 EB70     		strb	r3, [r5, #3]
 521:.\herkulex2.c ****     dataEx[4] = cmd;
 1794              		.loc 1 521 0
 1795 005a 3378     		ldrb	r3, [r6]	@ zero_extendqisi2
 1796 005c 2B71     		strb	r3, [r5, #4]
 522:.\herkulex2.c ****     dataEx[5] = ck1;
 1797              		.loc 1 522 0
 1798 005e 9DF80430 		ldrb	r3, [sp, #4]	@ zero_extendqisi2
 1799 0062 6B71     		strb	r3, [r5, #5]
 523:.\herkulex2.c ****     dataEx[6] = ck2;
 1800              		.loc 1 523 0
 1801 0064 A871     		strb	r0, [r5, #6]
 524:.\herkulex2.c ****     dataEx[7] = data[0];
 1802              		.loc 1 524 0
 1803 0066 2378     		ldrb	r3, [r4]	@ zero_extendqisi2
 1804 0068 EB71     		strb	r3, [r5, #7]
 525:.\herkulex2.c ****     dataEx[8] = data[1];
 1805              		.loc 1 525 0
 1806 006a 6378     		ldrb	r3, [r4, #1]	@ zero_extendqisi2
 1807 006c 2B72     		strb	r3, [r5, #8]
 526:.\herkulex2.c ****     
 527:.\herkulex2.c ****     sendData( dataEx , pSize );
 1808              		.loc 1 527 0
 1809 006e 2846     		mov	r0, r5
 1810 0070 FFF7FEFF 		bl	sendData
 1811              	.LVL153:
 528:.\herkulex2.c ****     CyDelay(5);
 1812              		.loc 1 528 0
 1813 0074 0520     		movs	r0, #5
 1814 0076 FFF7FEFF 		bl	CyDelay
 1815              	.LVL154:
 529:.\herkulex2.c ****     readData(13);
 1816              		.loc 1 529 0
 1817 007a 0D20     		movs	r0, #13
 1818 007c FFF7FEFF 		bl	readData
 1819              	.LVL155:
 530:.\herkulex2.c ****     
 531:.\herkulex2.c ****     pSize = dataEx[2];
 1820              		.loc 1 531 0
 1821 0080 AB78     		ldrb	r3, [r5, #2]	@ zero_extendqisi2
 1822 0082 88F80030 		strb	r3, [r8]
 532:.\herkulex2.c ****     pID = dataEx[3];
 1823              		.loc 1 532 0
 1824 0086 EB78     		ldrb	r3, [r5, #3]	@ zero_extendqisi2
 1825 0088 3B70     		strb	r3, [r7]
 533:.\herkulex2.c ****     cmd = dataEx[4];
 1826              		.loc 1 533 0
 1827 008a 2B79     		ldrb	r3, [r5, #4]	@ zero_extendqisi2
 1828 008c 3370     		strb	r3, [r6]
 534:.\herkulex2.c ****     data[0] = data[7];
ARM GAS  C:\Users\EDTRIC~1\AppData\Local\Temp\ccXQQyjM.s 			page 43


 1829              		.loc 1 534 0
 1830 008e E379     		ldrb	r3, [r4, #7]	@ zero_extendqisi2
 1831 0090 2370     		strb	r3, [r4]
 535:.\herkulex2.c ****     data[1] = data[8];
 1832              		.loc 1 535 0
 1833 0092 237A     		ldrb	r3, [r4, #8]	@ zero_extendqisi2
 1834 0094 6370     		strb	r3, [r4, #1]
 536:.\herkulex2.c ****     data[2] = data[9];
 1835              		.loc 1 536 0
 1836 0096 637A     		ldrb	r3, [r4, #9]	@ zero_extendqisi2
 1837 0098 A370     		strb	r3, [r4, #2]
 537:.\herkulex2.c ****     data[3] = data[10];
 1838              		.loc 1 537 0
 1839 009a A37A     		ldrb	r3, [r4, #10]	@ zero_extendqisi2
 1840 009c E370     		strb	r3, [r4, #3]
 538:.\herkulex2.c ****     data[4] = data[11];
 1841              		.loc 1 538 0
 1842 009e E37A     		ldrb	r3, [r4, #11]	@ zero_extendqisi2
 1843 00a0 2371     		strb	r3, [r4, #4]
 539:.\herkulex2.c ****     data[5] = data[12];
 1844              		.loc 1 539 0
 1845 00a2 237B     		ldrb	r3, [r4, #12]	@ zero_extendqisi2
 1846 00a4 6371     		strb	r3, [r4, #5]
 540:.\herkulex2.c ****     lengthString = 6;
 1847              		.loc 1 540 0
 1848 00a6 0621     		movs	r1, #6
 1849 00a8 8BF80010 		strb	r1, [fp]
 541:.\herkulex2.c ****     
 542:.\herkulex2.c ****     ck1 = checksum1( data , lengthString );
 1850              		.loc 1 542 0
 1851 00ac 2046     		mov	r0, r4
 1852 00ae FFF7FEFF 		bl	checksum1
 1853              	.LVL156:
 1854 00b2 0446     		mov	r4, r0
 1855 00b4 8AF80000 		strb	r0, [r10]
 543:.\herkulex2.c ****     ck2 = checksum2( ck1 );
 1856              		.loc 1 543 0
 1857 00b8 FFF7FEFF 		bl	checksum2
 1858              	.LVL157:
 1859 00bc 89F80000 		strb	r0, [r9]
 544:.\herkulex2.c ****     
 545:.\herkulex2.c ****     if( ck1 != dataEx[5] ) return -1;
 1860              		.loc 1 545 0
 1861 00c0 6B79     		ldrb	r3, [r5, #5]	@ zero_extendqisi2
 1862 00c2 9C42     		cmp	r4, r3
 1863 00c4 09D1     		bne	.L98
 546:.\herkulex2.c ****     if( ck2 != dataEx[6] ) return -1;
 1864              		.loc 1 546 0
 1865 00c6 AB79     		ldrb	r3, [r5, #6]	@ zero_extendqisi2
 1866 00c8 9842     		cmp	r0, r3
 1867 00ca 09D1     		bne	.L99
 547:.\herkulex2.c ****     
 548:.\herkulex2.c ****     position = ( (dataEx[10] & 0x03) << 8 ) | dataEx[9];
 1868              		.loc 1 548 0
 1869 00cc A87A     		ldrb	r0, [r5, #10]	@ zero_extendqisi2
 1870 00ce 00F00300 		and	r0, r0, #3
 1871 00d2 6B7A     		ldrb	r3, [r5, #9]	@ zero_extendqisi2
ARM GAS  C:\Users\EDTRIC~1\AppData\Local\Temp\ccXQQyjM.s 			page 44


 1872 00d4 43EA0020 		orr	r0, r3, r0, lsl #8
 1873              	.LVL158:
 549:.\herkulex2.c ****     return position;
 1874              		.loc 1 549 0
 1875 00d8 04E0     		b	.L97
 1876              	.LVL159:
 1877              	.L98:
 545:.\herkulex2.c ****     if( ck2 != dataEx[6] ) return -1;
 1878              		.loc 1 545 0
 1879 00da 4FF0FF30 		mov	r0, #-1
 1880 00de 01E0     		b	.L97
 1881              	.L99:
 546:.\herkulex2.c ****     
 1882              		.loc 1 546 0
 1883 00e0 4FF0FF30 		mov	r0, #-1
 1884              	.LVL160:
 1885              	.L97:
 550:.\herkulex2.c **** }
 1886              		.loc 1 550 0
 1887 00e4 03B0     		add	sp, sp, #12
 1888              		.cfi_def_cfa_offset 36
 1889              		@ sp needed
 1890 00e6 BDE8F08F 		pop	{r4, r5, r6, r7, r8, r9, r10, fp, pc}
 1891              	.L102:
 1892 00ea 00BF     		.align	2
 1893              	.L101:
 1894 00ec 00000000 		.word	pID
 1895 00f0 00000000 		.word	cmd
 1896 00f4 00000000 		.word	data
 1897 00f8 00000000 		.word	dataEx
 1898 00fc 00000000 		.word	pSize
 1899 0100 00000000 		.word	lengthString
 1900 0104 00000000 		.word	ck1
 1901 0108 00000000 		.word	ck2
 1902              		.cfi_endproc
 1903              	.LFE82:
 1904              		.size	Servo_getPosition, .-Servo_getPosition
 1905              		.global	__aeabi_i2d
 1906              		.global	__aeabi_dmul
 1907              		.global	__aeabi_d2f
 1908              		.section	.text.Servo_getAngle,"ax",%progbits
 1909              		.align	2
 1910              		.global	Servo_getAngle
 1911              		.thumb
 1912              		.thumb_func
 1913              		.type	Servo_getAngle, %function
 1914              	Servo_getAngle:
 1915              	.LFB83:
 551:.\herkulex2.c **** 
 552:.\herkulex2.c **** float Servo_getAngle( uint8 servoID )
 553:.\herkulex2.c **** {
 1916              		.loc 1 553 0
 1917              		.cfi_startproc
 1918              		@ args = 0, pretend = 0, frame = 0
 1919              		@ frame_needed = 0, uses_anonymous_args = 0
 1920              	.LVL161:
 1921 0000 08B5     		push	{r3, lr}
ARM GAS  C:\Users\EDTRIC~1\AppData\Local\Temp\ccXQQyjM.s 			page 45


 1922              		.cfi_def_cfa_offset 8
 1923              		.cfi_offset 3, -8
 1924              		.cfi_offset 14, -4
 554:.\herkulex2.c ****     int pos = (int)Servo_getPosition(servoID);
 1925              		.loc 1 554 0
 1926 0002 FFF7FEFF 		bl	Servo_getPosition
 1927              	.LVL162:
 555:.\herkulex2.c ****     return ( pos - 512 ) * 0.325;
 1928              		.loc 1 555 0
 1929 0006 A0F50070 		sub	r0, r0, #512
 1930              	.LVL163:
 1931 000a FFF7FEFF 		bl	__aeabi_i2d
 1932              	.LVL164:
 1933 000e 04A3     		adr	r3, .L105
 1934 0010 D3E90023 		ldrd	r2, [r3]
 1935 0014 FFF7FEFF 		bl	__aeabi_dmul
 1936              	.LVL165:
 1937 0018 FFF7FEFF 		bl	__aeabi_d2f
 1938              	.LVL166:
 556:.\herkulex2.c **** }
 1939              		.loc 1 556 0
 1940 001c 08BD     		pop	{r3, pc}
 1941              	.L106:
 1942 001e 00BF     		.align	3
 1943              	.L105:
 1944 0020 CDCCCCCC 		.word	-858993459
 1945 0024 CCCCD43F 		.word	1070910668
 1946              		.cfi_endproc
 1947              	.LFE83:
 1948              		.size	Servo_getAngle, .-Servo_getAngle
 1949              		.section	.text.Servo_getSpeed,"ax",%progbits
 1950              		.align	2
 1951              		.global	Servo_getSpeed
 1952              		.thumb
 1953              		.thumb_func
 1954              		.type	Servo_getSpeed, %function
 1955              	Servo_getSpeed:
 1956              	.LFB84:
 557:.\herkulex2.c **** 
 558:.\herkulex2.c **** int Servo_getSpeed( uint8 servoID )
 559:.\herkulex2.c **** {
 1957              		.loc 1 559 0
 1958              		.cfi_startproc
 1959              		@ args = 0, pretend = 0, frame = 8
 1960              		@ frame_needed = 0, uses_anonymous_args = 0
 1961              	.LVL167:
 1962 0000 2DE9F04F 		push	{r4, r5, r6, r7, r8, r9, r10, fp, lr}
 1963              		.cfi_def_cfa_offset 36
 1964              		.cfi_offset 4, -36
 1965              		.cfi_offset 5, -32
 1966              		.cfi_offset 6, -28
 1967              		.cfi_offset 7, -24
 1968              		.cfi_offset 8, -20
 1969              		.cfi_offset 9, -16
 1970              		.cfi_offset 10, -12
 1971              		.cfi_offset 11, -8
 1972              		.cfi_offset 14, -4
ARM GAS  C:\Users\EDTRIC~1\AppData\Local\Temp\ccXQQyjM.s 			page 46


 1973 0004 83B0     		sub	sp, sp, #12
 1974              		.cfi_def_cfa_offset 48
 1975              	.LVL168:
 560:.\herkulex2.c ****     int speed = 0;
 561:.\herkulex2.c ****     
 562:.\herkulex2.c ****     pSize = 0x09;
 1976              		.loc 1 562 0
 1977 0006 DFF8F080 		ldr	r8, .L112+16
 1978 000a 0923     		movs	r3, #9
 1979 000c 88F80030 		strb	r3, [r8]
 563:.\herkulex2.c ****     pID = servoID;
 1980              		.loc 1 563 0
 1981 0010 354F     		ldr	r7, .L112
 1982 0012 3870     		strb	r0, [r7]
 564:.\herkulex2.c ****     cmd = RAM_READ;
 1983              		.loc 1 564 0
 1984 0014 354E     		ldr	r6, .L112+4
 1985 0016 0423     		movs	r3, #4
 1986 0018 3370     		strb	r3, [r6]
 565:.\herkulex2.c ****     data[0] = 0x40;
 1987              		.loc 1 565 0
 1988 001a 354C     		ldr	r4, .L112+8
 1989 001c 4023     		movs	r3, #64
 1990 001e 2370     		strb	r3, [r4]
 566:.\herkulex2.c ****     data[1] = 0x02;
 1991              		.loc 1 566 0
 1992 0020 0221     		movs	r1, #2
 1993 0022 6170     		strb	r1, [r4, #1]
 567:.\herkulex2.c ****     lengthString = 2;
 1994              		.loc 1 567 0
 1995 0024 DFF8D4B0 		ldr	fp, .L112+20
 1996 0028 8BF80010 		strb	r1, [fp]
 568:.\herkulex2.c ****     
 569:.\herkulex2.c ****     ck1 = checksum1( data , lengthString );
 1997              		.loc 1 569 0
 1998 002c 2046     		mov	r0, r4
 1999              	.LVL169:
 2000 002e FFF7FEFF 		bl	checksum1
 2001              	.LVL170:
 2002 0032 DFF8CCA0 		ldr	r10, .L112+24
 2003 0036 0190     		str	r0, [sp, #4]
 2004 0038 8AF80000 		strb	r0, [r10]
 570:.\herkulex2.c ****     ck2 = checksum2( ck1 );
 2005              		.loc 1 570 0
 2006 003c FFF7FEFF 		bl	checksum2
 2007              	.LVL171:
 2008 0040 DFF8C090 		ldr	r9, .L112+28
 2009 0044 89F80000 		strb	r0, [r9]
 571:.\herkulex2.c ****     
 572:.\herkulex2.c ****     dataEx[0] = HEADER;
 2010              		.loc 1 572 0
 2011 0048 2A4D     		ldr	r5, .L112+12
 2012 004a FF23     		movs	r3, #255
 2013 004c 2B70     		strb	r3, [r5]
 573:.\herkulex2.c ****     dataEx[1] = HEADER;
 2014              		.loc 1 573 0
 2015 004e 6B70     		strb	r3, [r5, #1]
ARM GAS  C:\Users\EDTRIC~1\AppData\Local\Temp\ccXQQyjM.s 			page 47


 574:.\herkulex2.c ****     dataEx[2] = pSize;
 2016              		.loc 1 574 0
 2017 0050 98F80010 		ldrb	r1, [r8]	@ zero_extendqisi2
 2018 0054 A970     		strb	r1, [r5, #2]
 575:.\herkulex2.c ****     dataEx[3] = pID;
 2019              		.loc 1 575 0
 2020 0056 3B78     		ldrb	r3, [r7]	@ zero_extendqisi2
 2021 0058 EB70     		strb	r3, [r5, #3]
 576:.\herkulex2.c ****     dataEx[4] = cmd;
 2022              		.loc 1 576 0
 2023 005a 3378     		ldrb	r3, [r6]	@ zero_extendqisi2
 2024 005c 2B71     		strb	r3, [r5, #4]
 577:.\herkulex2.c ****     dataEx[5] = ck1;
 2025              		.loc 1 577 0
 2026 005e 9DF80430 		ldrb	r3, [sp, #4]	@ zero_extendqisi2
 2027 0062 6B71     		strb	r3, [r5, #5]
 578:.\herkulex2.c ****     dataEx[6] = ck2;
 2028              		.loc 1 578 0
 2029 0064 A871     		strb	r0, [r5, #6]
 579:.\herkulex2.c ****     dataEx[7] = data[0];
 2030              		.loc 1 579 0
 2031 0066 2378     		ldrb	r3, [r4]	@ zero_extendqisi2
 2032 0068 EB71     		strb	r3, [r5, #7]
 580:.\herkulex2.c ****     dataEx[8] = data[1];
 2033              		.loc 1 580 0
 2034 006a 6378     		ldrb	r3, [r4, #1]	@ zero_extendqisi2
 2035 006c 2B72     		strb	r3, [r5, #8]
 581:.\herkulex2.c ****     
 582:.\herkulex2.c ****     sendData( dataEx , pSize );
 2036              		.loc 1 582 0
 2037 006e 2846     		mov	r0, r5
 2038 0070 FFF7FEFF 		bl	sendData
 2039              	.LVL172:
 583:.\herkulex2.c ****     CyDelay(5);
 2040              		.loc 1 583 0
 2041 0074 0520     		movs	r0, #5
 2042 0076 FFF7FEFF 		bl	CyDelay
 2043              	.LVL173:
 584:.\herkulex2.c ****     readData(13);
 2044              		.loc 1 584 0
 2045 007a 0D20     		movs	r0, #13
 2046 007c FFF7FEFF 		bl	readData
 2047              	.LVL174:
 585:.\herkulex2.c ****     
 586:.\herkulex2.c ****     pSize = dataEx[2];
 2048              		.loc 1 586 0
 2049 0080 AB78     		ldrb	r3, [r5, #2]	@ zero_extendqisi2
 2050 0082 88F80030 		strb	r3, [r8]
 587:.\herkulex2.c ****     pID = dataEx[3];
 2051              		.loc 1 587 0
 2052 0086 EB78     		ldrb	r3, [r5, #3]	@ zero_extendqisi2
 2053 0088 3B70     		strb	r3, [r7]
 588:.\herkulex2.c ****     cmd = dataEx[4];
 2054              		.loc 1 588 0
 2055 008a 2B79     		ldrb	r3, [r5, #4]	@ zero_extendqisi2
 2056 008c 3370     		strb	r3, [r6]
 589:.\herkulex2.c ****     data[0] = data[7];
ARM GAS  C:\Users\EDTRIC~1\AppData\Local\Temp\ccXQQyjM.s 			page 48


 2057              		.loc 1 589 0
 2058 008e E379     		ldrb	r3, [r4, #7]	@ zero_extendqisi2
 2059 0090 2370     		strb	r3, [r4]
 590:.\herkulex2.c ****     data[1] = data[8];
 2060              		.loc 1 590 0
 2061 0092 237A     		ldrb	r3, [r4, #8]	@ zero_extendqisi2
 2062 0094 6370     		strb	r3, [r4, #1]
 591:.\herkulex2.c ****     data[2] = data[9];
 2063              		.loc 1 591 0
 2064 0096 637A     		ldrb	r3, [r4, #9]	@ zero_extendqisi2
 2065 0098 A370     		strb	r3, [r4, #2]
 592:.\herkulex2.c ****     data[3] = data[10];
 2066              		.loc 1 592 0
 2067 009a A37A     		ldrb	r3, [r4, #10]	@ zero_extendqisi2
 2068 009c E370     		strb	r3, [r4, #3]
 593:.\herkulex2.c ****     data[4] = data[11];
 2069              		.loc 1 593 0
 2070 009e E37A     		ldrb	r3, [r4, #11]	@ zero_extendqisi2
 2071 00a0 2371     		strb	r3, [r4, #4]
 594:.\herkulex2.c ****     data[5] = data[12];
 2072              		.loc 1 594 0
 2073 00a2 237B     		ldrb	r3, [r4, #12]	@ zero_extendqisi2
 2074 00a4 6371     		strb	r3, [r4, #5]
 595:.\herkulex2.c ****     lengthString = 6;
 2075              		.loc 1 595 0
 2076 00a6 0621     		movs	r1, #6
 2077 00a8 8BF80010 		strb	r1, [fp]
 596:.\herkulex2.c ****     
 597:.\herkulex2.c ****     ck1 = checksum1( data , lengthString );
 2078              		.loc 1 597 0
 2079 00ac 2046     		mov	r0, r4
 2080 00ae FFF7FEFF 		bl	checksum1
 2081              	.LVL175:
 2082 00b2 0446     		mov	r4, r0
 2083 00b4 8AF80000 		strb	r0, [r10]
 598:.\herkulex2.c ****     ck2 = checksum2( ck1 );
 2084              		.loc 1 598 0
 2085 00b8 FFF7FEFF 		bl	checksum2
 2086              	.LVL176:
 2087 00bc 89F80000 		strb	r0, [r9]
 599:.\herkulex2.c ****     
 600:.\herkulex2.c ****     if( ck1 != dataEx[5] ) return -1;
 2088              		.loc 1 600 0
 2089 00c0 6B79     		ldrb	r3, [r5, #5]	@ zero_extendqisi2
 2090 00c2 9C42     		cmp	r4, r3
 2091 00c4 07D1     		bne	.L109
 601:.\herkulex2.c ****     if( ck2 != dataEx[6] ) return -1;
 2092              		.loc 1 601 0
 2093 00c6 AB79     		ldrb	r3, [r5, #6]	@ zero_extendqisi2
 2094 00c8 9842     		cmp	r0, r3
 2095 00ca 07D1     		bne	.L110
 602:.\herkulex2.c ****     
 603:.\herkulex2.c ****     speed = ( (dataEx[10] & 0xFF) << 8 ) | dataEx[9];
 2096              		.loc 1 603 0
 2097 00cc A87A     		ldrb	r0, [r5, #10]	@ zero_extendqisi2
 2098 00ce 6B7A     		ldrb	r3, [r5, #9]	@ zero_extendqisi2
 2099 00d0 43EA0020 		orr	r0, r3, r0, lsl #8
ARM GAS  C:\Users\EDTRIC~1\AppData\Local\Temp\ccXQQyjM.s 			page 49


 2100              	.LVL177:
 604:.\herkulex2.c ****     return speed;
 2101              		.loc 1 604 0
 2102 00d4 04E0     		b	.L108
 2103              	.LVL178:
 2104              	.L109:
 600:.\herkulex2.c ****     if( ck2 != dataEx[6] ) return -1;
 2105              		.loc 1 600 0
 2106 00d6 4FF0FF30 		mov	r0, #-1
 2107 00da 01E0     		b	.L108
 2108              	.L110:
 601:.\herkulex2.c ****     
 2109              		.loc 1 601 0
 2110 00dc 4FF0FF30 		mov	r0, #-1
 2111              	.LVL179:
 2112              	.L108:
 605:.\herkulex2.c **** }
 2113              		.loc 1 605 0
 2114 00e0 03B0     		add	sp, sp, #12
 2115              		.cfi_def_cfa_offset 36
 2116              		@ sp needed
 2117 00e2 BDE8F08F 		pop	{r4, r5, r6, r7, r8, r9, r10, fp, pc}
 2118              	.L113:
 2119 00e6 00BF     		.align	2
 2120              	.L112:
 2121 00e8 00000000 		.word	pID
 2122 00ec 00000000 		.word	cmd
 2123 00f0 00000000 		.word	data
 2124 00f4 00000000 		.word	dataEx
 2125 00f8 00000000 		.word	pSize
 2126 00fc 00000000 		.word	lengthString
 2127 0100 00000000 		.word	ck1
 2128 0104 00000000 		.word	ck2
 2129              		.cfi_endproc
 2130              	.LFE84:
 2131              		.size	Servo_getSpeed, .-Servo_getSpeed
 2132              		.section	.text.Servo_reboot,"ax",%progbits
 2133              		.align	2
 2134              		.global	Servo_reboot
 2135              		.thumb
 2136              		.thumb_func
 2137              		.type	Servo_reboot, %function
 2138              	Servo_reboot:
 2139              	.LFB85:
 606:.\herkulex2.c **** 
 607:.\herkulex2.c **** void Servo_reboot( uint8 servoID )
 608:.\herkulex2.c **** {
 2140              		.loc 1 608 0
 2141              		.cfi_startproc
 2142              		@ args = 0, pretend = 0, frame = 0
 2143              		@ frame_needed = 0, uses_anonymous_args = 0
 2144              	.LVL180:
 2145 0000 70B5     		push	{r4, r5, r6, lr}
 2146              		.cfi_def_cfa_offset 16
 2147              		.cfi_offset 4, -16
 2148              		.cfi_offset 5, -12
 2149              		.cfi_offset 6, -8
ARM GAS  C:\Users\EDTRIC~1\AppData\Local\Temp\ccXQQyjM.s 			page 50


 2150              		.cfi_offset 14, -4
 609:.\herkulex2.c ****     pSize = 0x07;
 2151              		.loc 1 609 0
 2152 0002 0721     		movs	r1, #7
 2153 0004 0F4B     		ldr	r3, .L116
 2154 0006 1970     		strb	r1, [r3]
 610:.\herkulex2.c ****     pID = servoID;
 2155              		.loc 1 610 0
 2156 0008 0F4B     		ldr	r3, .L116+4
 2157 000a 1870     		strb	r0, [r3]
 611:.\herkulex2.c ****     cmd = REBOOT;
 2158              		.loc 1 611 0
 2159 000c 0925     		movs	r5, #9
 2160 000e 0F4B     		ldr	r3, .L116+8
 2161 0010 1D70     		strb	r5, [r3]
 612:.\herkulex2.c ****     
 613:.\herkulex2.c ****     ck1 = ( pSize ^ pID ^ cmd) & 0xFE;
 2162              		.loc 1 613 0
 2163 0012 80F00E02 		eor	r2, r0, #14
 2164 0016 02F0FE04 		and	r4, r2, #254
 2165 001a 0D4B     		ldr	r3, .L116+12
 2166 001c 1C70     		strb	r4, [r3]
 614:.\herkulex2.c ****     ck2 = ( ~( pSize ^ pID ^ cmd ) ) & 0xFE;
 2167              		.loc 1 614 0
 2168 001e D243     		mvns	r2, r2
 2169 0020 02F0FE02 		and	r2, r2, #254
 2170 0024 0B4B     		ldr	r3, .L116+16
 2171 0026 1A70     		strb	r2, [r3]
 615:.\herkulex2.c ****     
 616:.\herkulex2.c ****     dataEx[0] = HEADER;
 2172              		.loc 1 616 0
 2173 0028 0B4B     		ldr	r3, .L116+20
 2174 002a FF26     		movs	r6, #255
 2175 002c 1E70     		strb	r6, [r3]
 617:.\herkulex2.c ****     dataEx[1] = HEADER;
 2176              		.loc 1 617 0
 2177 002e 5E70     		strb	r6, [r3, #1]
 618:.\herkulex2.c ****     dataEx[2] = pSize;
 2178              		.loc 1 618 0
 2179 0030 9970     		strb	r1, [r3, #2]
 619:.\herkulex2.c ****     dataEx[3] = pID;
 2180              		.loc 1 619 0
 2181 0032 D870     		strb	r0, [r3, #3]
 620:.\herkulex2.c ****     dataEx[4] = cmd;
 2182              		.loc 1 620 0
 2183 0034 1D71     		strb	r5, [r3, #4]
 621:.\herkulex2.c ****     dataEx[5] = ck1;
 2184              		.loc 1 621 0
 2185 0036 5C71     		strb	r4, [r3, #5]
 622:.\herkulex2.c ****     dataEx[6] = ck2;
 2186              		.loc 1 622 0
 2187 0038 9A71     		strb	r2, [r3, #6]
 623:.\herkulex2.c ****     
 624:.\herkulex2.c ****     sendData( dataEx , pSize );
 2188              		.loc 1 624 0
 2189 003a 1846     		mov	r0, r3
 2190              	.LVL181:
ARM GAS  C:\Users\EDTRIC~1\AppData\Local\Temp\ccXQQyjM.s 			page 51


 2191 003c FFF7FEFF 		bl	sendData
 2192              	.LVL182:
 2193 0040 70BD     		pop	{r4, r5, r6, pc}
 2194              	.L117:
 2195 0042 00BF     		.align	2
 2196              	.L116:
 2197 0044 00000000 		.word	pSize
 2198 0048 00000000 		.word	pID
 2199 004c 00000000 		.word	cmd
 2200 0050 00000000 		.word	ck1
 2201 0054 00000000 		.word	ck2
 2202 0058 00000000 		.word	dataEx
 2203              		.cfi_endproc
 2204              	.LFE85:
 2205              		.size	Servo_reboot, .-Servo_reboot
 2206              		.section	.text.Servo_setLED,"ax",%progbits
 2207              		.align	2
 2208              		.global	Servo_setLED
 2209              		.thumb
 2210              		.thumb_func
 2211              		.type	Servo_setLED, %function
 2212              	Servo_setLED:
 2213              	.LFB86:
 625:.\herkulex2.c **** }
 626:.\herkulex2.c **** 
 627:.\herkulex2.c **** void Servo_setLED( uint8 servoID , uint8 LED_Value )
 628:.\herkulex2.c **** {
 2214              		.loc 1 628 0
 2215              		.cfi_startproc
 2216              		@ args = 0, pretend = 0, frame = 0
 2217              		@ frame_needed = 0, uses_anonymous_args = 0
 2218              	.LVL183:
 2219 0000 2DE9F041 		push	{r4, r5, r6, r7, r8, lr}
 2220              		.cfi_def_cfa_offset 24
 2221              		.cfi_offset 4, -24
 2222              		.cfi_offset 5, -20
 2223              		.cfi_offset 6, -16
 2224              		.cfi_offset 7, -12
 2225              		.cfi_offset 8, -8
 2226              		.cfi_offset 14, -4
 629:.\herkulex2.c ****     pSize = 0x0A;
 2227              		.loc 1 629 0
 2228 0004 DFF88480 		ldr	r8, .L120+28
 2229 0008 0A23     		movs	r3, #10
 2230 000a 88F80030 		strb	r3, [r8]
 630:.\herkulex2.c ****     pID = servoID;
 2231              		.loc 1 630 0
 2232 000e 184F     		ldr	r7, .L120
 2233 0010 3870     		strb	r0, [r7]
 631:.\herkulex2.c ****     cmd = RAM_WRITE;
 2234              		.loc 1 631 0
 2235 0012 184E     		ldr	r6, .L120+4
 2236 0014 0323     		movs	r3, #3
 2237 0016 3370     		strb	r3, [r6]
 632:.\herkulex2.c ****     data[0] = 0x35;
 2238              		.loc 1 632 0
 2239 0018 174C     		ldr	r4, .L120+8
ARM GAS  C:\Users\EDTRIC~1\AppData\Local\Temp\ccXQQyjM.s 			page 52


 2240 001a 3522     		movs	r2, #53
 2241 001c 2270     		strb	r2, [r4]
 633:.\herkulex2.c ****     data[1] = 0x01;
 2242              		.loc 1 633 0
 2243 001e 0122     		movs	r2, #1
 2244 0020 6270     		strb	r2, [r4, #1]
 634:.\herkulex2.c ****     data[2] = LED_Value;
 2245              		.loc 1 634 0
 2246 0022 A170     		strb	r1, [r4, #2]
 635:.\herkulex2.c ****     lengthString = 3;
 2247              		.loc 1 635 0
 2248 0024 154A     		ldr	r2, .L120+12
 2249 0026 1370     		strb	r3, [r2]
 636:.\herkulex2.c ****     
 637:.\herkulex2.c ****     ck1 = checksum1( data , lengthString );
 2250              		.loc 1 637 0
 2251 0028 2046     		mov	r0, r4
 2252              	.LVL184:
 2253 002a 1946     		mov	r1, r3
 2254              	.LVL185:
 2255 002c FFF7FEFF 		bl	checksum1
 2256              	.LVL186:
 2257 0030 0546     		mov	r5, r0
 2258 0032 134B     		ldr	r3, .L120+16
 2259 0034 1870     		strb	r0, [r3]
 638:.\herkulex2.c ****     ck2 = checksum2( ck1 );
 2260              		.loc 1 638 0
 2261 0036 FFF7FEFF 		bl	checksum2
 2262              	.LVL187:
 2263 003a 124B     		ldr	r3, .L120+20
 2264 003c 1870     		strb	r0, [r3]
 639:.\herkulex2.c ****     
 640:.\herkulex2.c ****     dataEx[0] = HEADER;
 2265              		.loc 1 640 0
 2266 003e 124B     		ldr	r3, .L120+24
 2267 0040 FF22     		movs	r2, #255
 2268 0042 1A70     		strb	r2, [r3]
 641:.\herkulex2.c ****     dataEx[1] = HEADER;
 2269              		.loc 1 641 0
 2270 0044 5A70     		strb	r2, [r3, #1]
 642:.\herkulex2.c ****     dataEx[2] = pSize;
 2271              		.loc 1 642 0
 2272 0046 98F80010 		ldrb	r1, [r8]	@ zero_extendqisi2
 2273 004a 9970     		strb	r1, [r3, #2]
 643:.\herkulex2.c ****     dataEx[3] = pID;
 2274              		.loc 1 643 0
 2275 004c 3A78     		ldrb	r2, [r7]	@ zero_extendqisi2
 2276 004e DA70     		strb	r2, [r3, #3]
 644:.\herkulex2.c ****     dataEx[4] = cmd;
 2277              		.loc 1 644 0
 2278 0050 3278     		ldrb	r2, [r6]	@ zero_extendqisi2
 2279 0052 1A71     		strb	r2, [r3, #4]
 645:.\herkulex2.c ****     dataEx[5] = ck1;
 2280              		.loc 1 645 0
 2281 0054 5D71     		strb	r5, [r3, #5]
 646:.\herkulex2.c ****     dataEx[6] = ck2;
 2282              		.loc 1 646 0
ARM GAS  C:\Users\EDTRIC~1\AppData\Local\Temp\ccXQQyjM.s 			page 53


 2283 0056 9871     		strb	r0, [r3, #6]
 647:.\herkulex2.c ****     dataEx[7] = data[0];
 2284              		.loc 1 647 0
 2285 0058 2278     		ldrb	r2, [r4]	@ zero_extendqisi2
 2286 005a DA71     		strb	r2, [r3, #7]
 648:.\herkulex2.c ****     dataEx[8] = data[1];
 2287              		.loc 1 648 0
 2288 005c 6278     		ldrb	r2, [r4, #1]	@ zero_extendqisi2
 2289 005e 1A72     		strb	r2, [r3, #8]
 649:.\herkulex2.c ****     dataEx[9] = data[2];
 2290              		.loc 1 649 0
 2291 0060 A278     		ldrb	r2, [r4, #2]	@ zero_extendqisi2
 2292 0062 5A72     		strb	r2, [r3, #9]
 650:.\herkulex2.c ****     
 651:.\herkulex2.c ****     sendData( dataEx , pSize );
 2293              		.loc 1 651 0
 2294 0064 1846     		mov	r0, r3
 2295 0066 FFF7FEFF 		bl	sendData
 2296              	.LVL188:
 2297 006a BDE8F081 		pop	{r4, r5, r6, r7, r8, pc}
 2298              	.L121:
 2299 006e 00BF     		.align	2
 2300              	.L120:
 2301 0070 00000000 		.word	pID
 2302 0074 00000000 		.word	cmd
 2303 0078 00000000 		.word	data
 2304 007c 00000000 		.word	lengthString
 2305 0080 00000000 		.word	ck1
 2306 0084 00000000 		.word	ck2
 2307 0088 00000000 		.word	dataEx
 2308 008c 00000000 		.word	pSize
 2309              		.cfi_endproc
 2310              	.LFE86:
 2311              		.size	Servo_setLED, .-Servo_setLED
 2312              		.section	.text.Servo_moveOne,"ax",%progbits
 2313              		.align	2
 2314              		.global	Servo_moveOne
 2315              		.thumb
 2316              		.thumb_func
 2317              		.type	Servo_moveOne, %function
 2318              	Servo_moveOne:
 2319              	.LFB87:
 652:.\herkulex2.c **** }
 653:.\herkulex2.c **** 
 654:.\herkulex2.c **** void Servo_moveOne( uint8 servoID , int goal , int time , uint8 LED )
 655:.\herkulex2.c **** {
 2320              		.loc 1 655 0
 2321              		.cfi_startproc
 2322              		@ args = 0, pretend = 0, frame = 0
 2323              		@ frame_needed = 0, uses_anonymous_args = 0
 2324              	.LVL189:
 2325 0000 2DE9F84F 		push	{r3, r4, r5, r6, r7, r8, r9, r10, fp, lr}
 2326              		.cfi_def_cfa_offset 40
 2327              		.cfi_offset 3, -40
 2328              		.cfi_offset 4, -36
 2329              		.cfi_offset 5, -32
 2330              		.cfi_offset 6, -28
ARM GAS  C:\Users\EDTRIC~1\AppData\Local\Temp\ccXQQyjM.s 			page 54


 2331              		.cfi_offset 7, -24
 2332              		.cfi_offset 8, -20
 2333              		.cfi_offset 9, -16
 2334              		.cfi_offset 10, -12
 2335              		.cfi_offset 11, -8
 2336              		.cfi_offset 14, -4
 2337 0004 0D46     		mov	r5, r1
 656:.\herkulex2.c ****     if( goal > 1023 || goal < 0 ) return;
 2338              		.loc 1 656 0
 2339 0006 B1F5806F 		cmp	r1, #1024
 2340 000a 70D2     		bcs	.L122
 2341 000c 0646     		mov	r6, r0
 657:.\herkulex2.c ****     if( time < 0 || time > 2856 ) return;
 2342              		.loc 1 657 0
 2343 000e 40F62831 		movw	r1, #2856
 2344              	.LVL190:
 2345 0012 8A42     		cmp	r2, r1
 2346 0014 6BD8     		bhi	.L122
 2347              	.LVL191:
 658:.\herkulex2.c ****     
 659:.\herkulex2.c ****     int posLSB = goal & 0X00FF;
 660:.\herkulex2.c ****     int posMSB = ( goal & 0xFF00 ) >> 8;
 2348              		.loc 1 660 0
 2349 0016 C5F3072A 		ubfx	r10, r5, #8, #8
 2350              	.LVL192:
 661:.\herkulex2.c **** 
 662:.\herkulex2.c ****     int blue = 0;
 663:.\herkulex2.c ****     int green = 0;
 664:.\herkulex2.c ****     int red = 0;
 665:.\herkulex2.c ****     switch (LED) 
 2351              		.loc 1 665 0
 2352 001a 022B     		cmp	r3, #2
 2353 001c 08D0     		beq	.L125
 2354 001e 042B     		cmp	r3, #4
 2355 0020 0BD0     		beq	.L126
 2356 0022 012B     		cmp	r3, #1
 2357 0024 0ED0     		beq	.L128
 664:.\herkulex2.c ****     switch (LED) 
 2358              		.loc 1 664 0
 2359 0026 4FF0000B 		mov	fp, #0
 663:.\herkulex2.c ****     int red = 0;
 2360              		.loc 1 663 0
 2361 002a 5B46     		mov	r3, fp
 2362              	.LVL193:
 662:.\herkulex2.c ****     int green = 0;
 2363              		.loc 1 662 0
 2364 002c 5946     		mov	r1, fp
 2365 002e 0DE0     		b	.L127
 2366              	.LVL194:
 2367              	.L125:
 664:.\herkulex2.c ****     switch (LED) 
 2368              		.loc 1 664 0
 2369 0030 4FF0000B 		mov	fp, #0
 663:.\herkulex2.c ****     int red = 0;
 2370              		.loc 1 663 0
 2371 0034 5B46     		mov	r3, fp
 2372              	.LVL195:
ARM GAS  C:\Users\EDTRIC~1\AppData\Local\Temp\ccXQQyjM.s 			page 55


 666:.\herkulex2.c ****     {
 667:.\herkulex2.c ****         case 1:
 668:.\herkulex2.c ****             green = 1;
 669:.\herkulex2.c ****             break;
 670:.\herkulex2.c ****         case 2:
 671:.\herkulex2.c ****             blue = 1;
 2373              		.loc 1 671 0
 2374 0036 0121     		movs	r1, #1
 672:.\herkulex2.c ****             break;
 2375              		.loc 1 672 0
 2376 0038 08E0     		b	.L127
 2377              	.LVL196:
 2378              	.L126:
 673:.\herkulex2.c ****         case 4:
 674:.\herkulex2.c ****             red = 1;
 2379              		.loc 1 674 0
 2380 003a 4FF0010B 		mov	fp, #1
 663:.\herkulex2.c ****     int red = 0;
 2381              		.loc 1 663 0
 2382 003e 0023     		movs	r3, #0
 2383              	.LVL197:
 662:.\herkulex2.c ****     int green = 0;
 2384              		.loc 1 662 0
 2385 0040 1946     		mov	r1, r3
 675:.\herkulex2.c ****             break;
 2386              		.loc 1 675 0
 2387 0042 03E0     		b	.L127
 2388              	.LVL198:
 2389              	.L128:
 664:.\herkulex2.c ****     switch (LED) 
 2390              		.loc 1 664 0
 2391 0044 4FF0000B 		mov	fp, #0
 668:.\herkulex2.c ****             break;
 2392              		.loc 1 668 0
 2393 0048 0123     		movs	r3, #1
 2394              	.LVL199:
 662:.\herkulex2.c ****     int green = 0;
 2395              		.loc 1 662 0
 2396 004a 5946     		mov	r1, fp
 2397              	.LVL200:
 2398              	.L127:
 676:.\herkulex2.c ****     }
 677:.\herkulex2.c ****     
 678:.\herkulex2.c ****     int setValue = green * 4 + blue * 8 + red * 16;
 2399              		.loc 1 678 0
 2400 004c 03EB4103 		add	r3, r3, r1, lsl #1
 2401              	.LVL201:
 2402 0050 03EB8B0B 		add	fp, r3, fp, lsl #2
 2403              	.LVL202:
 2404 0054 4FEA8B0B 		lsl	fp, fp, #2
 2405              	.LVL203:
 679:.\herkulex2.c ****     
 680:.\herkulex2.c ****     playTime = (int)((float)time/11.2);
 2406              		.loc 1 680 0
 2407 0058 1046     		mov	r0, r2
 2408              	.LVL204:
 2409 005a FFF7FEFF 		bl	__aeabi_i2f
ARM GAS  C:\Users\EDTRIC~1\AppData\Local\Temp\ccXQQyjM.s 			page 56


 2410              	.LVL205:
 2411 005e FFF7FEFF 		bl	__aeabi_f2d
 2412              	.LVL206:
 2413 0062 4FF06632 		mov	r2, #1717986918
 2414 0066 234B     		ldr	r3, .L130
 2415 0068 FFF7FEFF 		bl	__aeabi_ddiv
 2416              	.LVL207:
 2417 006c FFF7FEFF 		bl	__aeabi_d2iz
 2418              	.LVL208:
 2419 0070 214F     		ldr	r7, .L130+4
 2420 0072 3860     		str	r0, [r7]
 681:.\herkulex2.c ****     
 682:.\herkulex2.c ****     pSize = 0x0C;
 2421              		.loc 1 682 0
 2422 0074 DFF89C90 		ldr	r9, .L130+32
 2423 0078 0C23     		movs	r3, #12
 2424 007a 89F80030 		strb	r3, [r9]
 683:.\herkulex2.c ****     cmd = S_JOG;
 2425              		.loc 1 683 0
 2426 007e DFF89880 		ldr	r8, .L130+36
 2427 0082 0623     		movs	r3, #6
 2428 0084 88F80030 		strb	r3, [r8]
 684:.\herkulex2.c ****     
 685:.\herkulex2.c ****     data[0] = posLSB;
 2429              		.loc 1 685 0
 2430 0088 1C4C     		ldr	r4, .L130+8
 2431 008a 2570     		strb	r5, [r4]
 686:.\herkulex2.c ****     data[1] = posMSB;
 2432              		.loc 1 686 0
 2433 008c 84F801A0 		strb	r10, [r4, #1]
 687:.\herkulex2.c ****     data[2] = setValue;
 2434              		.loc 1 687 0
 2435 0090 84F802B0 		strb	fp, [r4, #2]
 688:.\herkulex2.c ****     data[3] = servoID;
 2436              		.loc 1 688 0
 2437 0094 E670     		strb	r6, [r4, #3]
 689:.\herkulex2.c ****     
 690:.\herkulex2.c ****     pID = servoID ^ playTime;
 2438              		.loc 1 690 0
 2439 0096 1A4D     		ldr	r5, .L130+12
 2440              	.LVL209:
 2441 0098 7040     		eors	r0, r0, r6
 2442 009a 2870     		strb	r0, [r5]
 691:.\herkulex2.c ****     lengthString = 4;
 2443              		.loc 1 691 0
 2444 009c 0421     		movs	r1, #4
 2445 009e 194B     		ldr	r3, .L130+16
 2446 00a0 1970     		strb	r1, [r3]
 692:.\herkulex2.c ****     
 693:.\herkulex2.c ****     ck1 = checksum1( data , lengthString );
 2447              		.loc 1 693 0
 2448 00a2 2046     		mov	r0, r4
 2449 00a4 FFF7FEFF 		bl	checksum1
 2450              	.LVL210:
 2451 00a8 8246     		mov	r10, r0
 2452              	.LVL211:
 2453 00aa 174B     		ldr	r3, .L130+20
ARM GAS  C:\Users\EDTRIC~1\AppData\Local\Temp\ccXQQyjM.s 			page 57


 2454 00ac 1870     		strb	r0, [r3]
 694:.\herkulex2.c ****     ck2 = checksum2( ck1 );
 2455              		.loc 1 694 0
 2456 00ae FFF7FEFF 		bl	checksum2
 2457              	.LVL212:
 2458 00b2 164B     		ldr	r3, .L130+24
 2459 00b4 1870     		strb	r0, [r3]
 695:.\herkulex2.c ****     
 696:.\herkulex2.c ****     pID = servoID;
 2460              		.loc 1 696 0
 2461 00b6 2E70     		strb	r6, [r5]
 697:.\herkulex2.c ****     
 698:.\herkulex2.c ****     dataEx[0] = HEADER;
 2462              		.loc 1 698 0
 2463 00b8 154B     		ldr	r3, .L130+28
 2464 00ba FF22     		movs	r2, #255
 2465 00bc 1A70     		strb	r2, [r3]
 699:.\herkulex2.c ****     dataEx[1] = HEADER;
 2466              		.loc 1 699 0
 2467 00be 5A70     		strb	r2, [r3, #1]
 700:.\herkulex2.c ****     dataEx[2] = pSize;
 2468              		.loc 1 700 0
 2469 00c0 99F80010 		ldrb	r1, [r9]	@ zero_extendqisi2
 2470 00c4 9970     		strb	r1, [r3, #2]
 701:.\herkulex2.c ****     dataEx[3] = pID;
 2471              		.loc 1 701 0
 2472 00c6 DE70     		strb	r6, [r3, #3]
 702:.\herkulex2.c ****     dataEx[4] = cmd;
 2473              		.loc 1 702 0
 2474 00c8 98F80020 		ldrb	r2, [r8]	@ zero_extendqisi2
 2475 00cc 1A71     		strb	r2, [r3, #4]
 703:.\herkulex2.c ****     dataEx[5] = ck1;
 2476              		.loc 1 703 0
 2477 00ce 83F805A0 		strb	r10, [r3, #5]
 704:.\herkulex2.c ****     dataEx[6] = ck2;
 2478              		.loc 1 704 0
 2479 00d2 9871     		strb	r0, [r3, #6]
 705:.\herkulex2.c ****     dataEx[7] = playTime;
 2480              		.loc 1 705 0
 2481 00d4 3A68     		ldr	r2, [r7]
 2482 00d6 DA71     		strb	r2, [r3, #7]
 706:.\herkulex2.c ****     dataEx[8] = data[0];
 2483              		.loc 1 706 0
 2484 00d8 2278     		ldrb	r2, [r4]	@ zero_extendqisi2
 2485 00da 1A72     		strb	r2, [r3, #8]
 707:.\herkulex2.c ****     dataEx[9] = data[1];
 2486              		.loc 1 707 0
 2487 00dc 6278     		ldrb	r2, [r4, #1]	@ zero_extendqisi2
 2488 00de 5A72     		strb	r2, [r3, #9]
 708:.\herkulex2.c ****     dataEx[10] = data[2];
 2489              		.loc 1 708 0
 2490 00e0 A278     		ldrb	r2, [r4, #2]	@ zero_extendqisi2
 2491 00e2 9A72     		strb	r2, [r3, #10]
 709:.\herkulex2.c ****     dataEx[11] = data[3];
 2492              		.loc 1 709 0
 2493 00e4 E278     		ldrb	r2, [r4, #3]	@ zero_extendqisi2
 2494 00e6 DA72     		strb	r2, [r3, #11]
ARM GAS  C:\Users\EDTRIC~1\AppData\Local\Temp\ccXQQyjM.s 			page 58


 710:.\herkulex2.c ****     
 711:.\herkulex2.c ****     sendData( dataEx , pSize );
 2495              		.loc 1 711 0
 2496 00e8 1846     		mov	r0, r3
 2497 00ea FFF7FEFF 		bl	sendData
 2498              	.LVL213:
 2499              	.L122:
 2500 00ee BDE8F88F 		pop	{r3, r4, r5, r6, r7, r8, r9, r10, fp, pc}
 2501              	.L131:
 2502 00f2 00BF     		.align	2
 2503              	.L130:
 2504 00f4 66662640 		.word	1076258406
 2505 00f8 00000000 		.word	playTime
 2506 00fc 00000000 		.word	data
 2507 0100 00000000 		.word	pID
 2508 0104 00000000 		.word	lengthString
 2509 0108 00000000 		.word	ck1
 2510 010c 00000000 		.word	ck2
 2511 0110 00000000 		.word	dataEx
 2512 0114 00000000 		.word	pSize
 2513 0118 00000000 		.word	cmd
 2514              		.cfi_endproc
 2515              	.LFE87:
 2516              		.size	Servo_moveOne, .-Servo_moveOne
 2517              		.section	.text.Servo_moveOneAngle,"ax",%progbits
 2518              		.align	2
 2519              		.global	Servo_moveOneAngle
 2520              		.thumb
 2521              		.thumb_func
 2522              		.type	Servo_moveOneAngle, %function
 2523              	Servo_moveOneAngle:
 2524              	.LFB88:
 712:.\herkulex2.c **** }
 713:.\herkulex2.c **** 
 714:.\herkulex2.c **** void Servo_moveOneAngle( uint8 servoID , float angle , int time , uint8 LED )
 715:.\herkulex2.c **** {
 2525              		.loc 1 715 0
 2526              		.cfi_startproc
 2527              		@ args = 0, pretend = 0, frame = 0
 2528              		@ frame_needed = 0, uses_anonymous_args = 0
 2529              	.LVL214:
 2530 0000 F8B5     		push	{r3, r4, r5, r6, r7, lr}
 2531              		.cfi_def_cfa_offset 24
 2532              		.cfi_offset 3, -24
 2533              		.cfi_offset 4, -20
 2534              		.cfi_offset 5, -16
 2535              		.cfi_offset 6, -12
 2536              		.cfi_offset 7, -8
 2537              		.cfi_offset 14, -4
 2538 0002 0746     		mov	r7, r0
 2539 0004 0C46     		mov	r4, r1
 2540 0006 1646     		mov	r6, r2
 2541 0008 1D46     		mov	r5, r3
 716:.\herkulex2.c ****     if( angle > 160.0 || angle < -160.0 ) return;
 2542              		.loc 1 716 0
 2543 000a 0846     		mov	r0, r1
 2544              	.LVL215:
ARM GAS  C:\Users\EDTRIC~1\AppData\Local\Temp\ccXQQyjM.s 			page 59


 2545 000c 1049     		ldr	r1, .L135+8
 2546              	.LVL216:
 2547 000e FFF7FEFF 		bl	__aeabi_fcmpgt
 2548              	.LVL217:
 2549 0012 A8B9     		cbnz	r0, .L132
 2550              		.loc 1 716 0 is_stmt 0 discriminator 1
 2551 0014 2046     		mov	r0, r4
 2552 0016 0F49     		ldr	r1, .L135+12
 2553 0018 FFF7FEFF 		bl	__aeabi_fcmplt
 2554              	.LVL218:
 2555 001c 80B9     		cbnz	r0, .L132
 717:.\herkulex2.c ****     int position = (int)(angle/0.325) + 512;
 2556              		.loc 1 717 0 is_stmt 1
 2557 001e 2046     		mov	r0, r4
 2558 0020 FFF7FEFF 		bl	__aeabi_f2d
 2559              	.LVL219:
 2560 0024 08A3     		adr	r3, .L135
 2561 0026 D3E90023 		ldrd	r2, [r3]
 2562 002a FFF7FEFF 		bl	__aeabi_ddiv
 2563              	.LVL220:
 2564 002e FFF7FEFF 		bl	__aeabi_d2iz
 2565              	.LVL221:
 2566 0032 00F50071 		add	r1, r0, #512
 2567              	.LVL222:
 718:.\herkulex2.c ****     Servo_moveOne( servoID , position , time , LED );
 2568              		.loc 1 718 0
 2569 0036 3846     		mov	r0, r7
 2570 0038 3246     		mov	r2, r6
 2571 003a 2B46     		mov	r3, r5
 2572 003c FFF7FEFF 		bl	Servo_moveOne
 2573              	.LVL223:
 2574              	.L132:
 2575 0040 F8BD     		pop	{r3, r4, r5, r6, r7, pc}
 2576              	.LVL224:
 2577              	.L136:
 2578 0042 00BFAFF3 		.align	3
 2578      0080
 2579              	.L135:
 2580 0048 CDCCCCCC 		.word	-858993459
 2581 004c CCCCD43F 		.word	1070910668
 2582 0050 00002043 		.word	1126170624
 2583 0054 000020C3 		.word	-1021313024
 2584              		.cfi_endproc
 2585              	.LFE88:
 2586              		.size	Servo_moveOneAngle, .-Servo_moveOneAngle
 2587              		.section	.text.Servo_Start,"ax",%progbits
 2588              		.align	2
 2589              		.global	Servo_Start
 2590              		.thumb
 2591              		.thumb_func
 2592              		.type	Servo_Start, %function
 2593              	Servo_Start:
 2594              	.LFB69:
 118:.\herkulex2.c ****     conta = 0;
 2595              		.loc 1 118 0
 2596              		.cfi_startproc
 2597              		@ args = 0, pretend = 0, frame = 0
ARM GAS  C:\Users\EDTRIC~1\AppData\Local\Temp\ccXQQyjM.s 			page 60


 2598              		@ frame_needed = 0, uses_anonymous_args = 0
 2599 0000 10B5     		push	{r4, lr}
 2600              		.cfi_def_cfa_offset 8
 2601              		.cfi_offset 4, -8
 2602              		.cfi_offset 14, -4
 119:.\herkulex2.c ****     lengthString = 0;
 2603              		.loc 1 119 0
 2604 0002 0024     		movs	r4, #0
 2605 0004 194B     		ldr	r3, .L139
 2606 0006 1C70     		strb	r4, [r3]
 120:.\herkulex2.c ****     CyDelay(100);
 2607              		.loc 1 120 0
 2608 0008 194B     		ldr	r3, .L139+4
 2609 000a 1C70     		strb	r4, [r3]
 121:.\herkulex2.c ****     Servo_clearError(PIDALL);
 2610              		.loc 1 121 0
 2611 000c 6420     		movs	r0, #100
 2612 000e FFF7FEFF 		bl	CyDelay
 2613              	.LVL225:
 122:.\herkulex2.c ****     CyDelay(10);
 2614              		.loc 1 122 0
 2615 0012 FE20     		movs	r0, #254
 2616 0014 FFF7FEFF 		bl	Servo_clearError
 2617              	.LVL226:
 123:.\herkulex2.c ****     Servo_ACK(1);
 2618              		.loc 1 123 0
 2619 0018 0A20     		movs	r0, #10
 2620 001a FFF7FEFF 		bl	CyDelay
 2621              	.LVL227:
 124:.\herkulex2.c ****     CyDelay(10);
 2622              		.loc 1 124 0
 2623 001e 0120     		movs	r0, #1
 2624 0020 FFF7FEFF 		bl	Servo_ACK
 2625              	.LVL228:
 125:.\herkulex2.c ****     Servo_torqueON(PIDALL);
 2626              		.loc 1 125 0
 2627 0024 0A20     		movs	r0, #10
 2628 0026 FFF7FEFF 		bl	CyDelay
 2629              	.LVL229:
 126:.\herkulex2.c ****     CyDelay(10);
 2630              		.loc 1 126 0
 2631 002a FE20     		movs	r0, #254
 2632 002c FFF7FEFF 		bl	Servo_torqueON
 2633              	.LVL230:
 127:.\herkulex2.c ****     
 2634              		.loc 1 127 0
 2635 0030 0A20     		movs	r0, #10
 2636 0032 FFF7FEFF 		bl	CyDelay
 2637              	.LVL231:
 129:.\herkulex2.c ****     CyDelay(1200);
 2638              		.loc 1 129 0
 2639 0036 FE20     		movs	r0, #254
 2640 0038 0021     		movs	r1, #0
 2641 003a 4FF47A72 		mov	r2, #1000
 2642 003e 0423     		movs	r3, #4
 2643 0040 FFF7FEFF 		bl	Servo_moveOneAngle
 2644              	.LVL232:
ARM GAS  C:\Users\EDTRIC~1\AppData\Local\Temp\ccXQQyjM.s 			page 61


 130:.\herkulex2.c ****     Servo_setLED( PIDALL , LED_GREEN );
 2645              		.loc 1 130 0
 2646 0044 4FF49660 		mov	r0, #1200
 2647 0048 FFF7FEFF 		bl	CyDelay
 2648              	.LVL233:
 131:.\herkulex2.c ****     CyDelay(100);
 2649              		.loc 1 131 0
 2650 004c FE20     		movs	r0, #254
 2651 004e 0121     		movs	r1, #1
 2652 0050 FFF7FEFF 		bl	Servo_setLED
 2653              	.LVL234:
 132:.\herkulex2.c ****     Servo_setLED( PIDALL , 0 );
 2654              		.loc 1 132 0
 2655 0054 6420     		movs	r0, #100
 2656 0056 FFF7FEFF 		bl	CyDelay
 2657              	.LVL235:
 133:.\herkulex2.c ****     CyDelay(500);
 2658              		.loc 1 133 0
 2659 005a FE20     		movs	r0, #254
 2660 005c 2146     		mov	r1, r4
 2661 005e FFF7FEFF 		bl	Servo_setLED
 2662              	.LVL236:
 134:.\herkulex2.c **** }
 2663              		.loc 1 134 0
 2664 0062 4FF4FA70 		mov	r0, #500
 2665 0066 FFF7FEFF 		bl	CyDelay
 2666              	.LVL237:
 2667 006a 10BD     		pop	{r4, pc}
 2668              	.L140:
 2669              		.align	2
 2670              	.L139:
 2671 006c 00000000 		.word	conta
 2672 0070 00000000 		.word	lengthString
 2673              		.cfi_endproc
 2674              	.LFE69:
 2675              		.size	Servo_Start, .-Servo_Start
 2676              		.section	.text.Servo_moveSpeedOne,"ax",%progbits
 2677              		.align	2
 2678              		.global	Servo_moveSpeedOne
 2679              		.thumb
 2680              		.thumb_func
 2681              		.type	Servo_moveSpeedOne, %function
 2682              	Servo_moveSpeedOne:
 2683              	.LFB89:
 719:.\herkulex2.c **** }
 720:.\herkulex2.c **** 
 721:.\herkulex2.c **** void Servo_moveSpeedOne( uint8 servoID , int goal , int time , uint8 LED )
 722:.\herkulex2.c **** {
 2684              		.loc 1 722 0
 2685              		.cfi_startproc
 2686              		@ args = 0, pretend = 0, frame = 0
 2687              		@ frame_needed = 0, uses_anonymous_args = 0
 2688              	.LVL238:
 2689 0000 2DE9F84F 		push	{r3, r4, r5, r6, r7, r8, r9, r10, fp, lr}
 2690              		.cfi_def_cfa_offset 40
 2691              		.cfi_offset 3, -40
 2692              		.cfi_offset 4, -36
ARM GAS  C:\Users\EDTRIC~1\AppData\Local\Temp\ccXQQyjM.s 			page 62


 2693              		.cfi_offset 5, -32
 2694              		.cfi_offset 6, -28
 2695              		.cfi_offset 7, -24
 2696              		.cfi_offset 8, -20
 2697              		.cfi_offset 9, -16
 2698              		.cfi_offset 10, -12
 2699              		.cfi_offset 11, -8
 2700              		.cfi_offset 14, -4
 2701 0004 0D46     		mov	r5, r1
 723:.\herkulex2.c ****     /*if ( goal > 1023 || goal < -1023 ) return;
 724:.\herkulex2.c ****     if ( time < 0 || time > 2856 ) return;
 725:.\herkulex2.c ****     
 726:.\herkulex2.c ****     int goalSpeedSign;
 727:.\herkulex2.c ****     if ( goal < 0 ) {
 728:.\herkulex2.c ****         goalSpeedSign = (-1) * goal;
 729:.\herkulex2.c ****         goalSpeedSign |= 0x4000;
 730:.\herkulex2.c ****     }
 731:.\herkulex2.c ****     else {
 732:.\herkulex2.c ****         goalSpeedSign = goal;
 733:.\herkulex2.c ****     }
 734:.\herkulex2.c ****     
 735:.\herkulex2.c ****     int speedGoalLSB = goalSpeedSign & 0X00FF;
 736:.\herkulex2.c ****     int speedGoalMSB = ( goalSpeedSign & 0xFF00 ) >> 8;
 737:.\herkulex2.c **** 
 738:.\herkulex2.c ****     int blue = 0;
 739:.\herkulex2.c ****     int green = 0;
 740:.\herkulex2.c ****     int red = 0;
 741:.\herkulex2.c ****     switch (LED) {
 742:.\herkulex2.c ****         
 743:.\herkulex2.c ****         case 1:
 744:.\herkulex2.c ****             green = 1;
 745:.\herkulex2.c ****             break;
 746:.\herkulex2.c ****         case 2:
 747:.\herkulex2.c ****             blue = 1;
 748:.\herkulex2.c ****             break;
 749:.\herkulex2.c ****         case 4:
 750:.\herkulex2.c ****             red = 1;
 751:.\herkulex2.c ****             break;
 752:.\herkulex2.c ****     }
 753:.\herkulex2.c ****     
 754:.\herkulex2.c ****     int setValue = 2 + green * 4 + blue * 8 + red * 16;
 755:.\herkulex2.c **** 
 756:.\herkulex2.c ****     playTime = (int)((float)time/11.2);
 757:.\herkulex2.c **** 
 758:.\herkulex2.c ****     pSize = 0x0C;
 759:.\herkulex2.c ****     cmd = S_JOG;
 760:.\herkulex2.c **** 
 761:.\herkulex2.c ****     data[0] = speedGoalLSB;
 762:.\herkulex2.c ****     data[1] = speedGoalMSB;
 763:.\herkulex2.c ****     data[2] = setValue;
 764:.\herkulex2.c ****     data[3] = servoID;
 765:.\herkulex2.c **** 
 766:.\herkulex2.c ****     pID = servoID ^ playTime;
 767:.\herkulex2.c **** 
 768:.\herkulex2.c ****     lengthString = 4;
 769:.\herkulex2.c **** 
 770:.\herkulex2.c ****     ck1 = checksum1 ( data , lengthString );
ARM GAS  C:\Users\EDTRIC~1\AppData\Local\Temp\ccXQQyjM.s 			page 63


 771:.\herkulex2.c ****     ck2 = checksum2 ( ck1 );
 772:.\herkulex2.c **** 
 773:.\herkulex2.c ****     pID = servoID;
 774:.\herkulex2.c **** 
 775:.\herkulex2.c ****     dataEx[0] = HEADER;
 776:.\herkulex2.c ****     dataEx[1] = HEADER;
 777:.\herkulex2.c ****     dataEx[2] = pSize;
 778:.\herkulex2.c ****     dataEx[3] = pID;
 779:.\herkulex2.c ****     dataEx[4] = cmd;
 780:.\herkulex2.c ****     dataEx[5] = ck1;
 781:.\herkulex2.c ****     dataEx[6] = ck2;
 782:.\herkulex2.c ****     dataEx[7] = playTime;
 783:.\herkulex2.c ****     dataEx[8] = data[0];
 784:.\herkulex2.c ****     dataEx[9] = data[1];
 785:.\herkulex2.c ****     dataEx[10] = data[2];
 786:.\herkulex2.c ****     dataEx[11] = data[3];
 787:.\herkulex2.c **** 
 788:.\herkulex2.c ****     sendData ( dataEx , pSize );*/
 789:.\herkulex2.c ****     if( goal > 1023 || goal < -1023 ) return;
 2702              		.loc 1 789 0
 2703 0006 01F2FF34 		addw	r4, r1, #1023
 2704 000a 40F2FE71 		movw	r1, #2046
 2705              	.LVL239:
 2706 000e 8C42     		cmp	r4, r1
 2707 0010 72D8     		bhi	.L141
 2708 0012 0646     		mov	r6, r0
 790:.\herkulex2.c ****     if( time < 0 || time > 2856 ) return;
 2709              		.loc 1 790 0
 2710 0014 40F62831 		movw	r1, #2856
 2711 0018 8A42     		cmp	r2, r1
 2712 001a 6DD8     		bhi	.L141
 791:.\herkulex2.c ****     
 792:.\herkulex2.c ****     int goalSpeedSign;
 793:.\herkulex2.c ****     if ( goal < 0 ) 
 2713              		.loc 1 793 0
 2714 001c 002D     		cmp	r5, #0
 2715 001e 02DA     		bge	.L143
 794:.\herkulex2.c ****     {
 795:.\herkulex2.c ****         goalSpeedSign = (-1) * goal;
 2716              		.loc 1 795 0
 2717 0020 6D42     		negs	r5, r5
 2718              	.LVL240:
 796:.\herkulex2.c ****         goalSpeedSign |= 0x4000;
 2719              		.loc 1 796 0
 2720 0022 45F48045 		orr	r5, r5, #16384
 2721              	.LVL241:
 2722              	.L143:
 797:.\herkulex2.c ****     }
 798:.\herkulex2.c ****     else 
 799:.\herkulex2.c ****     {
 800:.\herkulex2.c ****         goalSpeedSign = goal;
 801:.\herkulex2.c ****     }
 802:.\herkulex2.c ****     
 803:.\herkulex2.c ****     int speedGoalLSB = goalSpeedSign & 0x00FF;
 804:.\herkulex2.c ****     int speedGoalMSB = ( goalSpeedSign & 0xFF00 ) >> 8;
 2723              		.loc 1 804 0
 2724 0026 C5F3072A 		ubfx	r10, r5, #8, #8
ARM GAS  C:\Users\EDTRIC~1\AppData\Local\Temp\ccXQQyjM.s 			page 64


 2725              	.LVL242:
 805:.\herkulex2.c **** 
 806:.\herkulex2.c ****     int blue = 0;
 807:.\herkulex2.c ****     int green = 0;
 808:.\herkulex2.c ****     int red = 0;
 809:.\herkulex2.c ****     switch (LED) 
 2726              		.loc 1 809 0
 2727 002a 022B     		cmp	r3, #2
 2728 002c 07D0     		beq	.L145
 2729 002e 042B     		cmp	r3, #4
 2730 0030 0AD0     		beq	.L146
 2731 0032 012B     		cmp	r3, #1
 2732 0034 0CD0     		beq	.L148
 808:.\herkulex2.c ****     switch (LED) 
 2733              		.loc 1 808 0
 2734 0036 0021     		movs	r1, #0
 807:.\herkulex2.c ****     int red = 0;
 2735              		.loc 1 807 0
 2736 0038 0B46     		mov	r3, r1
 2737              	.LVL243:
 806:.\herkulex2.c ****     int green = 0;
 2738              		.loc 1 806 0
 2739 003a 8B46     		mov	fp, r1
 2740 003c 0BE0     		b	.L147
 2741              	.LVL244:
 2742              	.L145:
 808:.\herkulex2.c ****     switch (LED) 
 2743              		.loc 1 808 0
 2744 003e 0021     		movs	r1, #0
 807:.\herkulex2.c ****     int red = 0;
 2745              		.loc 1 807 0
 2746 0040 0B46     		mov	r3, r1
 2747              	.LVL245:
 810:.\herkulex2.c ****     {
 811:.\herkulex2.c ****         case 1:
 812:.\herkulex2.c ****             green = 1;
 813:.\herkulex2.c ****             break;
 814:.\herkulex2.c ****         case 2:
 815:.\herkulex2.c ****             blue = 1;
 2748              		.loc 1 815 0
 2749 0042 4FF0010B 		mov	fp, #1
 816:.\herkulex2.c ****             break;
 2750              		.loc 1 816 0
 2751 0046 06E0     		b	.L147
 2752              	.LVL246:
 2753              	.L146:
 817:.\herkulex2.c ****         case 4:
 818:.\herkulex2.c ****             red = 1;
 2754              		.loc 1 818 0
 2755 0048 0121     		movs	r1, #1
 807:.\herkulex2.c ****     int red = 0;
 2756              		.loc 1 807 0
 2757 004a 0023     		movs	r3, #0
 2758              	.LVL247:
 806:.\herkulex2.c ****     int green = 0;
 2759              		.loc 1 806 0
 2760 004c 9B46     		mov	fp, r3
ARM GAS  C:\Users\EDTRIC~1\AppData\Local\Temp\ccXQQyjM.s 			page 65


 819:.\herkulex2.c ****             break;
 2761              		.loc 1 819 0
 2762 004e 02E0     		b	.L147
 2763              	.LVL248:
 2764              	.L148:
 808:.\herkulex2.c ****     switch (LED) 
 2765              		.loc 1 808 0
 2766 0050 0021     		movs	r1, #0
 812:.\herkulex2.c ****             break;
 2767              		.loc 1 812 0
 2768 0052 0123     		movs	r3, #1
 2769              	.LVL249:
 806:.\herkulex2.c ****     int green = 0;
 2770              		.loc 1 806 0
 2771 0054 8B46     		mov	fp, r1
 2772              	.LVL250:
 2773              	.L147:
 820:.\herkulex2.c ****     }
 821:.\herkulex2.c ****     
 822:.\herkulex2.c ****     int setValue = 2 + green * 4 + blue * 8 + red * 16;
 2774              		.loc 1 822 0
 2775 0056 9B00     		lsls	r3, r3, #2
 2776              	.LVL251:
 2777 0058 0233     		adds	r3, r3, #2
 2778 005a 03EBCB03 		add	r3, r3, fp, lsl #3
 2779 005e 03EB011B 		add	fp, r3, r1, lsl #4
 2780              	.LVL252:
 823:.\herkulex2.c ****     
 824:.\herkulex2.c ****     playTime = (int)((float)time/11.2);
 2781              		.loc 1 824 0
 2782 0062 1046     		mov	r0, r2
 2783              	.LVL253:
 2784 0064 FFF7FEFF 		bl	__aeabi_i2f
 2785              	.LVL254:
 2786 0068 FFF7FEFF 		bl	__aeabi_f2d
 2787              	.LVL255:
 2788 006c 4FF06632 		mov	r2, #1717986918
 2789 0070 224B     		ldr	r3, .L150
 2790 0072 FFF7FEFF 		bl	__aeabi_ddiv
 2791              	.LVL256:
 2792 0076 FFF7FEFF 		bl	__aeabi_d2iz
 2793              	.LVL257:
 2794 007a 214F     		ldr	r7, .L150+4
 2795 007c 3860     		str	r0, [r7]
 825:.\herkulex2.c ****     
 826:.\herkulex2.c ****     pSize = 0x0C;
 2796              		.loc 1 826 0
 2797 007e DFF89C90 		ldr	r9, .L150+32
 2798 0082 0C23     		movs	r3, #12
 2799 0084 89F80030 		strb	r3, [r9]
 827:.\herkulex2.c ****     cmd = S_JOG;
 2800              		.loc 1 827 0
 2801 0088 DFF89480 		ldr	r8, .L150+36
 2802 008c 0623     		movs	r3, #6
 2803 008e 88F80030 		strb	r3, [r8]
 828:.\herkulex2.c ****     
 829:.\herkulex2.c ****     data[0] = speedGoalLSB;
ARM GAS  C:\Users\EDTRIC~1\AppData\Local\Temp\ccXQQyjM.s 			page 66


 2804              		.loc 1 829 0
 2805 0092 1C4C     		ldr	r4, .L150+8
 2806              	.LVL258:
 2807 0094 2570     		strb	r5, [r4]
 830:.\herkulex2.c ****     data[1] = speedGoalMSB;
 2808              		.loc 1 830 0
 2809 0096 84F801A0 		strb	r10, [r4, #1]
 831:.\herkulex2.c ****     data[2] = setValue;
 2810              		.loc 1 831 0
 2811 009a 84F802B0 		strb	fp, [r4, #2]
 832:.\herkulex2.c ****     data[3] = servoID;
 2812              		.loc 1 832 0
 2813 009e E670     		strb	r6, [r4, #3]
 833:.\herkulex2.c ****     
 834:.\herkulex2.c ****     pID = servoID ^ playTime;
 2814              		.loc 1 834 0
 2815 00a0 194D     		ldr	r5, .L150+12
 2816              	.LVL259:
 2817 00a2 7040     		eors	r0, r0, r6
 2818 00a4 2870     		strb	r0, [r5]
 835:.\herkulex2.c ****     lengthString = 4;
 2819              		.loc 1 835 0
 2820 00a6 0421     		movs	r1, #4
 2821 00a8 184B     		ldr	r3, .L150+16
 2822 00aa 1970     		strb	r1, [r3]
 836:.\herkulex2.c ****     
 837:.\herkulex2.c ****     ck1 = checksum1( data , lengthString );
 2823              		.loc 1 837 0
 2824 00ac 2046     		mov	r0, r4
 2825 00ae FFF7FEFF 		bl	checksum1
 2826              	.LVL260:
 2827 00b2 8246     		mov	r10, r0
 2828              	.LVL261:
 2829 00b4 164B     		ldr	r3, .L150+20
 2830 00b6 1870     		strb	r0, [r3]
 838:.\herkulex2.c ****     ck2 = checksum2( ck1 );
 2831              		.loc 1 838 0
 2832 00b8 FFF7FEFF 		bl	checksum2
 2833              	.LVL262:
 2834 00bc 154B     		ldr	r3, .L150+24
 2835 00be 1870     		strb	r0, [r3]
 839:.\herkulex2.c ****     
 840:.\herkulex2.c ****     pID = servoID;
 2836              		.loc 1 840 0
 2837 00c0 2E70     		strb	r6, [r5]
 841:.\herkulex2.c ****     
 842:.\herkulex2.c ****     dataEx[0] = HEADER;
 2838              		.loc 1 842 0
 2839 00c2 154B     		ldr	r3, .L150+28
 2840 00c4 FF22     		movs	r2, #255
 2841 00c6 1A70     		strb	r2, [r3]
 843:.\herkulex2.c ****     dataEx[1] = HEADER;
 2842              		.loc 1 843 0
 2843 00c8 5A70     		strb	r2, [r3, #1]
 844:.\herkulex2.c ****     dataEx[2] = pSize;
 2844              		.loc 1 844 0
 2845 00ca 99F80010 		ldrb	r1, [r9]	@ zero_extendqisi2
ARM GAS  C:\Users\EDTRIC~1\AppData\Local\Temp\ccXQQyjM.s 			page 67


 2846 00ce 9970     		strb	r1, [r3, #2]
 845:.\herkulex2.c ****     dataEx[3] = pID;
 2847              		.loc 1 845 0
 2848 00d0 DE70     		strb	r6, [r3, #3]
 846:.\herkulex2.c ****     dataEx[4] = cmd;
 2849              		.loc 1 846 0
 2850 00d2 98F80020 		ldrb	r2, [r8]	@ zero_extendqisi2
 2851 00d6 1A71     		strb	r2, [r3, #4]
 847:.\herkulex2.c ****     dataEx[5] = ck1;
 2852              		.loc 1 847 0
 2853 00d8 83F805A0 		strb	r10, [r3, #5]
 848:.\herkulex2.c ****     dataEx[6] = ck2;
 2854              		.loc 1 848 0
 2855 00dc 9871     		strb	r0, [r3, #6]
 849:.\herkulex2.c ****     dataEx[7] = playTime;
 2856              		.loc 1 849 0
 2857 00de 3A68     		ldr	r2, [r7]
 2858 00e0 DA71     		strb	r2, [r3, #7]
 850:.\herkulex2.c ****     dataEx[8] = data[0];
 2859              		.loc 1 850 0
 2860 00e2 2278     		ldrb	r2, [r4]	@ zero_extendqisi2
 2861 00e4 1A72     		strb	r2, [r3, #8]
 851:.\herkulex2.c ****     dataEx[9] = data[1];
 2862              		.loc 1 851 0
 2863 00e6 6278     		ldrb	r2, [r4, #1]	@ zero_extendqisi2
 2864 00e8 5A72     		strb	r2, [r3, #9]
 852:.\herkulex2.c ****     dataEx[10] = data[2];
 2865              		.loc 1 852 0
 2866 00ea A278     		ldrb	r2, [r4, #2]	@ zero_extendqisi2
 2867 00ec 9A72     		strb	r2, [r3, #10]
 853:.\herkulex2.c ****     dataEx[11] = data[3];
 2868              		.loc 1 853 0
 2869 00ee E278     		ldrb	r2, [r4, #3]	@ zero_extendqisi2
 2870 00f0 DA72     		strb	r2, [r3, #11]
 854:.\herkulex2.c ****     
 855:.\herkulex2.c ****     sendData( dataEx , pSize );
 2871              		.loc 1 855 0
 2872 00f2 1846     		mov	r0, r3
 2873 00f4 FFF7FEFF 		bl	sendData
 2874              	.LVL263:
 2875              	.L141:
 2876 00f8 BDE8F88F 		pop	{r3, r4, r5, r6, r7, r8, r9, r10, fp, pc}
 2877              	.L151:
 2878              		.align	2
 2879              	.L150:
 2880 00fc 66662640 		.word	1076258406
 2881 0100 00000000 		.word	playTime
 2882 0104 00000000 		.word	data
 2883 0108 00000000 		.word	pID
 2884 010c 00000000 		.word	lengthString
 2885 0110 00000000 		.word	ck1
 2886 0114 00000000 		.word	ck2
 2887 0118 00000000 		.word	dataEx
 2888 011c 00000000 		.word	pSize
 2889 0120 00000000 		.word	cmd
 2890              		.cfi_endproc
 2891              	.LFE89:
ARM GAS  C:\Users\EDTRIC~1\AppData\Local\Temp\ccXQQyjM.s 			page 68


 2892              		.size	Servo_moveSpeedOne, .-Servo_moveSpeedOne
 2893              		.section	.text.Servo_writeRegistryRAM,"ax",%progbits
 2894              		.align	2
 2895              		.global	Servo_writeRegistryRAM
 2896              		.thumb
 2897              		.thumb_func
 2898              		.type	Servo_writeRegistryRAM, %function
 2899              	Servo_writeRegistryRAM:
 2900              	.LFB90:
 856:.\herkulex2.c **** }
 857:.\herkulex2.c **** 
 858:.\herkulex2.c **** void Servo_writeRegistryRAM( uint8 servoID , uint8 address , uint8 writeByte )
 859:.\herkulex2.c **** {
 2901              		.loc 1 859 0
 2902              		.cfi_startproc
 2903              		@ args = 0, pretend = 0, frame = 0
 2904              		@ frame_needed = 0, uses_anonymous_args = 0
 2905              	.LVL264:
 2906 0000 2DE9F041 		push	{r4, r5, r6, r7, r8, lr}
 2907              		.cfi_def_cfa_offset 24
 2908              		.cfi_offset 4, -24
 2909              		.cfi_offset 5, -20
 2910              		.cfi_offset 6, -16
 2911              		.cfi_offset 7, -12
 2912              		.cfi_offset 8, -8
 2913              		.cfi_offset 14, -4
 860:.\herkulex2.c ****     pSize = 0x0A;
 2914              		.loc 1 860 0
 2915 0004 DFF88480 		ldr	r8, .L154+28
 2916 0008 0A23     		movs	r3, #10
 2917 000a 88F80030 		strb	r3, [r8]
 861:.\herkulex2.c ****     pID = servoID;
 2918              		.loc 1 861 0
 2919 000e 184F     		ldr	r7, .L154
 2920 0010 3870     		strb	r0, [r7]
 862:.\herkulex2.c ****     cmd = RAM_WRITE;
 2921              		.loc 1 862 0
 2922 0012 184E     		ldr	r6, .L154+4
 2923 0014 0323     		movs	r3, #3
 2924 0016 3370     		strb	r3, [r6]
 863:.\herkulex2.c ****     data[0] = address;
 2925              		.loc 1 863 0
 2926 0018 174C     		ldr	r4, .L154+8
 2927 001a 2170     		strb	r1, [r4]
 864:.\herkulex2.c ****     data[1] = 0x01;
 2928              		.loc 1 864 0
 2929 001c 0121     		movs	r1, #1
 2930              	.LVL265:
 2931 001e 6170     		strb	r1, [r4, #1]
 865:.\herkulex2.c ****     data[2] = writeByte;
 2932              		.loc 1 865 0
 2933 0020 A270     		strb	r2, [r4, #2]
 866:.\herkulex2.c ****     lengthString = 3;
 2934              		.loc 1 866 0
 2935 0022 164A     		ldr	r2, .L154+12
 2936              	.LVL266:
 2937 0024 1370     		strb	r3, [r2]
ARM GAS  C:\Users\EDTRIC~1\AppData\Local\Temp\ccXQQyjM.s 			page 69


 867:.\herkulex2.c ****     
 868:.\herkulex2.c ****     ck1 = checksum1( data , lengthString );
 2938              		.loc 1 868 0
 2939 0026 2046     		mov	r0, r4
 2940              	.LVL267:
 2941 0028 1946     		mov	r1, r3
 2942 002a FFF7FEFF 		bl	checksum1
 2943              	.LVL268:
 2944 002e 0546     		mov	r5, r0
 2945 0030 134B     		ldr	r3, .L154+16
 2946 0032 1870     		strb	r0, [r3]
 869:.\herkulex2.c ****     ck2 = checksum2( ck1 );
 2947              		.loc 1 869 0
 2948 0034 FFF7FEFF 		bl	checksum2
 2949              	.LVL269:
 2950 0038 124B     		ldr	r3, .L154+20
 2951 003a 1870     		strb	r0, [r3]
 870:.\herkulex2.c ****     
 871:.\herkulex2.c ****     dataEx[0] = HEADER;
 2952              		.loc 1 871 0
 2953 003c 124B     		ldr	r3, .L154+24
 2954 003e FF22     		movs	r2, #255
 2955 0040 1A70     		strb	r2, [r3]
 872:.\herkulex2.c ****     dataEx[1] = HEADER;
 2956              		.loc 1 872 0
 2957 0042 5A70     		strb	r2, [r3, #1]
 873:.\herkulex2.c ****     dataEx[2] = pSize;
 2958              		.loc 1 873 0
 2959 0044 98F80010 		ldrb	r1, [r8]	@ zero_extendqisi2
 2960 0048 9970     		strb	r1, [r3, #2]
 874:.\herkulex2.c ****     dataEx[3] = pID;
 2961              		.loc 1 874 0
 2962 004a 3A78     		ldrb	r2, [r7]	@ zero_extendqisi2
 2963 004c DA70     		strb	r2, [r3, #3]
 875:.\herkulex2.c ****     dataEx[4] = cmd;
 2964              		.loc 1 875 0
 2965 004e 3278     		ldrb	r2, [r6]	@ zero_extendqisi2
 2966 0050 1A71     		strb	r2, [r3, #4]
 876:.\herkulex2.c ****     dataEx[5] = ck1;
 2967              		.loc 1 876 0
 2968 0052 5D71     		strb	r5, [r3, #5]
 877:.\herkulex2.c ****     dataEx[6] = ck2;
 2969              		.loc 1 877 0
 2970 0054 9871     		strb	r0, [r3, #6]
 878:.\herkulex2.c ****     dataEx[7] = data[0];
 2971              		.loc 1 878 0
 2972 0056 2278     		ldrb	r2, [r4]	@ zero_extendqisi2
 2973 0058 DA71     		strb	r2, [r3, #7]
 879:.\herkulex2.c ****     dataEx[8] = data[1];
 2974              		.loc 1 879 0
 2975 005a 6278     		ldrb	r2, [r4, #1]	@ zero_extendqisi2
 2976 005c 1A72     		strb	r2, [r3, #8]
 880:.\herkulex2.c ****     dataEx[9] = data[2];
 2977              		.loc 1 880 0
 2978 005e A278     		ldrb	r2, [r4, #2]	@ zero_extendqisi2
 2979 0060 5A72     		strb	r2, [r3, #9]
 881:.\herkulex2.c ****     dataEx[10] = data[3];
ARM GAS  C:\Users\EDTRIC~1\AppData\Local\Temp\ccXQQyjM.s 			page 70


 2980              		.loc 1 881 0
 2981 0062 E278     		ldrb	r2, [r4, #3]	@ zero_extendqisi2
 2982 0064 9A72     		strb	r2, [r3, #10]
 882:.\herkulex2.c ****     
 883:.\herkulex2.c ****     sendData( dataEx , pSize );
 2983              		.loc 1 883 0
 2984 0066 1846     		mov	r0, r3
 2985 0068 FFF7FEFF 		bl	sendData
 2986              	.LVL270:
 2987 006c BDE8F081 		pop	{r4, r5, r6, r7, r8, pc}
 2988              	.L155:
 2989              		.align	2
 2990              	.L154:
 2991 0070 00000000 		.word	pID
 2992 0074 00000000 		.word	cmd
 2993 0078 00000000 		.word	data
 2994 007c 00000000 		.word	lengthString
 2995 0080 00000000 		.word	ck1
 2996 0084 00000000 		.word	ck2
 2997 0088 00000000 		.word	dataEx
 2998 008c 00000000 		.word	pSize
 2999              		.cfi_endproc
 3000              	.LFE90:
 3001              		.size	Servo_writeRegistryRAM, .-Servo_writeRegistryRAM
 3002              		.section	.text.Servo_writeRegistryEEP,"ax",%progbits
 3003              		.align	2
 3004              		.global	Servo_writeRegistryEEP
 3005              		.thumb
 3006              		.thumb_func
 3007              		.type	Servo_writeRegistryEEP, %function
 3008              	Servo_writeRegistryEEP:
 3009              	.LFB91:
 884:.\herkulex2.c **** }
 885:.\herkulex2.c **** 
 886:.\herkulex2.c **** void Servo_writeRegistryEEP( uint8 servoID , uint8 address , uint8 writeByte )
 887:.\herkulex2.c **** {
 3010              		.loc 1 887 0
 3011              		.cfi_startproc
 3012              		@ args = 0, pretend = 0, frame = 0
 3013              		@ frame_needed = 0, uses_anonymous_args = 0
 3014              	.LVL271:
 3015 0000 2DE9F041 		push	{r4, r5, r6, r7, r8, lr}
 3016              		.cfi_def_cfa_offset 24
 3017              		.cfi_offset 4, -24
 3018              		.cfi_offset 5, -20
 3019              		.cfi_offset 6, -16
 3020              		.cfi_offset 7, -12
 3021              		.cfi_offset 8, -8
 3022              		.cfi_offset 14, -4
 888:.\herkulex2.c ****     pSize = 0x0A;
 3023              		.loc 1 888 0
 3024 0004 DFF88480 		ldr	r8, .L158+28
 3025 0008 0A23     		movs	r3, #10
 3026 000a 88F80030 		strb	r3, [r8]
 889:.\herkulex2.c ****     pID = servoID;
 3027              		.loc 1 889 0
 3028 000e 184F     		ldr	r7, .L158
ARM GAS  C:\Users\EDTRIC~1\AppData\Local\Temp\ccXQQyjM.s 			page 71


 3029 0010 3870     		strb	r0, [r7]
 890:.\herkulex2.c ****     cmd = EEP_WRITE;
 3030              		.loc 1 890 0
 3031 0012 184E     		ldr	r6, .L158+4
 3032 0014 0123     		movs	r3, #1
 3033 0016 3370     		strb	r3, [r6]
 891:.\herkulex2.c ****     data[0] = address;
 3034              		.loc 1 891 0
 3035 0018 174C     		ldr	r4, .L158+8
 3036 001a 2170     		strb	r1, [r4]
 892:.\herkulex2.c ****     data[1] = 0x01;
 3037              		.loc 1 892 0
 3038 001c 6370     		strb	r3, [r4, #1]
 893:.\herkulex2.c ****     data[2] = writeByte;
 3039              		.loc 1 893 0
 3040 001e A270     		strb	r2, [r4, #2]
 894:.\herkulex2.c ****     lengthString = 3;
 3041              		.loc 1 894 0
 3042 0020 0321     		movs	r1, #3
 3043              	.LVL272:
 3044 0022 164B     		ldr	r3, .L158+12
 3045 0024 1970     		strb	r1, [r3]
 895:.\herkulex2.c ****     
 896:.\herkulex2.c ****     ck1 = checksum1( data , lengthString );
 3046              		.loc 1 896 0
 3047 0026 2046     		mov	r0, r4
 3048              	.LVL273:
 3049 0028 FFF7FEFF 		bl	checksum1
 3050              	.LVL274:
 3051 002c 0546     		mov	r5, r0
 3052 002e 144B     		ldr	r3, .L158+16
 3053 0030 1870     		strb	r0, [r3]
 897:.\herkulex2.c ****     ck2 = checksum2( ck1 );
 3054              		.loc 1 897 0
 3055 0032 FFF7FEFF 		bl	checksum2
 3056              	.LVL275:
 3057 0036 134B     		ldr	r3, .L158+20
 3058 0038 1870     		strb	r0, [r3]
 898:.\herkulex2.c ****     
 899:.\herkulex2.c ****     dataEx[0] = HEADER;
 3059              		.loc 1 899 0
 3060 003a 134B     		ldr	r3, .L158+24
 3061 003c FF22     		movs	r2, #255
 3062 003e 1A70     		strb	r2, [r3]
 900:.\herkulex2.c ****     dataEx[1] = HEADER;
 3063              		.loc 1 900 0
 3064 0040 5A70     		strb	r2, [r3, #1]
 901:.\herkulex2.c ****     dataEx[2] = pSize;
 3065              		.loc 1 901 0
 3066 0042 98F80010 		ldrb	r1, [r8]	@ zero_extendqisi2
 3067 0046 9970     		strb	r1, [r3, #2]
 902:.\herkulex2.c ****     dataEx[3] = pID;
 3068              		.loc 1 902 0
 3069 0048 3A78     		ldrb	r2, [r7]	@ zero_extendqisi2
 3070 004a DA70     		strb	r2, [r3, #3]
 903:.\herkulex2.c ****     dataEx[4] = cmd;
 3071              		.loc 1 903 0
ARM GAS  C:\Users\EDTRIC~1\AppData\Local\Temp\ccXQQyjM.s 			page 72


 3072 004c 3278     		ldrb	r2, [r6]	@ zero_extendqisi2
 3073 004e 1A71     		strb	r2, [r3, #4]
 904:.\herkulex2.c ****     dataEx[5] = ck1;
 3074              		.loc 1 904 0
 3075 0050 5D71     		strb	r5, [r3, #5]
 905:.\herkulex2.c ****     dataEx[6] = ck2;
 3076              		.loc 1 905 0
 3077 0052 9871     		strb	r0, [r3, #6]
 906:.\herkulex2.c ****     dataEx[7] = data[0];
 3078              		.loc 1 906 0
 3079 0054 2278     		ldrb	r2, [r4]	@ zero_extendqisi2
 3080 0056 DA71     		strb	r2, [r3, #7]
 907:.\herkulex2.c ****     dataEx[8] = data[1];
 3081              		.loc 1 907 0
 3082 0058 6278     		ldrb	r2, [r4, #1]	@ zero_extendqisi2
 3083 005a 1A72     		strb	r2, [r3, #8]
 908:.\herkulex2.c ****     dataEx[9] = data[2];
 3084              		.loc 1 908 0
 3085 005c A278     		ldrb	r2, [r4, #2]	@ zero_extendqisi2
 3086 005e 5A72     		strb	r2, [r3, #9]
 909:.\herkulex2.c ****     dataEx[10] = data[3];
 3087              		.loc 1 909 0
 3088 0060 E278     		ldrb	r2, [r4, #3]	@ zero_extendqisi2
 3089 0062 9A72     		strb	r2, [r3, #10]
 910:.\herkulex2.c ****     
 911:.\herkulex2.c ****     sendData( dataEx , pSize );
 3090              		.loc 1 911 0
 3091 0064 1846     		mov	r0, r3
 3092 0066 FFF7FEFF 		bl	sendData
 3093              	.LVL276:
 3094 006a BDE8F081 		pop	{r4, r5, r6, r7, r8, pc}
 3095              	.L159:
 3096 006e 00BF     		.align	2
 3097              	.L158:
 3098 0070 00000000 		.word	pID
 3099 0074 00000000 		.word	cmd
 3100 0078 00000000 		.word	data
 3101 007c 00000000 		.word	lengthString
 3102 0080 00000000 		.word	ck1
 3103 0084 00000000 		.word	ck2
 3104 0088 00000000 		.word	dataEx
 3105 008c 00000000 		.word	pSize
 3106              		.cfi_endproc
 3107              	.LFE91:
 3108              		.size	Servo_writeRegistryEEP, .-Servo_writeRegistryEEP
 3109              		.comm	moveData,50,4
 3110              		.comm	dataEx,58,4
 3111              		.comm	data,30,4
 3112              		.comm	playTime,4,4
 3113              		.comm	XOR,1,1
 3114              		.comm	conta,1,1
 3115              		.comm	ck2,1,1
 3116              		.comm	ck1,1,1
 3117              		.comm	lengthString,1,1
 3118              		.comm	cmd,1,1
 3119              		.comm	pID,1,1
 3120              		.comm	pSize,1,1
ARM GAS  C:\Users\EDTRIC~1\AppData\Local\Temp\ccXQQyjM.s 			page 73


 3121              		.text
 3122              	.Letext0:
 3123              		.file 2 "c:\\program files (x86)\\cypress\\psoc creator\\3.3\\psoc creator\\import\\gnu\\arm\\4.9.
 3124              		.file 3 "c:\\program files (x86)\\cypress\\psoc creator\\3.3\\psoc creator\\import\\gnu\\arm\\4.9.
 3125              		.file 4 "Generated_Source\\PSoC5/cytypes.h"
 3126              		.file 5 "Generated_Source\\PSoC5/core_cm3.h"
 3127              		.file 6 "Generated_Source\\PSoC5/UART_SRV.h"
 3128              		.file 7 "Generated_Source\\PSoC5/CyLib.h"
 3129              		.section	.debug_info,"",%progbits
 3130              	.Ldebug_info0:
 3131 0000 F3110000 		.4byte	0x11f3
 3132 0004 0400     		.2byte	0x4
 3133 0006 00000000 		.4byte	.Ldebug_abbrev0
 3134 000a 04       		.byte	0x4
 3135 000b 01       		.uleb128 0x1
 3136 000c A6030000 		.4byte	.LASF91
 3137 0010 01       		.byte	0x1
 3138 0011 40000000 		.4byte	.LASF92
 3139 0015 4B020000 		.4byte	.LASF93
 3140 0019 00000000 		.4byte	.Ldebug_ranges0+0
 3141 001d 00000000 		.4byte	0
 3142 0021 00000000 		.4byte	.Ldebug_line0
 3143 0025 02       		.uleb128 0x2
 3144 0026 04       		.byte	0x4
 3145 0027 04       		.byte	0x4
 3146 0028 2A010000 		.4byte	.LASF0
 3147 002c 02       		.uleb128 0x2
 3148 002d 01       		.byte	0x1
 3149 002e 06       		.byte	0x6
 3150 002f 0B020000 		.4byte	.LASF1
 3151 0033 02       		.uleb128 0x2
 3152 0034 01       		.byte	0x1
 3153 0035 08       		.byte	0x8
 3154 0036 ED010000 		.4byte	.LASF2
 3155 003a 02       		.uleb128 0x2
 3156 003b 02       		.byte	0x2
 3157 003c 05       		.byte	0x5
 3158 003d 36000000 		.4byte	.LASF3
 3159 0041 02       		.uleb128 0x2
 3160 0042 02       		.byte	0x2
 3161 0043 07       		.byte	0x7
 3162 0044 ED020000 		.4byte	.LASF4
 3163 0048 03       		.uleb128 0x3
 3164 0049 8F030000 		.4byte	.LASF10
 3165 004d 02       		.byte	0x2
 3166 004e 3F       		.byte	0x3f
 3167 004f 53000000 		.4byte	0x53
 3168 0053 02       		.uleb128 0x2
 3169 0054 04       		.byte	0x4
 3170 0055 05       		.byte	0x5
 3171 0056 B8020000 		.4byte	.LASF5
 3172 005a 02       		.uleb128 0x2
 3173 005b 04       		.byte	0x4
 3174 005c 07       		.byte	0x7
 3175 005d 3F030000 		.4byte	.LASF6
 3176 0061 02       		.uleb128 0x2
 3177 0062 08       		.byte	0x8
ARM GAS  C:\Users\EDTRIC~1\AppData\Local\Temp\ccXQQyjM.s 			page 74


 3178 0063 05       		.byte	0x5
 3179 0064 4C010000 		.4byte	.LASF7
 3180 0068 02       		.uleb128 0x2
 3181 0069 08       		.byte	0x8
 3182 006a 07       		.byte	0x7
 3183 006b 17020000 		.4byte	.LASF8
 3184 006f 04       		.uleb128 0x4
 3185 0070 04       		.byte	0x4
 3186 0071 05       		.byte	0x5
 3187 0072 696E7400 		.ascii	"int\000"
 3188 0076 02       		.uleb128 0x2
 3189 0077 04       		.byte	0x4
 3190 0078 07       		.byte	0x7
 3191 0079 2E020000 		.4byte	.LASF9
 3192 007d 03       		.uleb128 0x3
 3193 007e D8020000 		.4byte	.LASF11
 3194 0082 03       		.byte	0x3
 3195 0083 2C       		.byte	0x2c
 3196 0084 48000000 		.4byte	0x48
 3197 0088 05       		.uleb128 0x5
 3198 0089 0D030000 		.4byte	.LASF12
 3199 008d 04       		.byte	0x4
 3200 008e 3801     		.2byte	0x138
 3201 0090 33000000 		.4byte	0x33
 3202 0094 05       		.uleb128 0x5
 3203 0095 E6000000 		.4byte	.LASF13
 3204 0099 04       		.byte	0x4
 3205 009a 3901     		.2byte	0x139
 3206 009c 41000000 		.4byte	0x41
 3207 00a0 05       		.uleb128 0x5
 3208 00a1 5F030000 		.4byte	.LASF14
 3209 00a5 04       		.byte	0x4
 3210 00a6 3A01     		.2byte	0x13a
 3211 00a8 5A000000 		.4byte	0x5a
 3212 00ac 02       		.uleb128 0x2
 3213 00ad 08       		.byte	0x8
 3214 00ae 04       		.byte	0x4
 3215 00af 1C000000 		.4byte	.LASF15
 3216 00b3 02       		.uleb128 0x2
 3217 00b4 01       		.byte	0x1
 3218 00b5 08       		.byte	0x8
 3219 00b6 AA020000 		.4byte	.LASF16
 3220 00ba 02       		.uleb128 0x2
 3221 00bb 04       		.byte	0x4
 3222 00bc 07       		.byte	0x7
 3223 00bd 50040000 		.4byte	.LASF17
 3224 00c1 06       		.uleb128 0x6
 3225 00c2 74040000 		.4byte	.LASF22
 3226 00c6 01       		.byte	0x1
 3227 00c7 1F       		.byte	0x1f
 3228 00c8 00000000 		.4byte	.LFB63
 3229 00cc 0C000000 		.4byte	.LFE63-.LFB63
 3230 00d0 01       		.uleb128 0x1
 3231 00d1 9C       		.byte	0x9c
 3232 00d2 E9000000 		.4byte	0xe9
 3233 00d6 07       		.uleb128 0x7
 3234 00d7 06000000 		.4byte	.LVL0
ARM GAS  C:\Users\EDTRIC~1\AppData\Local\Temp\ccXQQyjM.s 			page 75


 3235 00db A0110000 		.4byte	0x11a0
 3236 00df 07       		.uleb128 0x7
 3237 00e0 0A000000 		.4byte	.LVL1
 3238 00e4 A7110000 		.4byte	0x11a7
 3239 00e8 00       		.byte	0
 3240 00e9 08       		.uleb128 0x8
 3241 00ea 4E000000 		.4byte	.LASF20
 3242 00ee 01       		.byte	0x1
 3243 00ef 25       		.byte	0x25
 3244 00f0 88000000 		.4byte	0x88
 3245 00f4 00000000 		.4byte	.LFB64
 3246 00f8 48000000 		.4byte	.LFE64-.LFB64
 3247 00fc 01       		.uleb128 0x1
 3248 00fd 9C       		.byte	0x9c
 3249 00fe 2C010000 		.4byte	0x12c
 3250 0102 09       		.uleb128 0x9
 3251 0103 24030000 		.4byte	.LASF18
 3252 0107 01       		.byte	0x1
 3253 0108 25       		.byte	0x25
 3254 0109 2C010000 		.4byte	0x12c
 3255 010d 00000000 		.4byte	.LLST0
 3256 0111 0A       		.uleb128 0xa
 3257 0112 E0020000 		.4byte	.LASF19
 3258 0116 01       		.byte	0x1
 3259 0117 25       		.byte	0x25
 3260 0118 88000000 		.4byte	0x88
 3261 011c 01       		.uleb128 0x1
 3262 011d 51       		.byte	0x51
 3263 011e 0B       		.uleb128 0xb
 3264 011f 6900     		.ascii	"i\000"
 3265 0121 01       		.byte	0x1
 3266 0122 27       		.byte	0x27
 3267 0123 88000000 		.4byte	0x88
 3268 0127 21000000 		.4byte	.LLST1
 3269 012b 00       		.byte	0
 3270 012c 0C       		.uleb128 0xc
 3271 012d 04       		.byte	0x4
 3272 012e 88000000 		.4byte	0x88
 3273 0132 08       		.uleb128 0x8
 3274 0133 58000000 		.4byte	.LASF21
 3275 0137 01       		.byte	0x1
 3276 0138 36       		.byte	0x36
 3277 0139 88000000 		.4byte	0x88
 3278 013d 00000000 		.4byte	.LFB65
 3279 0141 08000000 		.4byte	.LFE65-.LFB65
 3280 0145 01       		.uleb128 0x1
 3281 0146 9C       		.byte	0x9c
 3282 0147 5B010000 		.4byte	0x15b
 3283 014b 0D       		.uleb128 0xd
 3284 014c 584F5200 		.ascii	"XOR\000"
 3285 0150 01       		.byte	0x1
 3286 0151 36       		.byte	0x36
 3287 0152 88000000 		.4byte	0x88
 3288 0156 4B000000 		.4byte	.LLST2
 3289 015a 00       		.byte	0
 3290 015b 06       		.uleb128 0x6
 3291 015c 2D000000 		.4byte	.LASF23
ARM GAS  C:\Users\EDTRIC~1\AppData\Local\Temp\ccXQQyjM.s 			page 76


 3292 0160 01       		.byte	0x1
 3293 0161 4A       		.byte	0x4a
 3294 0162 00000000 		.4byte	.LFB66
 3295 0166 1A000000 		.4byte	.LFE66-.LFB66
 3296 016a 01       		.uleb128 0x1
 3297 016b 9C       		.byte	0x9c
 3298 016c C1010000 		.4byte	0x1c1
 3299 0170 09       		.uleb128 0x9
 3300 0171 32030000 		.4byte	.LASF24
 3301 0175 01       		.byte	0x1
 3302 0176 4A       		.byte	0x4a
 3303 0177 2C010000 		.4byte	0x12c
 3304 017b 6C000000 		.4byte	.LLST3
 3305 017f 09       		.uleb128 0x9
 3306 0180 E6010000 		.4byte	.LASF25
 3307 0184 01       		.byte	0x1
 3308 0185 4A       		.byte	0x4a
 3309 0186 88000000 		.4byte	0x88
 3310 018a 8A000000 		.4byte	.LLST4
 3311 018e 07       		.uleb128 0x7
 3312 018f 0A000000 		.4byte	.LVL12
 3313 0193 C1000000 		.4byte	0xc1
 3314 0197 0E       		.uleb128 0xe
 3315 0198 12000000 		.4byte	.LVL13
 3316 019c AE110000 		.4byte	0x11ae
 3317 01a0 B1010000 		.4byte	0x1b1
 3318 01a4 0F       		.uleb128 0xf
 3319 01a5 01       		.uleb128 0x1
 3320 01a6 51       		.byte	0x51
 3321 01a7 02       		.uleb128 0x2
 3322 01a8 74       		.byte	0x74
 3323 01a9 00       		.sleb128 0
 3324 01aa 0F       		.uleb128 0xf
 3325 01ab 01       		.uleb128 0x1
 3326 01ac 50       		.byte	0x50
 3327 01ad 02       		.uleb128 0x2
 3328 01ae 75       		.byte	0x75
 3329 01af 00       		.sleb128 0
 3330 01b0 00       		.byte	0
 3331 01b1 10       		.uleb128 0x10
 3332 01b2 18000000 		.4byte	.LVL14
 3333 01b6 CF110000 		.4byte	0x11cf
 3334 01ba 0F       		.uleb128 0xf
 3335 01bb 01       		.uleb128 0x1
 3336 01bc 50       		.byte	0x50
 3337 01bd 01       		.uleb128 0x1
 3338 01be 31       		.byte	0x31
 3339 01bf 00       		.byte	0
 3340 01c0 00       		.byte	0
 3341 01c1 06       		.uleb128 0x6
 3342 01c2 30010000 		.4byte	.LASF26
 3343 01c6 01       		.byte	0x1
 3344 01c7 51       		.byte	0x51
 3345 01c8 00000000 		.4byte	.LFB67
 3346 01cc 54000000 		.4byte	.LFE67-.LFB67
 3347 01d0 01       		.uleb128 0x1
 3348 01d1 9C       		.byte	0x9c
ARM GAS  C:\Users\EDTRIC~1\AppData\Local\Temp\ccXQQyjM.s 			page 77


 3349 01d2 65020000 		.4byte	0x265
 3350 01d6 09       		.uleb128 0x9
 3351 01d7 6D030000 		.4byte	.LASF27
 3352 01db 01       		.byte	0x1
 3353 01dc 51       		.byte	0x51
 3354 01dd 88000000 		.4byte	0x88
 3355 01e1 AB000000 		.4byte	.LLST5
 3356 01e5 0B       		.uleb128 0xb
 3357 01e6 6900     		.ascii	"i\000"
 3358 01e8 01       		.byte	0x1
 3359 01e9 53       		.byte	0x53
 3360 01ea 88000000 		.4byte	0x88
 3361 01ee CC000000 		.4byte	.LLST6
 3362 01f2 11       		.uleb128 0x11
 3363 01f3 23000000 		.4byte	.LASF28
 3364 01f7 01       		.byte	0x1
 3365 01f8 54       		.byte	0x54
 3366 01f9 88000000 		.4byte	0x88
 3367 01fd F6000000 		.4byte	.LLST7
 3368 0201 11       		.uleb128 0x11
 3369 0202 CB010000 		.4byte	.LASF29
 3370 0206 01       		.byte	0x1
 3371 0207 55       		.byte	0x55
 3372 0208 88000000 		.4byte	0x88
 3373 020c 20010000 		.4byte	.LLST8
 3374 0210 12       		.uleb128 0x12
 3375 0211 24000000 		.4byte	.LBB2
 3376 0215 1C000000 		.4byte	.LBE2-.LBB2
 3377 0219 36020000 		.4byte	0x236
 3378 021d 11       		.uleb128 0x11
 3379 021e 81010000 		.4byte	.LASF30
 3380 0222 01       		.byte	0x1
 3381 0223 5E       		.byte	0x5e
 3382 0224 88000000 		.4byte	0x88
 3383 0228 4A010000 		.4byte	.LLST9
 3384 022c 07       		.uleb128 0x7
 3385 022d 28000000 		.4byte	.LVL24
 3386 0231 E0110000 		.4byte	0x11e0
 3387 0235 00       		.byte	0
 3388 0236 0E       		.uleb128 0xe
 3389 0237 12000000 		.4byte	.LVL20
 3390 023b CF110000 		.4byte	0x11cf
 3391 023f 49020000 		.4byte	0x249
 3392 0243 0F       		.uleb128 0xf
 3393 0244 01       		.uleb128 0x1
 3394 0245 50       		.byte	0x50
 3395 0246 01       		.uleb128 0x1
 3396 0247 31       		.byte	0x31
 3397 0248 00       		.byte	0
 3398 0249 07       		.uleb128 0x7
 3399 024a 16000000 		.4byte	.LVL21
 3400 024e EB110000 		.4byte	0x11eb
 3401 0252 07       		.uleb128 0x7
 3402 0253 44000000 		.4byte	.LVL30
 3403 0257 EB110000 		.4byte	0x11eb
 3404 025b 07       		.uleb128 0x7
 3405 025c 4C000000 		.4byte	.LVL31
ARM GAS  C:\Users\EDTRIC~1\AppData\Local\Temp\ccXQQyjM.s 			page 78


 3406 0260 C1000000 		.4byte	0xc1
 3407 0264 00       		.byte	0
 3408 0265 06       		.uleb128 0x6
 3409 0266 22010000 		.4byte	.LASF31
 3410 026a 01       		.byte	0x1
 3411 026b 6D       		.byte	0x6d
 3412 026c 00000000 		.4byte	.LFB68
 3413 0270 2C000000 		.4byte	.LFE68-.LFB68
 3414 0274 01       		.uleb128 0x1
 3415 0275 9C       		.byte	0x9c
 3416 0276 B5020000 		.4byte	0x2b5
 3417 027a 09       		.uleb128 0x9
 3418 027b E2040000 		.4byte	.LASF32
 3419 027f 01       		.byte	0x1
 3420 0280 6D       		.byte	0x6d
 3421 0281 6F000000 		.4byte	0x6f
 3422 0285 5D010000 		.4byte	.LLST10
 3423 0289 09       		.uleb128 0x9
 3424 028a 6C040000 		.4byte	.LASF33
 3425 028e 01       		.byte	0x1
 3426 028f 6D       		.byte	0x6d
 3427 0290 6F000000 		.4byte	0x6f
 3428 0294 7E010000 		.4byte	.LLST11
 3429 0298 0D       		.uleb128 0xd
 3430 0299 73657400 		.ascii	"set\000"
 3431 029d 01       		.byte	0x1
 3432 029e 6D       		.byte	0x6d
 3433 029f 88000000 		.4byte	0x88
 3434 02a3 9F010000 		.4byte	.LLST12
 3435 02a7 0A       		.uleb128 0xa
 3436 02a8 C6000000 		.4byte	.LASF34
 3437 02ac 01       		.byte	0x1
 3438 02ad 6D       		.byte	0x6d
 3439 02ae 88000000 		.4byte	0x88
 3440 02b2 01       		.uleb128 0x1
 3441 02b3 53       		.byte	0x53
 3442 02b4 00       		.byte	0
 3443 02b5 08       		.uleb128 0x8
 3444 02b6 A9010000 		.4byte	.LASF35
 3445 02ba 01       		.byte	0x1
 3446 02bb 89       		.byte	0x89
 3447 02bc 88000000 		.4byte	0x88
 3448 02c0 00000000 		.4byte	.LFB70
 3449 02c4 C8000000 		.4byte	.LFE70-.LFB70
 3450 02c8 01       		.uleb128 0x1
 3451 02c9 9C       		.byte	0x9c
 3452 02ca 2D030000 		.4byte	0x32d
 3453 02ce 09       		.uleb128 0x9
 3454 02cf C6000000 		.4byte	.LASF34
 3455 02d3 01       		.byte	0x1
 3456 02d4 89       		.byte	0x89
 3457 02d5 88000000 		.4byte	0x88
 3458 02d9 CF010000 		.4byte	.LLST13
 3459 02dd 0E       		.uleb128 0xe
 3460 02de 4A000000 		.4byte	.LVL40
 3461 02e2 5B010000 		.4byte	0x15b
 3462 02e6 F6020000 		.4byte	0x2f6
ARM GAS  C:\Users\EDTRIC~1\AppData\Local\Temp\ccXQQyjM.s 			page 79


 3463 02ea 0F       		.uleb128 0xf
 3464 02eb 01       		.uleb128 0x1
 3465 02ec 51       		.byte	0x51
 3466 02ed 01       		.uleb128 0x1
 3467 02ee 37       		.byte	0x37
 3468 02ef 0F       		.uleb128 0xf
 3469 02f0 01       		.uleb128 0x1
 3470 02f1 50       		.byte	0x50
 3471 02f2 02       		.uleb128 0x2
 3472 02f3 75       		.byte	0x75
 3473 02f4 00       		.sleb128 0
 3474 02f5 00       		.byte	0
 3475 02f6 0E       		.uleb128 0xe
 3476 02f7 50000000 		.4byte	.LVL41
 3477 02fb CF110000 		.4byte	0x11cf
 3478 02ff 09030000 		.4byte	0x309
 3479 0303 0F       		.uleb128 0xf
 3480 0304 01       		.uleb128 0x1
 3481 0305 50       		.byte	0x50
 3482 0306 01       		.uleb128 0x1
 3483 0307 35       		.byte	0x35
 3484 0308 00       		.byte	0
 3485 0309 0E       		.uleb128 0xe
 3486 030a 56000000 		.4byte	.LVL42
 3487 030e C1010000 		.4byte	0x1c1
 3488 0312 1C030000 		.4byte	0x31c
 3489 0316 0F       		.uleb128 0xf
 3490 0317 01       		.uleb128 0x1
 3491 0318 50       		.byte	0x50
 3492 0319 01       		.uleb128 0x1
 3493 031a 39       		.byte	0x39
 3494 031b 00       		.byte	0
 3495 031c 10       		.uleb128 0x10
 3496 031d 8E000000 		.4byte	.LVL43
 3497 0321 32010000 		.4byte	0x132
 3498 0325 0F       		.uleb128 0xf
 3499 0326 01       		.uleb128 0x1
 3500 0327 50       		.byte	0x50
 3501 0328 02       		.uleb128 0x2
 3502 0329 74       		.byte	0x74
 3503 032a 00       		.sleb128 0
 3504 032b 00       		.byte	0
 3505 032c 00       		.byte	0
 3506 032d 06       		.uleb128 0x6
 3507 032e B6010000 		.4byte	.LASF36
 3508 0332 01       		.byte	0x1
 3509 0333 AE       		.byte	0xae
 3510 0334 00000000 		.4byte	.LFB71
 3511 0338 90000000 		.4byte	.LFE71-.LFB71
 3512 033c 01       		.uleb128 0x1
 3513 033d 9C       		.byte	0x9c
 3514 033e 92030000 		.4byte	0x392
 3515 0342 09       		.uleb128 0x9
 3516 0343 C6000000 		.4byte	.LASF34
 3517 0347 01       		.byte	0x1
 3518 0348 AE       		.byte	0xae
 3519 0349 88000000 		.4byte	0x88
ARM GAS  C:\Users\EDTRIC~1\AppData\Local\Temp\ccXQQyjM.s 			page 80


 3520 034d FF010000 		.4byte	.LLST14
 3521 0351 0E       		.uleb128 0xe
 3522 0352 30000000 		.4byte	.LVL46
 3523 0356 E9000000 		.4byte	0xe9
 3524 035a 6A030000 		.4byte	0x36a
 3525 035e 0F       		.uleb128 0xf
 3526 035f 01       		.uleb128 0x1
 3527 0360 51       		.byte	0x51
 3528 0361 01       		.uleb128 0x1
 3529 0362 33       		.byte	0x33
 3530 0363 0F       		.uleb128 0xf
 3531 0364 01       		.uleb128 0x1
 3532 0365 50       		.byte	0x50
 3533 0366 02       		.uleb128 0x2
 3534 0367 74       		.byte	0x74
 3535 0368 00       		.sleb128 0
 3536 0369 00       		.byte	0
 3537 036a 0E       		.uleb128 0xe
 3538 036b 3A000000 		.4byte	.LVL47
 3539 036f 32010000 		.4byte	0x132
 3540 0373 7E030000 		.4byte	0x37e
 3541 0377 0F       		.uleb128 0xf
 3542 0378 01       		.uleb128 0x1
 3543 0379 50       		.byte	0x50
 3544 037a 02       		.uleb128 0x2
 3545 037b 75       		.byte	0x75
 3546 037c 00       		.sleb128 0
 3547 037d 00       		.byte	0
 3548 037e 10       		.uleb128 0x10
 3549 037f 6A000000 		.4byte	.LVL48
 3550 0383 5B010000 		.4byte	0x15b
 3551 0387 0F       		.uleb128 0xf
 3552 0388 01       		.uleb128 0x1
 3553 0389 50       		.byte	0x50
 3554 038a 05       		.uleb128 0x5
 3555 038b 03       		.byte	0x3
 3556 038c 00000000 		.4byte	dataEx
 3557 0390 00       		.byte	0
 3558 0391 00       		.byte	0
 3559 0392 06       		.uleb128 0x6
 3560 0393 0C000000 		.4byte	.LASF37
 3561 0397 01       		.byte	0x1
 3562 0398 C9       		.byte	0xc9
 3563 0399 00000000 		.4byte	.LFB72
 3564 039d 90000000 		.4byte	.LFE72-.LFB72
 3565 03a1 01       		.uleb128 0x1
 3566 03a2 9C       		.byte	0x9c
 3567 03a3 F7030000 		.4byte	0x3f7
 3568 03a7 09       		.uleb128 0x9
 3569 03a8 C6000000 		.4byte	.LASF34
 3570 03ac 01       		.byte	0x1
 3571 03ad C9       		.byte	0xc9
 3572 03ae 88000000 		.4byte	0x88
 3573 03b2 2F020000 		.4byte	.LLST15
 3574 03b6 0E       		.uleb128 0xe
 3575 03b7 30000000 		.4byte	.LVL51
 3576 03bb E9000000 		.4byte	0xe9
ARM GAS  C:\Users\EDTRIC~1\AppData\Local\Temp\ccXQQyjM.s 			page 81


 3577 03bf CF030000 		.4byte	0x3cf
 3578 03c3 0F       		.uleb128 0xf
 3579 03c4 01       		.uleb128 0x1
 3580 03c5 51       		.byte	0x51
 3581 03c6 01       		.uleb128 0x1
 3582 03c7 33       		.byte	0x33
 3583 03c8 0F       		.uleb128 0xf
 3584 03c9 01       		.uleb128 0x1
 3585 03ca 50       		.byte	0x50
 3586 03cb 02       		.uleb128 0x2
 3587 03cc 74       		.byte	0x74
 3588 03cd 00       		.sleb128 0
 3589 03ce 00       		.byte	0
 3590 03cf 0E       		.uleb128 0xe
 3591 03d0 3A000000 		.4byte	.LVL52
 3592 03d4 32010000 		.4byte	0x132
 3593 03d8 E3030000 		.4byte	0x3e3
 3594 03dc 0F       		.uleb128 0xf
 3595 03dd 01       		.uleb128 0x1
 3596 03de 50       		.byte	0x50
 3597 03df 02       		.uleb128 0x2
 3598 03e0 75       		.byte	0x75
 3599 03e1 00       		.sleb128 0
 3600 03e2 00       		.byte	0
 3601 03e3 10       		.uleb128 0x10
 3602 03e4 6A000000 		.4byte	.LVL53
 3603 03e8 5B010000 		.4byte	0x15b
 3604 03ec 0F       		.uleb128 0xf
 3605 03ed 01       		.uleb128 0x1
 3606 03ee 50       		.byte	0x50
 3607 03ef 05       		.uleb128 0x5
 3608 03f0 03       		.byte	0x3
 3609 03f1 00000000 		.4byte	dataEx
 3610 03f5 00       		.byte	0
 3611 03f6 00       		.byte	0
 3612 03f7 06       		.uleb128 0x6
 3613 03f8 3B020000 		.4byte	.LASF38
 3614 03fc 01       		.byte	0x1
 3615 03fd E4       		.byte	0xe4
 3616 03fe 00000000 		.4byte	.LFB73
 3617 0402 90000000 		.4byte	.LFE73-.LFB73
 3618 0406 01       		.uleb128 0x1
 3619 0407 9C       		.byte	0x9c
 3620 0408 5C040000 		.4byte	0x45c
 3621 040c 09       		.uleb128 0x9
 3622 040d EA040000 		.4byte	.LASF39
 3623 0411 01       		.byte	0x1
 3624 0412 E4       		.byte	0xe4
 3625 0413 88000000 		.4byte	0x88
 3626 0417 5F020000 		.4byte	.LLST16
 3627 041b 0E       		.uleb128 0xe
 3628 041c 30000000 		.4byte	.LVL56
 3629 0420 E9000000 		.4byte	0xe9
 3630 0424 34040000 		.4byte	0x434
 3631 0428 0F       		.uleb128 0xf
 3632 0429 01       		.uleb128 0x1
 3633 042a 51       		.byte	0x51
ARM GAS  C:\Users\EDTRIC~1\AppData\Local\Temp\ccXQQyjM.s 			page 82


 3634 042b 01       		.uleb128 0x1
 3635 042c 33       		.byte	0x33
 3636 042d 0F       		.uleb128 0xf
 3637 042e 01       		.uleb128 0x1
 3638 042f 50       		.byte	0x50
 3639 0430 02       		.uleb128 0x2
 3640 0431 74       		.byte	0x74
 3641 0432 00       		.sleb128 0
 3642 0433 00       		.byte	0
 3643 0434 0E       		.uleb128 0xe
 3644 0435 3A000000 		.4byte	.LVL57
 3645 0439 32010000 		.4byte	0x132
 3646 043d 48040000 		.4byte	0x448
 3647 0441 0F       		.uleb128 0xf
 3648 0442 01       		.uleb128 0x1
 3649 0443 50       		.byte	0x50
 3650 0444 02       		.uleb128 0x2
 3651 0445 75       		.byte	0x75
 3652 0446 00       		.sleb128 0
 3653 0447 00       		.byte	0
 3654 0448 10       		.uleb128 0x10
 3655 0449 6A000000 		.4byte	.LVL58
 3656 044d 5B010000 		.4byte	0x15b
 3657 0451 0F       		.uleb128 0xf
 3658 0452 01       		.uleb128 0x1
 3659 0453 50       		.byte	0x50
 3660 0454 05       		.uleb128 0x5
 3661 0455 03       		.byte	0x3
 3662 0456 00000000 		.4byte	dataEx
 3663 045a 00       		.byte	0
 3664 045b 00       		.byte	0
 3665 045c 08       		.uleb128 0x8
 3666 045d 0C010000 		.4byte	.LASF40
 3667 0461 01       		.byte	0x1
 3668 0462 FF       		.byte	0xff
 3669 0463 88000000 		.4byte	0x88
 3670 0467 00000000 		.4byte	.LFB74
 3671 046b F0000000 		.4byte	.LFE74-.LFB74
 3672 046f 01       		.uleb128 0x1
 3673 0470 9C       		.byte	0x9c
 3674 0471 09050000 		.4byte	0x509
 3675 0475 0E       		.uleb128 0xe
 3676 0476 38000000 		.4byte	.LVL59
 3677 047a E9000000 		.4byte	0xe9
 3678 047e 8E040000 		.4byte	0x48e
 3679 0482 0F       		.uleb128 0xf
 3680 0483 01       		.uleb128 0x1
 3681 0484 51       		.byte	0x51
 3682 0485 01       		.uleb128 0x1
 3683 0486 32       		.byte	0x32
 3684 0487 0F       		.uleb128 0xf
 3685 0488 01       		.uleb128 0x1
 3686 0489 50       		.byte	0x50
 3687 048a 02       		.uleb128 0x2
 3688 048b 75       		.byte	0x75
 3689 048c 00       		.sleb128 0
 3690 048d 00       		.byte	0
ARM GAS  C:\Users\EDTRIC~1\AppData\Local\Temp\ccXQQyjM.s 			page 83


 3691 048e 0E       		.uleb128 0xe
 3692 048f 46000000 		.4byte	.LVL60
 3693 0493 32010000 		.4byte	0x132
 3694 0497 A4040000 		.4byte	0x4a4
 3695 049b 0F       		.uleb128 0xf
 3696 049c 01       		.uleb128 0x1
 3697 049d 50       		.byte	0x50
 3698 049e 04       		.uleb128 0x4
 3699 049f 91       		.byte	0x91
 3700 04a0 54       		.sleb128 -44
 3701 04a1 94       		.byte	0x94
 3702 04a2 01       		.byte	0x1
 3703 04a3 00       		.byte	0
 3704 04a4 0E       		.uleb128 0xe
 3705 04a5 78000000 		.4byte	.LVL61
 3706 04a9 5B010000 		.4byte	0x15b
 3707 04ad B8040000 		.4byte	0x4b8
 3708 04b1 0F       		.uleb128 0xf
 3709 04b2 01       		.uleb128 0x1
 3710 04b3 50       		.byte	0x50
 3711 04b4 02       		.uleb128 0x2
 3712 04b5 74       		.byte	0x74
 3713 04b6 00       		.sleb128 0
 3714 04b7 00       		.byte	0
 3715 04b8 0E       		.uleb128 0xe
 3716 04b9 7E000000 		.4byte	.LVL62
 3717 04bd CF110000 		.4byte	0x11cf
 3718 04c1 CB040000 		.4byte	0x4cb
 3719 04c5 0F       		.uleb128 0xf
 3720 04c6 01       		.uleb128 0x1
 3721 04c7 50       		.byte	0x50
 3722 04c8 01       		.uleb128 0x1
 3723 04c9 35       		.byte	0x35
 3724 04ca 00       		.byte	0
 3725 04cb 0E       		.uleb128 0xe
 3726 04cc 84000000 		.4byte	.LVL63
 3727 04d0 C1010000 		.4byte	0x1c1
 3728 04d4 DE040000 		.4byte	0x4de
 3729 04d8 0F       		.uleb128 0xf
 3730 04d9 01       		.uleb128 0x1
 3731 04da 50       		.byte	0x50
 3732 04db 01       		.uleb128 0x1
 3733 04dc 39       		.byte	0x39
 3734 04dd 00       		.byte	0
 3735 04de 0E       		.uleb128 0xe
 3736 04df A4000000 		.4byte	.LVL64
 3737 04e3 E9000000 		.4byte	0xe9
 3738 04e7 F8040000 		.4byte	0x4f8
 3739 04eb 0F       		.uleb128 0xf
 3740 04ec 01       		.uleb128 0x1
 3741 04ed 51       		.byte	0x51
 3742 04ee 02       		.uleb128 0x2
 3743 04ef 76       		.byte	0x76
 3744 04f0 00       		.sleb128 0
 3745 04f1 0F       		.uleb128 0xf
 3746 04f2 01       		.uleb128 0x1
 3747 04f3 50       		.byte	0x50
ARM GAS  C:\Users\EDTRIC~1\AppData\Local\Temp\ccXQQyjM.s 			page 84


 3748 04f4 02       		.uleb128 0x2
 3749 04f5 75       		.byte	0x75
 3750 04f6 00       		.sleb128 0
 3751 04f7 00       		.byte	0
 3752 04f8 10       		.uleb128 0x10
 3753 04f9 AE000000 		.4byte	.LVL65
 3754 04fd 32010000 		.4byte	0x132
 3755 0501 0F       		.uleb128 0xf
 3756 0502 01       		.uleb128 0x1
 3757 0503 50       		.byte	0x50
 3758 0504 02       		.uleb128 0x2
 3759 0505 75       		.byte	0x75
 3760 0506 00       		.sleb128 0
 3761 0507 00       		.byte	0
 3762 0508 00       		.byte	0
 3763 0509 13       		.uleb128 0x13
 3764 050a 67010000 		.4byte	.LASF41
 3765 050e 01       		.byte	0x1
 3766 050f 2801     		.2byte	0x128
 3767 0511 00000000 		.4byte	.LFB75
 3768 0515 8C000000 		.4byte	.LFE75-.LFB75
 3769 0519 01       		.uleb128 0x1
 3770 051a 9C       		.byte	0x9c
 3771 051b 80050000 		.4byte	0x580
 3772 051f 14       		.uleb128 0x14
 3773 0520 74000000 		.4byte	.LASF42
 3774 0524 01       		.byte	0x1
 3775 0525 2801     		.2byte	0x128
 3776 0527 88000000 		.4byte	0x88
 3777 052b 8F020000 		.4byte	.LLST17
 3778 052f 14       		.uleb128 0x14
 3779 0530 D7010000 		.4byte	.LASF43
 3780 0534 01       		.byte	0x1
 3781 0535 2801     		.2byte	0x128
 3782 0537 88000000 		.4byte	0x88
 3783 053b BF020000 		.4byte	.LLST18
 3784 053f 0E       		.uleb128 0xe
 3785 0540 2E000000 		.4byte	.LVL69
 3786 0544 E9000000 		.4byte	0xe9
 3787 0548 58050000 		.4byte	0x558
 3788 054c 0F       		.uleb128 0xf
 3789 054d 01       		.uleb128 0x1
 3790 054e 51       		.byte	0x51
 3791 054f 01       		.uleb128 0x1
 3792 0550 33       		.byte	0x33
 3793 0551 0F       		.uleb128 0xf
 3794 0552 01       		.uleb128 0x1
 3795 0553 50       		.byte	0x50
 3796 0554 02       		.uleb128 0x2
 3797 0555 74       		.byte	0x74
 3798 0556 00       		.sleb128 0
 3799 0557 00       		.byte	0
 3800 0558 0E       		.uleb128 0xe
 3801 0559 38000000 		.4byte	.LVL70
 3802 055d 32010000 		.4byte	0x132
 3803 0561 6C050000 		.4byte	0x56c
 3804 0565 0F       		.uleb128 0xf
ARM GAS  C:\Users\EDTRIC~1\AppData\Local\Temp\ccXQQyjM.s 			page 85


 3805 0566 01       		.uleb128 0x1
 3806 0567 50       		.byte	0x50
 3807 0568 02       		.uleb128 0x2
 3808 0569 75       		.byte	0x75
 3809 056a 00       		.sleb128 0
 3810 056b 00       		.byte	0
 3811 056c 10       		.uleb128 0x10
 3812 056d 68000000 		.4byte	.LVL71
 3813 0571 5B010000 		.4byte	0x15b
 3814 0575 0F       		.uleb128 0xf
 3815 0576 01       		.uleb128 0x1
 3816 0577 50       		.byte	0x50
 3817 0578 05       		.uleb128 0x5
 3818 0579 03       		.byte	0x3
 3819 057a 00000000 		.4byte	dataEx
 3820 057e 00       		.byte	0
 3821 057f 00       		.byte	0
 3822 0580 13       		.uleb128 0x13
 3823 0581 51030000 		.4byte	.LASF44
 3824 0585 01       		.byte	0x1
 3825 0586 4301     		.2byte	0x143
 3826 0588 00000000 		.4byte	.LFB76
 3827 058c B4000000 		.4byte	.LFE76-.LFB76
 3828 0590 01       		.uleb128 0x1
 3829 0591 9C       		.byte	0x9c
 3830 0592 2A060000 		.4byte	0x62a
 3831 0596 15       		.uleb128 0x15
 3832 0597 6900     		.ascii	"i\000"
 3833 0599 01       		.byte	0x1
 3834 059a 4501     		.2byte	0x145
 3835 059c 88000000 		.4byte	0x88
 3836 05a0 EF020000 		.4byte	.LLST19
 3837 05a4 0E       		.uleb128 0xe
 3838 05a5 34000000 		.4byte	.LVL74
 3839 05a9 E9000000 		.4byte	0xe9
 3840 05ad B8050000 		.4byte	0x5b8
 3841 05b1 0F       		.uleb128 0xf
 3842 05b2 01       		.uleb128 0x1
 3843 05b3 50       		.byte	0x50
 3844 05b4 02       		.uleb128 0x2
 3845 05b5 76       		.byte	0x76
 3846 05b6 00       		.sleb128 0
 3847 05b7 00       		.byte	0
 3848 05b8 0E       		.uleb128 0xe
 3849 05b9 3E000000 		.4byte	.LVL75
 3850 05bd 32010000 		.4byte	0x132
 3851 05c1 CC050000 		.4byte	0x5cc
 3852 05c5 0F       		.uleb128 0xf
 3853 05c6 01       		.uleb128 0x1
 3854 05c7 50       		.byte	0x50
 3855 05c8 02       		.uleb128 0x2
 3856 05c9 77       		.byte	0x77
 3857 05ca 00       		.sleb128 0
 3858 05cb 00       		.byte	0
 3859 05cc 0E       		.uleb128 0xe
 3860 05cd 6E000000 		.4byte	.LVL76
 3861 05d1 5B010000 		.4byte	0x15b
ARM GAS  C:\Users\EDTRIC~1\AppData\Local\Temp\ccXQQyjM.s 			page 86


 3862 05d5 E0050000 		.4byte	0x5e0
 3863 05d9 0F       		.uleb128 0xf
 3864 05da 01       		.uleb128 0x1
 3865 05db 50       		.byte	0x50
 3866 05dc 02       		.uleb128 0x2
 3867 05dd 74       		.byte	0x74
 3868 05de 00       		.sleb128 0
 3869 05df 00       		.byte	0
 3870 05e0 0E       		.uleb128 0xe
 3871 05e1 74000000 		.4byte	.LVL77
 3872 05e5 CF110000 		.4byte	0x11cf
 3873 05e9 F3050000 		.4byte	0x5f3
 3874 05ed 0F       		.uleb128 0xf
 3875 05ee 01       		.uleb128 0x1
 3876 05ef 50       		.byte	0x50
 3877 05f0 01       		.uleb128 0x1
 3878 05f1 35       		.byte	0x35
 3879 05f2 00       		.byte	0
 3880 05f3 0E       		.uleb128 0xe
 3881 05f4 7A000000 		.4byte	.LVL78
 3882 05f8 C1010000 		.4byte	0x1c1
 3883 05fc 06060000 		.4byte	0x606
 3884 0600 0F       		.uleb128 0xf
 3885 0601 01       		.uleb128 0x1
 3886 0602 50       		.byte	0x50
 3887 0603 01       		.uleb128 0x1
 3888 0604 3F       		.byte	0x3f
 3889 0605 00       		.byte	0
 3890 0606 0E       		.uleb128 0xe
 3891 0607 80000000 		.4byte	.LVL79
 3892 060b CF110000 		.4byte	0x11cf
 3893 060f 19060000 		.4byte	0x619
 3894 0613 0F       		.uleb128 0xf
 3895 0614 01       		.uleb128 0x1
 3896 0615 50       		.byte	0x50
 3897 0616 01       		.uleb128 0x1
 3898 0617 3A       		.byte	0x3a
 3899 0618 00       		.byte	0
 3900 0619 10       		.uleb128 0x10
 3901 061a 88000000 		.4byte	.LVL80
 3902 061e 09050000 		.4byte	0x509
 3903 0622 0F       		.uleb128 0xf
 3904 0623 01       		.uleb128 0x1
 3905 0624 51       		.byte	0x51
 3906 0625 02       		.uleb128 0x2
 3907 0626 09       		.byte	0x9
 3908 0627 FD       		.byte	0xfd
 3909 0628 00       		.byte	0
 3910 0629 00       		.byte	0
 3911 062a 13       		.uleb128 0x13
 3912 062b 99000000 		.4byte	.LASF45
 3913 062f 01       		.byte	0x1
 3914 0630 6501     		.2byte	0x165
 3915 0632 00000000 		.4byte	.LFB77
 3916 0636 98000000 		.4byte	.LFE77-.LFB77
 3917 063a 01       		.uleb128 0x1
 3918 063b 9C       		.byte	0x9c
ARM GAS  C:\Users\EDTRIC~1\AppData\Local\Temp\ccXQQyjM.s 			page 87


 3919 063c 91060000 		.4byte	0x691
 3920 0640 14       		.uleb128 0x14
 3921 0641 C6000000 		.4byte	.LASF34
 3922 0645 01       		.byte	0x1
 3923 0646 6501     		.2byte	0x165
 3924 0648 88000000 		.4byte	0x88
 3925 064c 19030000 		.4byte	.LLST20
 3926 0650 0E       		.uleb128 0xe
 3927 0651 34000000 		.4byte	.LVL86
 3928 0655 E9000000 		.4byte	0xe9
 3929 0659 69060000 		.4byte	0x669
 3930 065d 0F       		.uleb128 0xf
 3931 065e 01       		.uleb128 0x1
 3932 065f 51       		.byte	0x51
 3933 0660 01       		.uleb128 0x1
 3934 0661 34       		.byte	0x34
 3935 0662 0F       		.uleb128 0xf
 3936 0663 01       		.uleb128 0x1
 3937 0664 50       		.byte	0x50
 3938 0665 02       		.uleb128 0x2
 3939 0666 74       		.byte	0x74
 3940 0667 00       		.sleb128 0
 3941 0668 00       		.byte	0
 3942 0669 0E       		.uleb128 0xe
 3943 066a 3E000000 		.4byte	.LVL87
 3944 066e 32010000 		.4byte	0x132
 3945 0672 7D060000 		.4byte	0x67d
 3946 0676 0F       		.uleb128 0xf
 3947 0677 01       		.uleb128 0x1
 3948 0678 50       		.byte	0x50
 3949 0679 02       		.uleb128 0x2
 3950 067a 75       		.byte	0x75
 3951 067b 00       		.sleb128 0
 3952 067c 00       		.byte	0
 3953 067d 10       		.uleb128 0x10
 3954 067e 72000000 		.4byte	.LVL88
 3955 0682 5B010000 		.4byte	0x15b
 3956 0686 0F       		.uleb128 0xf
 3957 0687 01       		.uleb128 0x1
 3958 0688 50       		.byte	0x50
 3959 0689 05       		.uleb128 0x5
 3960 068a 03       		.byte	0x3
 3961 068b 00000000 		.4byte	dataEx
 3962 068f 00       		.byte	0
 3963 0690 00       		.byte	0
 3964 0691 13       		.uleb128 0x13
 3965 0692 93040000 		.4byte	.LASF46
 3966 0696 01       		.byte	0x1
 3967 0697 8201     		.2byte	0x182
 3968 0699 00000000 		.4byte	.LFB78
 3969 069d 50000000 		.4byte	.LFE78-.LFB78
 3970 06a1 01       		.uleb128 0x1
 3971 06a2 9C       		.byte	0x9c
 3972 06a3 70070000 		.4byte	0x770
 3973 06a7 14       		.uleb128 0x14
 3974 06a8 C6000000 		.4byte	.LASF34
 3975 06ac 01       		.byte	0x1
ARM GAS  C:\Users\EDTRIC~1\AppData\Local\Temp\ccXQQyjM.s 			page 88


 3976 06ad 8201     		.2byte	0x182
 3977 06af 88000000 		.4byte	0x88
 3978 06b3 49030000 		.4byte	.LLST21
 3979 06b7 14       		.uleb128 0x14
 3980 06b8 34040000 		.4byte	.LASF47
 3981 06bc 01       		.byte	0x1
 3982 06bd 8201     		.2byte	0x182
 3983 06bf 6F000000 		.4byte	0x6f
 3984 06c3 75030000 		.4byte	.LLST22
 3985 06c7 16       		.uleb128 0x16
 3986 06c8 4C454400 		.ascii	"LED\000"
 3987 06cc 01       		.byte	0x1
 3988 06cd 8201     		.2byte	0x182
 3989 06cf 88000000 		.4byte	0x88
 3990 06d3 A1030000 		.4byte	.LLST23
 3991 06d7 17       		.uleb128 0x17
 3992 06d8 AA000000 		.4byte	.LASF48
 3993 06dc 01       		.byte	0x1
 3994 06dd 8601     		.2byte	0x186
 3995 06df 88000000 		.4byte	0x88
 3996 06e3 18040000 		.4byte	.LLST24
 3997 06e7 17       		.uleb128 0x17
 3998 06e8 A5020000 		.4byte	.LASF49
 3999 06ec 01       		.byte	0x1
 4000 06ed 8701     		.2byte	0x187
 4001 06ef 88000000 		.4byte	0x88
 4002 06f3 18040000 		.4byte	.LLST24
 4003 06f7 17       		.uleb128 0x17
 4004 06f8 C8040000 		.4byte	.LASF50
 4005 06fc 01       		.byte	0x1
 4006 06fd 8901     		.2byte	0x189
 4007 06ff 6F000000 		.4byte	0x6f
 4008 0703 2C040000 		.4byte	.LLST26
 4009 0707 17       		.uleb128 0x17
 4010 0708 66030000 		.4byte	.LASF51
 4011 070c 01       		.byte	0x1
 4012 070d 8A01     		.2byte	0x18a
 4013 070f 6F000000 		.4byte	0x6f
 4014 0713 50040000 		.4byte	.LLST27
 4015 0717 17       		.uleb128 0x17
 4016 0718 CE000000 		.4byte	.LASF52
 4017 071c 01       		.byte	0x1
 4018 071d 8C01     		.2byte	0x18c
 4019 071f 88000000 		.4byte	0x88
 4020 0723 77040000 		.4byte	.LLST28
 4021 0727 17       		.uleb128 0x17
 4022 0728 C5010000 		.4byte	.LASF53
 4023 072c 01       		.byte	0x1
 4024 072d 8D01     		.2byte	0x18d
 4025 072f 88000000 		.4byte	0x88
 4026 0733 AE040000 		.4byte	.LLST29
 4027 0737 15       		.uleb128 0x15
 4028 0738 72656400 		.ascii	"red\000"
 4029 073c 01       		.byte	0x1
 4030 073d 8E01     		.2byte	0x18e
 4031 073f 88000000 		.4byte	0x88
 4032 0743 CD040000 		.4byte	.LLST30
ARM GAS  C:\Users\EDTRIC~1\AppData\Local\Temp\ccXQQyjM.s 			page 89


 4033 0747 17       		.uleb128 0x17
 4034 0748 AF020000 		.4byte	.LASF54
 4035 074c 01       		.byte	0x1
 4036 074d 9D01     		.2byte	0x19d
 4037 074f 6F000000 		.4byte	0x6f
 4038 0753 04050000 		.4byte	.LLST31
 4039 0757 10       		.uleb128 0x10
 4040 0758 4C000000 		.4byte	.LVL104
 4041 075c 65020000 		.4byte	0x265
 4042 0760 0F       		.uleb128 0xf
 4043 0761 01       		.uleb128 0x1
 4044 0762 52       		.byte	0x52
 4045 0763 0A       		.uleb128 0xa
 4046 0764 75       		.byte	0x75
 4047 0765 00       		.sleb128 0
 4048 0766 34       		.byte	0x34
 4049 0767 24       		.byte	0x24
 4050 0768 74       		.byte	0x74
 4051 0769 00       		.sleb128 0
 4052 076a 22       		.byte	0x22
 4053 076b 08       		.byte	0x8
 4054 076c FC       		.byte	0xfc
 4055 076d 1A       		.byte	0x1a
 4056 076e 00       		.byte	0
 4057 076f 00       		.byte	0
 4058 0770 18       		.uleb128 0x18
 4059 0771 CF040000 		.4byte	.LASF55
 4060 0775 01       		.byte	0x1
 4061 0776 A201     		.2byte	0x1a2
 4062 0778 00000000 		.4byte	.LFB79
 4063 077c 50000000 		.4byte	.LFE79-.LFB79
 4064 0780 01       		.uleb128 0x1
 4065 0781 9C       		.byte	0x9c
 4066 0782 DD070000 		.4byte	0x7dd
 4067 0786 14       		.uleb128 0x14
 4068 0787 C6000000 		.4byte	.LASF34
 4069 078b 01       		.byte	0x1
 4070 078c A201     		.2byte	0x1a2
 4071 078e 88000000 		.4byte	0x88
 4072 0792 29050000 		.4byte	.LLST32
 4073 0796 14       		.uleb128 0x14
 4074 0797 59040000 		.4byte	.LASF56
 4075 079b 01       		.byte	0x1
 4076 079c A201     		.2byte	0x1a2
 4077 079e 25000000 		.4byte	0x25
 4078 07a2 4A050000 		.4byte	.LLST33
 4079 07a6 16       		.uleb128 0x16
 4080 07a7 4C454400 		.ascii	"LED\000"
 4081 07ab 01       		.byte	0x1
 4082 07ac A201     		.2byte	0x1a2
 4083 07ae 88000000 		.4byte	0x88
 4084 07b2 83050000 		.4byte	.LLST34
 4085 07b6 17       		.uleb128 0x17
 4086 07b7 DD010000 		.4byte	.LASF57
 4087 07bb 01       		.byte	0x1
 4088 07bc A501     		.2byte	0x1a5
 4089 07be 6F000000 		.4byte	0x6f
ARM GAS  C:\Users\EDTRIC~1\AppData\Local\Temp\ccXQQyjM.s 			page 90


 4090 07c2 A4050000 		.4byte	.LLST35
 4091 07c6 10       		.uleb128 0x10
 4092 07c7 3C000000 		.4byte	.LVL115
 4093 07cb 91060000 		.4byte	0x691
 4094 07cf 0F       		.uleb128 0xf
 4095 07d0 01       		.uleb128 0x1
 4096 07d1 52       		.byte	0x52
 4097 07d2 02       		.uleb128 0x2
 4098 07d3 75       		.byte	0x75
 4099 07d4 00       		.sleb128 0
 4100 07d5 0F       		.uleb128 0xf
 4101 07d6 01       		.uleb128 0x1
 4102 07d7 50       		.byte	0x50
 4103 07d8 02       		.uleb128 0x2
 4104 07d9 76       		.byte	0x76
 4105 07da 00       		.sleb128 0
 4106 07db 00       		.byte	0
 4107 07dc 00       		.byte	0
 4108 07dd 13       		.uleb128 0x13
 4109 07de 39010000 		.4byte	.LASF58
 4110 07e2 01       		.byte	0x1
 4111 07e3 A901     		.2byte	0x1a9
 4112 07e5 00000000 		.4byte	.LFB80
 4113 07e9 60000000 		.4byte	.LFE80-.LFB80
 4114 07ed 01       		.uleb128 0x1
 4115 07ee 9C       		.byte	0x9c
 4116 07ef CC080000 		.4byte	0x8cc
 4117 07f3 14       		.uleb128 0x14
 4118 07f4 C6000000 		.4byte	.LASF34
 4119 07f8 01       		.byte	0x1
 4120 07f9 A901     		.2byte	0x1a9
 4121 07fb 88000000 		.4byte	0x88
 4122 07ff B7050000 		.4byte	.LLST36
 4123 0803 14       		.uleb128 0x14
 4124 0804 34040000 		.4byte	.LASF47
 4125 0808 01       		.byte	0x1
 4126 0809 A901     		.2byte	0x1a9
 4127 080b 6F000000 		.4byte	0x6f
 4128 080f D8050000 		.4byte	.LLST37
 4129 0813 16       		.uleb128 0x16
 4130 0814 4C454400 		.ascii	"LED\000"
 4131 0818 01       		.byte	0x1
 4132 0819 A901     		.2byte	0x1a9
 4133 081b 88000000 		.4byte	0x88
 4134 081f 15060000 		.4byte	.LLST38
 4135 0823 17       		.uleb128 0x17
 4136 0824 AA000000 		.4byte	.LASF48
 4137 0828 01       		.byte	0x1
 4138 0829 AD01     		.2byte	0x1ad
 4139 082b 88000000 		.4byte	0x88
 4140 082f 81060000 		.4byte	.LLST39
 4141 0833 17       		.uleb128 0x17
 4142 0834 A5020000 		.4byte	.LASF49
 4143 0838 01       		.byte	0x1
 4144 0839 AE01     		.2byte	0x1ae
 4145 083b 88000000 		.4byte	0x88
 4146 083f 95060000 		.4byte	.LLST40
ARM GAS  C:\Users\EDTRIC~1\AppData\Local\Temp\ccXQQyjM.s 			page 91


 4147 0843 17       		.uleb128 0x17
 4148 0844 73010000 		.4byte	.LASF59
 4149 0848 01       		.byte	0x1
 4150 0849 B001     		.2byte	0x1b0
 4151 084b 6F000000 		.4byte	0x6f
 4152 084f A9060000 		.4byte	.LLST41
 4153 0853 17       		.uleb128 0x17
 4154 0854 5A010000 		.4byte	.LASF60
 4155 0858 01       		.byte	0x1
 4156 0859 BB01     		.2byte	0x1bb
 4157 085b 6F000000 		.4byte	0x6f
 4158 085f BC060000 		.4byte	.LLST42
 4159 0863 17       		.uleb128 0x17
 4160 0864 99030000 		.4byte	.LASF61
 4161 0868 01       		.byte	0x1
 4162 0869 BC01     		.2byte	0x1bc
 4163 086b 6F000000 		.4byte	0x6f
 4164 086f CF060000 		.4byte	.LLST43
 4165 0873 17       		.uleb128 0x17
 4166 0874 CE000000 		.4byte	.LASF52
 4167 0878 01       		.byte	0x1
 4168 0879 BE01     		.2byte	0x1be
 4169 087b 6F000000 		.4byte	0x6f
 4170 087f E2060000 		.4byte	.LLST44
 4171 0883 17       		.uleb128 0x17
 4172 0884 C5010000 		.4byte	.LASF53
 4173 0888 01       		.byte	0x1
 4174 0889 BF01     		.2byte	0x1bf
 4175 088b 6F000000 		.4byte	0x6f
 4176 088f 19070000 		.4byte	.LLST45
 4177 0893 15       		.uleb128 0x15
 4178 0894 72656400 		.ascii	"red\000"
 4179 0898 01       		.byte	0x1
 4180 0899 C001     		.2byte	0x1c0
 4181 089b 6F000000 		.4byte	0x6f
 4182 089f 38070000 		.4byte	.LLST46
 4183 08a3 17       		.uleb128 0x17
 4184 08a4 AF020000 		.4byte	.LASF54
 4185 08a8 01       		.byte	0x1
 4186 08a9 CE01     		.2byte	0x1ce
 4187 08ab 6F000000 		.4byte	0x6f
 4188 08af 6F070000 		.4byte	.LLST47
 4189 08b3 10       		.uleb128 0x10
 4190 08b4 5E000000 		.4byte	.LVL135
 4191 08b8 65020000 		.4byte	0x265
 4192 08bc 0F       		.uleb128 0xf
 4193 08bd 01       		.uleb128 0x1
 4194 08be 52       		.byte	0x52
 4195 08bf 0A       		.uleb128 0xa
 4196 08c0 75       		.byte	0x75
 4197 08c1 00       		.sleb128 0
 4198 08c2 34       		.byte	0x34
 4199 08c3 24       		.byte	0x24
 4200 08c4 74       		.byte	0x74
 4201 08c5 00       		.sleb128 0
 4202 08c6 22       		.byte	0x22
 4203 08c7 08       		.byte	0x8
ARM GAS  C:\Users\EDTRIC~1\AppData\Local\Temp\ccXQQyjM.s 			page 92


 4204 08c8 FE       		.byte	0xfe
 4205 08c9 1A       		.byte	0x1a
 4206 08ca 00       		.byte	0
 4207 08cb 00       		.byte	0
 4208 08cc 18       		.uleb128 0x18
 4209 08cd FB010000 		.4byte	.LASF62
 4210 08d1 01       		.byte	0x1
 4211 08d2 D301     		.2byte	0x1d3
 4212 08d4 00000000 		.4byte	.LFB81
 4213 08d8 D0000000 		.4byte	.LFE81-.LFB81
 4214 08dc 01       		.uleb128 0x1
 4215 08dd 9C       		.byte	0x9c
 4216 08de 45090000 		.4byte	0x945
 4217 08e2 14       		.uleb128 0x14
 4218 08e3 97020000 		.4byte	.LASF63
 4219 08e7 01       		.byte	0x1
 4220 08e8 D301     		.2byte	0x1d3
 4221 08ea 6F000000 		.4byte	0x6f
 4222 08ee 94070000 		.4byte	.LLST48
 4223 08f2 15       		.uleb128 0x15
 4224 08f3 6900     		.ascii	"i\000"
 4225 08f5 01       		.byte	0x1
 4226 08f6 D501     		.2byte	0x1d5
 4227 08f8 88000000 		.4byte	0x88
 4228 08fc B5070000 		.4byte	.LLST49
 4229 0900 0E       		.uleb128 0xe
 4230 0901 4E000000 		.4byte	.LVL141
 4231 0905 E9000000 		.4byte	0xe9
 4232 0909 1D090000 		.4byte	0x91d
 4233 090d 0F       		.uleb128 0xf
 4234 090e 01       		.uleb128 0x1
 4235 090f 51       		.byte	0x51
 4236 0910 02       		.uleb128 0x2
 4237 0911 78       		.byte	0x78
 4238 0912 00       		.sleb128 0
 4239 0913 0F       		.uleb128 0xf
 4240 0914 01       		.uleb128 0x1
 4241 0915 50       		.byte	0x50
 4242 0916 05       		.uleb128 0x5
 4243 0917 03       		.byte	0x3
 4244 0918 00000000 		.4byte	moveData
 4245 091c 00       		.byte	0
 4246 091d 0E       		.uleb128 0xe
 4247 091e 58000000 		.4byte	.LVL142
 4248 0922 32010000 		.4byte	0x132
 4249 0926 31090000 		.4byte	0x931
 4250 092a 0F       		.uleb128 0xf
 4251 092b 01       		.uleb128 0x1
 4252 092c 50       		.byte	0x50
 4253 092d 02       		.uleb128 0x2
 4254 092e 78       		.byte	0x78
 4255 092f 00       		.sleb128 0
 4256 0930 00       		.byte	0
 4257 0931 10       		.uleb128 0x10
 4258 0932 9E000000 		.4byte	.LVL147
 4259 0936 5B010000 		.4byte	0x15b
 4260 093a 0F       		.uleb128 0xf
ARM GAS  C:\Users\EDTRIC~1\AppData\Local\Temp\ccXQQyjM.s 			page 93


 4261 093b 01       		.uleb128 0x1
 4262 093c 50       		.byte	0x50
 4263 093d 05       		.uleb128 0x5
 4264 093e 03       		.byte	0x3
 4265 093f 00000000 		.4byte	dataEx
 4266 0943 00       		.byte	0
 4267 0944 00       		.byte	0
 4268 0945 19       		.uleb128 0x19
 4269 0946 62000000 		.4byte	.LASF64
 4270 094a 01       		.byte	0x1
 4271 094b F701     		.2byte	0x1f7
 4272 094d 6F000000 		.4byte	0x6f
 4273 0951 00000000 		.4byte	.LFB82
 4274 0955 0C010000 		.4byte	.LFE82-.LFB82
 4275 0959 01       		.uleb128 0x1
 4276 095a 9C       		.byte	0x9c
 4277 095b 120A0000 		.4byte	0xa12
 4278 095f 14       		.uleb128 0x14
 4279 0960 C6000000 		.4byte	.LASF34
 4280 0964 01       		.byte	0x1
 4281 0965 F701     		.2byte	0x1f7
 4282 0967 88000000 		.4byte	0x88
 4283 096b DF070000 		.4byte	.LLST50
 4284 096f 17       		.uleb128 0x17
 4285 0970 DD010000 		.4byte	.LASF57
 4286 0974 01       		.byte	0x1
 4287 0975 F901     		.2byte	0x1f9
 4288 0977 6F000000 		.4byte	0x6f
 4289 097b 0F080000 		.4byte	.LLST51
 4290 097f 0E       		.uleb128 0xe
 4291 0980 32000000 		.4byte	.LVL151
 4292 0984 E9000000 		.4byte	0xe9
 4293 0988 98090000 		.4byte	0x998
 4294 098c 0F       		.uleb128 0xf
 4295 098d 01       		.uleb128 0x1
 4296 098e 51       		.byte	0x51
 4297 098f 01       		.uleb128 0x1
 4298 0990 32       		.byte	0x32
 4299 0991 0F       		.uleb128 0xf
 4300 0992 01       		.uleb128 0x1
 4301 0993 50       		.byte	0x50
 4302 0994 02       		.uleb128 0x2
 4303 0995 74       		.byte	0x74
 4304 0996 00       		.sleb128 0
 4305 0997 00       		.byte	0
 4306 0998 0E       		.uleb128 0xe
 4307 0999 40000000 		.4byte	.LVL152
 4308 099d 32010000 		.4byte	0x132
 4309 09a1 AE090000 		.4byte	0x9ae
 4310 09a5 0F       		.uleb128 0xf
 4311 09a6 01       		.uleb128 0x1
 4312 09a7 50       		.byte	0x50
 4313 09a8 04       		.uleb128 0x4
 4314 09a9 91       		.byte	0x91
 4315 09aa 54       		.sleb128 -44
 4316 09ab 94       		.byte	0x94
 4317 09ac 01       		.byte	0x1
ARM GAS  C:\Users\EDTRIC~1\AppData\Local\Temp\ccXQQyjM.s 			page 94


 4318 09ad 00       		.byte	0
 4319 09ae 0E       		.uleb128 0xe
 4320 09af 74000000 		.4byte	.LVL153
 4321 09b3 5B010000 		.4byte	0x15b
 4322 09b7 C2090000 		.4byte	0x9c2
 4323 09bb 0F       		.uleb128 0xf
 4324 09bc 01       		.uleb128 0x1
 4325 09bd 50       		.byte	0x50
 4326 09be 02       		.uleb128 0x2
 4327 09bf 75       		.byte	0x75
 4328 09c0 00       		.sleb128 0
 4329 09c1 00       		.byte	0
 4330 09c2 0E       		.uleb128 0xe
 4331 09c3 7A000000 		.4byte	.LVL154
 4332 09c7 CF110000 		.4byte	0x11cf
 4333 09cb D5090000 		.4byte	0x9d5
 4334 09cf 0F       		.uleb128 0xf
 4335 09d0 01       		.uleb128 0x1
 4336 09d1 50       		.byte	0x50
 4337 09d2 01       		.uleb128 0x1
 4338 09d3 35       		.byte	0x35
 4339 09d4 00       		.byte	0
 4340 09d5 0E       		.uleb128 0xe
 4341 09d6 80000000 		.4byte	.LVL155
 4342 09da C1010000 		.4byte	0x1c1
 4343 09de E8090000 		.4byte	0x9e8
 4344 09e2 0F       		.uleb128 0xf
 4345 09e3 01       		.uleb128 0x1
 4346 09e4 50       		.byte	0x50
 4347 09e5 01       		.uleb128 0x1
 4348 09e6 3D       		.byte	0x3d
 4349 09e7 00       		.byte	0
 4350 09e8 0E       		.uleb128 0xe
 4351 09e9 B2000000 		.4byte	.LVL156
 4352 09ed E9000000 		.4byte	0xe9
 4353 09f1 010A0000 		.4byte	0xa01
 4354 09f5 0F       		.uleb128 0xf
 4355 09f6 01       		.uleb128 0x1
 4356 09f7 51       		.byte	0x51
 4357 09f8 01       		.uleb128 0x1
 4358 09f9 36       		.byte	0x36
 4359 09fa 0F       		.uleb128 0xf
 4360 09fb 01       		.uleb128 0x1
 4361 09fc 50       		.byte	0x50
 4362 09fd 02       		.uleb128 0x2
 4363 09fe 74       		.byte	0x74
 4364 09ff 00       		.sleb128 0
 4365 0a00 00       		.byte	0
 4366 0a01 10       		.uleb128 0x10
 4367 0a02 BC000000 		.4byte	.LVL157
 4368 0a06 32010000 		.4byte	0x132
 4369 0a0a 0F       		.uleb128 0xf
 4370 0a0b 01       		.uleb128 0x1
 4371 0a0c 50       		.byte	0x50
 4372 0a0d 02       		.uleb128 0x2
 4373 0a0e 74       		.byte	0x74
 4374 0a0f 00       		.sleb128 0
ARM GAS  C:\Users\EDTRIC~1\AppData\Local\Temp\ccXQQyjM.s 			page 95


 4375 0a10 00       		.byte	0
 4376 0a11 00       		.byte	0
 4377 0a12 1A       		.uleb128 0x1a
 4378 0a13 72030000 		.4byte	.LASF65
 4379 0a17 01       		.byte	0x1
 4380 0a18 2802     		.2byte	0x228
 4381 0a1a 25000000 		.4byte	0x25
 4382 0a1e 00000000 		.4byte	.LFB83
 4383 0a22 28000000 		.4byte	.LFE83-.LFB83
 4384 0a26 01       		.uleb128 0x1
 4385 0a27 9C       		.byte	0x9c
 4386 0a28 560A0000 		.4byte	0xa56
 4387 0a2c 14       		.uleb128 0x14
 4388 0a2d C6000000 		.4byte	.LASF34
 4389 0a31 01       		.byte	0x1
 4390 0a32 2802     		.2byte	0x228
 4391 0a34 88000000 		.4byte	0x88
 4392 0a38 2F080000 		.4byte	.LLST52
 4393 0a3c 15       		.uleb128 0x15
 4394 0a3d 706F7300 		.ascii	"pos\000"
 4395 0a41 01       		.byte	0x1
 4396 0a42 2A02     		.2byte	0x22a
 4397 0a44 6F000000 		.4byte	0x6f
 4398 0a48 50080000 		.4byte	.LLST53
 4399 0a4c 07       		.uleb128 0x7
 4400 0a4d 06000000 		.4byte	.LVL162
 4401 0a51 45090000 		.4byte	0x945
 4402 0a55 00       		.byte	0
 4403 0a56 19       		.uleb128 0x19
 4404 0a57 8A000000 		.4byte	.LASF66
 4405 0a5b 01       		.byte	0x1
 4406 0a5c 2E02     		.2byte	0x22e
 4407 0a5e 6F000000 		.4byte	0x6f
 4408 0a62 00000000 		.4byte	.LFB84
 4409 0a66 08010000 		.4byte	.LFE84-.LFB84
 4410 0a6a 01       		.uleb128 0x1
 4411 0a6b 9C       		.byte	0x9c
 4412 0a6c 230B0000 		.4byte	0xb23
 4413 0a70 14       		.uleb128 0x14
 4414 0a71 C6000000 		.4byte	.LASF34
 4415 0a75 01       		.byte	0x1
 4416 0a76 2E02     		.2byte	0x22e
 4417 0a78 88000000 		.4byte	0x88
 4418 0a7c 71080000 		.4byte	.LLST54
 4419 0a80 17       		.uleb128 0x17
 4420 0a81 45020000 		.4byte	.LASF67
 4421 0a85 01       		.byte	0x1
 4422 0a86 3002     		.2byte	0x230
 4423 0a88 6F000000 		.4byte	0x6f
 4424 0a8c A1080000 		.4byte	.LLST55
 4425 0a90 0E       		.uleb128 0xe
 4426 0a91 32000000 		.4byte	.LVL170
 4427 0a95 E9000000 		.4byte	0xe9
 4428 0a99 A90A0000 		.4byte	0xaa9
 4429 0a9d 0F       		.uleb128 0xf
 4430 0a9e 01       		.uleb128 0x1
 4431 0a9f 51       		.byte	0x51
ARM GAS  C:\Users\EDTRIC~1\AppData\Local\Temp\ccXQQyjM.s 			page 96


 4432 0aa0 01       		.uleb128 0x1
 4433 0aa1 32       		.byte	0x32
 4434 0aa2 0F       		.uleb128 0xf
 4435 0aa3 01       		.uleb128 0x1
 4436 0aa4 50       		.byte	0x50
 4437 0aa5 02       		.uleb128 0x2
 4438 0aa6 74       		.byte	0x74
 4439 0aa7 00       		.sleb128 0
 4440 0aa8 00       		.byte	0
 4441 0aa9 0E       		.uleb128 0xe
 4442 0aaa 40000000 		.4byte	.LVL171
 4443 0aae 32010000 		.4byte	0x132
 4444 0ab2 BF0A0000 		.4byte	0xabf
 4445 0ab6 0F       		.uleb128 0xf
 4446 0ab7 01       		.uleb128 0x1
 4447 0ab8 50       		.byte	0x50
 4448 0ab9 04       		.uleb128 0x4
 4449 0aba 91       		.byte	0x91
 4450 0abb 54       		.sleb128 -44
 4451 0abc 94       		.byte	0x94
 4452 0abd 01       		.byte	0x1
 4453 0abe 00       		.byte	0
 4454 0abf 0E       		.uleb128 0xe
 4455 0ac0 74000000 		.4byte	.LVL172
 4456 0ac4 5B010000 		.4byte	0x15b
 4457 0ac8 D30A0000 		.4byte	0xad3
 4458 0acc 0F       		.uleb128 0xf
 4459 0acd 01       		.uleb128 0x1
 4460 0ace 50       		.byte	0x50
 4461 0acf 02       		.uleb128 0x2
 4462 0ad0 75       		.byte	0x75
 4463 0ad1 00       		.sleb128 0
 4464 0ad2 00       		.byte	0
 4465 0ad3 0E       		.uleb128 0xe
 4466 0ad4 7A000000 		.4byte	.LVL173
 4467 0ad8 CF110000 		.4byte	0x11cf
 4468 0adc E60A0000 		.4byte	0xae6
 4469 0ae0 0F       		.uleb128 0xf
 4470 0ae1 01       		.uleb128 0x1
 4471 0ae2 50       		.byte	0x50
 4472 0ae3 01       		.uleb128 0x1
 4473 0ae4 35       		.byte	0x35
 4474 0ae5 00       		.byte	0
 4475 0ae6 0E       		.uleb128 0xe
 4476 0ae7 80000000 		.4byte	.LVL174
 4477 0aeb C1010000 		.4byte	0x1c1
 4478 0aef F90A0000 		.4byte	0xaf9
 4479 0af3 0F       		.uleb128 0xf
 4480 0af4 01       		.uleb128 0x1
 4481 0af5 50       		.byte	0x50
 4482 0af6 01       		.uleb128 0x1
 4483 0af7 3D       		.byte	0x3d
 4484 0af8 00       		.byte	0
 4485 0af9 0E       		.uleb128 0xe
 4486 0afa B2000000 		.4byte	.LVL175
 4487 0afe E9000000 		.4byte	0xe9
 4488 0b02 120B0000 		.4byte	0xb12
ARM GAS  C:\Users\EDTRIC~1\AppData\Local\Temp\ccXQQyjM.s 			page 97


 4489 0b06 0F       		.uleb128 0xf
 4490 0b07 01       		.uleb128 0x1
 4491 0b08 51       		.byte	0x51
 4492 0b09 01       		.uleb128 0x1
 4493 0b0a 36       		.byte	0x36
 4494 0b0b 0F       		.uleb128 0xf
 4495 0b0c 01       		.uleb128 0x1
 4496 0b0d 50       		.byte	0x50
 4497 0b0e 02       		.uleb128 0x2
 4498 0b0f 74       		.byte	0x74
 4499 0b10 00       		.sleb128 0
 4500 0b11 00       		.byte	0
 4501 0b12 10       		.uleb128 0x10
 4502 0b13 BC000000 		.4byte	.LVL176
 4503 0b17 32010000 		.4byte	0x132
 4504 0b1b 0F       		.uleb128 0xf
 4505 0b1c 01       		.uleb128 0x1
 4506 0b1d 50       		.byte	0x50
 4507 0b1e 02       		.uleb128 0x2
 4508 0b1f 74       		.byte	0x74
 4509 0b20 00       		.sleb128 0
 4510 0b21 00       		.byte	0
 4511 0b22 00       		.byte	0
 4512 0b23 13       		.uleb128 0x13
 4513 0b24 5F040000 		.4byte	.LASF68
 4514 0b28 01       		.byte	0x1
 4515 0b29 5F02     		.2byte	0x25f
 4516 0b2b 00000000 		.4byte	.LFB85
 4517 0b2f 5C000000 		.4byte	.LFE85-.LFB85
 4518 0b33 01       		.uleb128 0x1
 4519 0b34 9C       		.byte	0x9c
 4520 0b35 620B0000 		.4byte	0xb62
 4521 0b39 14       		.uleb128 0x14
 4522 0b3a C6000000 		.4byte	.LASF34
 4523 0b3e 01       		.byte	0x1
 4524 0b3f 5F02     		.2byte	0x25f
 4525 0b41 88000000 		.4byte	0x88
 4526 0b45 C1080000 		.4byte	.LLST56
 4527 0b49 10       		.uleb128 0x10
 4528 0b4a 40000000 		.4byte	.LVL182
 4529 0b4e 5B010000 		.4byte	0x15b
 4530 0b52 0F       		.uleb128 0xf
 4531 0b53 01       		.uleb128 0x1
 4532 0b54 51       		.byte	0x51
 4533 0b55 01       		.uleb128 0x1
 4534 0b56 37       		.byte	0x37
 4535 0b57 0F       		.uleb128 0xf
 4536 0b58 01       		.uleb128 0x1
 4537 0b59 50       		.byte	0x50
 4538 0b5a 05       		.uleb128 0x5
 4539 0b5b 03       		.byte	0x3
 4540 0b5c 00000000 		.4byte	dataEx
 4541 0b60 00       		.byte	0
 4542 0b61 00       		.byte	0
 4543 0b62 13       		.uleb128 0x13
 4544 0b63 00030000 		.4byte	.LASF69
 4545 0b67 01       		.byte	0x1
ARM GAS  C:\Users\EDTRIC~1\AppData\Local\Temp\ccXQQyjM.s 			page 98


 4546 0b68 7302     		.2byte	0x273
 4547 0b6a 00000000 		.4byte	.LFB86
 4548 0b6e 90000000 		.4byte	.LFE86-.LFB86
 4549 0b72 01       		.uleb128 0x1
 4550 0b73 9C       		.byte	0x9c
 4551 0b74 D90B0000 		.4byte	0xbd9
 4552 0b78 14       		.uleb128 0x14
 4553 0b79 C6000000 		.4byte	.LASF34
 4554 0b7d 01       		.byte	0x1
 4555 0b7e 7302     		.2byte	0x273
 4556 0b80 88000000 		.4byte	0x88
 4557 0b84 F1080000 		.4byte	.LLST57
 4558 0b88 14       		.uleb128 0x14
 4559 0b89 18010000 		.4byte	.LASF70
 4560 0b8d 01       		.byte	0x1
 4561 0b8e 7302     		.2byte	0x273
 4562 0b90 88000000 		.4byte	0x88
 4563 0b94 21090000 		.4byte	.LLST58
 4564 0b98 0E       		.uleb128 0xe
 4565 0b99 30000000 		.4byte	.LVL186
 4566 0b9d E9000000 		.4byte	0xe9
 4567 0ba1 B10B0000 		.4byte	0xbb1
 4568 0ba5 0F       		.uleb128 0xf
 4569 0ba6 01       		.uleb128 0x1
 4570 0ba7 51       		.byte	0x51
 4571 0ba8 01       		.uleb128 0x1
 4572 0ba9 33       		.byte	0x33
 4573 0baa 0F       		.uleb128 0xf
 4574 0bab 01       		.uleb128 0x1
 4575 0bac 50       		.byte	0x50
 4576 0bad 02       		.uleb128 0x2
 4577 0bae 74       		.byte	0x74
 4578 0baf 00       		.sleb128 0
 4579 0bb0 00       		.byte	0
 4580 0bb1 0E       		.uleb128 0xe
 4581 0bb2 3A000000 		.4byte	.LVL187
 4582 0bb6 32010000 		.4byte	0x132
 4583 0bba C50B0000 		.4byte	0xbc5
 4584 0bbe 0F       		.uleb128 0xf
 4585 0bbf 01       		.uleb128 0x1
 4586 0bc0 50       		.byte	0x50
 4587 0bc1 02       		.uleb128 0x2
 4588 0bc2 75       		.byte	0x75
 4589 0bc3 00       		.sleb128 0
 4590 0bc4 00       		.byte	0
 4591 0bc5 10       		.uleb128 0x10
 4592 0bc6 6A000000 		.4byte	.LVL188
 4593 0bca 5B010000 		.4byte	0x15b
 4594 0bce 0F       		.uleb128 0xf
 4595 0bcf 01       		.uleb128 0x1
 4596 0bd0 50       		.byte	0x50
 4597 0bd1 05       		.uleb128 0x5
 4598 0bd2 03       		.byte	0x3
 4599 0bd3 00000000 		.4byte	dataEx
 4600 0bd7 00       		.byte	0
 4601 0bd8 00       		.byte	0
 4602 0bd9 18       		.uleb128 0x18
ARM GAS  C:\Users\EDTRIC~1\AppData\Local\Temp\ccXQQyjM.s 			page 99


 4603 0bda 81030000 		.4byte	.LASF71
 4604 0bde 01       		.byte	0x1
 4605 0bdf 8E02     		.2byte	0x28e
 4606 0be1 00000000 		.4byte	.LFB87
 4607 0be5 1C010000 		.4byte	.LFE87-.LFB87
 4608 0be9 01       		.uleb128 0x1
 4609 0bea 9C       		.byte	0x9c
 4610 0beb D00C0000 		.4byte	0xcd0
 4611 0bef 14       		.uleb128 0x14
 4612 0bf0 C6000000 		.4byte	.LASF34
 4613 0bf4 01       		.byte	0x1
 4614 0bf5 8E02     		.2byte	0x28e
 4615 0bf7 88000000 		.4byte	0x88
 4616 0bfb 51090000 		.4byte	.LLST59
 4617 0bff 14       		.uleb128 0x14
 4618 0c00 34040000 		.4byte	.LASF47
 4619 0c04 01       		.byte	0x1
 4620 0c05 8E02     		.2byte	0x28e
 4621 0c07 6F000000 		.4byte	0x6f
 4622 0c0b 72090000 		.4byte	.LLST60
 4623 0c0f 14       		.uleb128 0x14
 4624 0c10 97020000 		.4byte	.LASF63
 4625 0c14 01       		.byte	0x1
 4626 0c15 8E02     		.2byte	0x28e
 4627 0c17 6F000000 		.4byte	0x6f
 4628 0c1b 9E090000 		.4byte	.LLST61
 4629 0c1f 16       		.uleb128 0x16
 4630 0c20 4C454400 		.ascii	"LED\000"
 4631 0c24 01       		.byte	0x1
 4632 0c25 8E02     		.2byte	0x28e
 4633 0c27 88000000 		.4byte	0x88
 4634 0c2b BF090000 		.4byte	.LLST62
 4635 0c2f 17       		.uleb128 0x17
 4636 0c30 C8040000 		.4byte	.LASF50
 4637 0c34 01       		.byte	0x1
 4638 0c35 9302     		.2byte	0x293
 4639 0c37 6F000000 		.4byte	0x6f
 4640 0c3b 2B0A0000 		.4byte	.LLST63
 4641 0c3f 17       		.uleb128 0x17
 4642 0c40 66030000 		.4byte	.LASF51
 4643 0c44 01       		.byte	0x1
 4644 0c45 9402     		.2byte	0x294
 4645 0c47 6F000000 		.4byte	0x6f
 4646 0c4b 540A0000 		.4byte	.LLST64
 4647 0c4f 17       		.uleb128 0x17
 4648 0c50 CE000000 		.4byte	.LASF52
 4649 0c54 01       		.byte	0x1
 4650 0c55 9602     		.2byte	0x296
 4651 0c57 6F000000 		.4byte	0x6f
 4652 0c5b 7B0A0000 		.4byte	.LLST65
 4653 0c5f 17       		.uleb128 0x17
 4654 0c60 C5010000 		.4byte	.LASF53
 4655 0c64 01       		.byte	0x1
 4656 0c65 9702     		.2byte	0x297
 4657 0c67 6F000000 		.4byte	0x6f
 4658 0c6b B20A0000 		.4byte	.LLST66
 4659 0c6f 15       		.uleb128 0x15
ARM GAS  C:\Users\EDTRIC~1\AppData\Local\Temp\ccXQQyjM.s 			page 100


 4660 0c70 72656400 		.ascii	"red\000"
 4661 0c74 01       		.byte	0x1
 4662 0c75 9802     		.2byte	0x298
 4663 0c77 6F000000 		.4byte	0x6f
 4664 0c7b D10A0000 		.4byte	.LLST67
 4665 0c7f 17       		.uleb128 0x17
 4666 0c80 AF020000 		.4byte	.LASF54
 4667 0c84 01       		.byte	0x1
 4668 0c85 A602     		.2byte	0x2a6
 4669 0c87 6F000000 		.4byte	0x6f
 4670 0c8b 080B0000 		.4byte	.LLST68
 4671 0c8f 0E       		.uleb128 0xe
 4672 0c90 A8000000 		.4byte	.LVL210
 4673 0c94 E9000000 		.4byte	0xe9
 4674 0c98 A80C0000 		.4byte	0xca8
 4675 0c9c 0F       		.uleb128 0xf
 4676 0c9d 01       		.uleb128 0x1
 4677 0c9e 51       		.byte	0x51
 4678 0c9f 01       		.uleb128 0x1
 4679 0ca0 34       		.byte	0x34
 4680 0ca1 0F       		.uleb128 0xf
 4681 0ca2 01       		.uleb128 0x1
 4682 0ca3 50       		.byte	0x50
 4683 0ca4 02       		.uleb128 0x2
 4684 0ca5 74       		.byte	0x74
 4685 0ca6 00       		.sleb128 0
 4686 0ca7 00       		.byte	0
 4687 0ca8 0E       		.uleb128 0xe
 4688 0ca9 B2000000 		.4byte	.LVL212
 4689 0cad 32010000 		.4byte	0x132
 4690 0cb1 BC0C0000 		.4byte	0xcbc
 4691 0cb5 0F       		.uleb128 0xf
 4692 0cb6 01       		.uleb128 0x1
 4693 0cb7 50       		.byte	0x50
 4694 0cb8 02       		.uleb128 0x2
 4695 0cb9 7A       		.byte	0x7a
 4696 0cba 00       		.sleb128 0
 4697 0cbb 00       		.byte	0
 4698 0cbc 10       		.uleb128 0x10
 4699 0cbd EE000000 		.4byte	.LVL213
 4700 0cc1 5B010000 		.4byte	0x15b
 4701 0cc5 0F       		.uleb128 0xf
 4702 0cc6 01       		.uleb128 0x1
 4703 0cc7 50       		.byte	0x50
 4704 0cc8 05       		.uleb128 0x5
 4705 0cc9 03       		.byte	0x3
 4706 0cca 00000000 		.4byte	dataEx
 4707 0cce 00       		.byte	0
 4708 0ccf 00       		.byte	0
 4709 0cd0 18       		.uleb128 0x18
 4710 0cd1 80040000 		.4byte	.LASF72
 4711 0cd5 01       		.byte	0x1
 4712 0cd6 CA02     		.2byte	0x2ca
 4713 0cd8 00000000 		.4byte	.LFB88
 4714 0cdc 58000000 		.4byte	.LFE88-.LFB88
 4715 0ce0 01       		.uleb128 0x1
 4716 0ce1 9C       		.byte	0x9c
ARM GAS  C:\Users\EDTRIC~1\AppData\Local\Temp\ccXQQyjM.s 			page 101


 4717 0ce2 530D0000 		.4byte	0xd53
 4718 0ce6 14       		.uleb128 0x14
 4719 0ce7 C6000000 		.4byte	.LASF34
 4720 0ceb 01       		.byte	0x1
 4721 0cec CA02     		.2byte	0x2ca
 4722 0cee 88000000 		.4byte	0x88
 4723 0cf2 1B0B0000 		.4byte	.LLST69
 4724 0cf6 14       		.uleb128 0x14
 4725 0cf7 59040000 		.4byte	.LASF56
 4726 0cfb 01       		.byte	0x1
 4727 0cfc CA02     		.2byte	0x2ca
 4728 0cfe 25000000 		.4byte	0x25
 4729 0d02 3C0B0000 		.4byte	.LLST70
 4730 0d06 14       		.uleb128 0x14
 4731 0d07 97020000 		.4byte	.LASF63
 4732 0d0b 01       		.byte	0x1
 4733 0d0c CA02     		.2byte	0x2ca
 4734 0d0e 6F000000 		.4byte	0x6f
 4735 0d12 750B0000 		.4byte	.LLST71
 4736 0d16 16       		.uleb128 0x16
 4737 0d17 4C454400 		.ascii	"LED\000"
 4738 0d1b 01       		.byte	0x1
 4739 0d1c CA02     		.2byte	0x2ca
 4740 0d1e 88000000 		.4byte	0x88
 4741 0d22 A10B0000 		.4byte	.LLST72
 4742 0d26 17       		.uleb128 0x17
 4743 0d27 DD010000 		.4byte	.LASF57
 4744 0d2b 01       		.byte	0x1
 4745 0d2c CD02     		.2byte	0x2cd
 4746 0d2e 6F000000 		.4byte	0x6f
 4747 0d32 C20B0000 		.4byte	.LLST73
 4748 0d36 10       		.uleb128 0x10
 4749 0d37 40000000 		.4byte	.LVL223
 4750 0d3b D90B0000 		.4byte	0xbd9
 4751 0d3f 0F       		.uleb128 0xf
 4752 0d40 01       		.uleb128 0x1
 4753 0d41 53       		.byte	0x53
 4754 0d42 02       		.uleb128 0x2
 4755 0d43 75       		.byte	0x75
 4756 0d44 00       		.sleb128 0
 4757 0d45 0F       		.uleb128 0xf
 4758 0d46 01       		.uleb128 0x1
 4759 0d47 52       		.byte	0x52
 4760 0d48 02       		.uleb128 0x2
 4761 0d49 76       		.byte	0x76
 4762 0d4a 00       		.sleb128 0
 4763 0d4b 0F       		.uleb128 0xf
 4764 0d4c 01       		.uleb128 0x1
 4765 0d4d 50       		.byte	0x50
 4766 0d4e 02       		.uleb128 0x2
 4767 0d4f 77       		.byte	0x77
 4768 0d50 00       		.sleb128 0
 4769 0d51 00       		.byte	0
 4770 0d52 00       		.byte	0
 4771 0d53 06       		.uleb128 0x6
 4772 0d54 00000000 		.4byte	.LASF73
 4773 0d58 01       		.byte	0x1
ARM GAS  C:\Users\EDTRIC~1\AppData\Local\Temp\ccXQQyjM.s 			page 102


 4774 0d59 75       		.byte	0x75
 4775 0d5a 00000000 		.4byte	.LFB69
 4776 0d5e 74000000 		.4byte	.LFE69-.LFB69
 4777 0d62 01       		.uleb128 0x1
 4778 0d63 9C       		.byte	0x9c
 4779 0d64 7E0E0000 		.4byte	0xe7e
 4780 0d68 0E       		.uleb128 0xe
 4781 0d69 12000000 		.4byte	.LVL225
 4782 0d6d CF110000 		.4byte	0x11cf
 4783 0d71 7C0D0000 		.4byte	0xd7c
 4784 0d75 0F       		.uleb128 0xf
 4785 0d76 01       		.uleb128 0x1
 4786 0d77 50       		.byte	0x50
 4787 0d78 02       		.uleb128 0x2
 4788 0d79 08       		.byte	0x8
 4789 0d7a 64       		.byte	0x64
 4790 0d7b 00       		.byte	0
 4791 0d7c 0E       		.uleb128 0xe
 4792 0d7d 18000000 		.4byte	.LVL226
 4793 0d81 2A060000 		.4byte	0x62a
 4794 0d85 900D0000 		.4byte	0xd90
 4795 0d89 0F       		.uleb128 0xf
 4796 0d8a 01       		.uleb128 0x1
 4797 0d8b 50       		.byte	0x50
 4798 0d8c 02       		.uleb128 0x2
 4799 0d8d 09       		.byte	0x9
 4800 0d8e FE       		.byte	0xfe
 4801 0d8f 00       		.byte	0
 4802 0d90 0E       		.uleb128 0xe
 4803 0d91 1E000000 		.4byte	.LVL227
 4804 0d95 CF110000 		.4byte	0x11cf
 4805 0d99 A30D0000 		.4byte	0xda3
 4806 0d9d 0F       		.uleb128 0xf
 4807 0d9e 01       		.uleb128 0x1
 4808 0d9f 50       		.byte	0x50
 4809 0da0 01       		.uleb128 0x1
 4810 0da1 3A       		.byte	0x3a
 4811 0da2 00       		.byte	0
 4812 0da3 0E       		.uleb128 0xe
 4813 0da4 24000000 		.4byte	.LVL228
 4814 0da8 F7030000 		.4byte	0x3f7
 4815 0dac B60D0000 		.4byte	0xdb6
 4816 0db0 0F       		.uleb128 0xf
 4817 0db1 01       		.uleb128 0x1
 4818 0db2 50       		.byte	0x50
 4819 0db3 01       		.uleb128 0x1
 4820 0db4 31       		.byte	0x31
 4821 0db5 00       		.byte	0
 4822 0db6 0E       		.uleb128 0xe
 4823 0db7 2A000000 		.4byte	.LVL229
 4824 0dbb CF110000 		.4byte	0x11cf
 4825 0dbf C90D0000 		.4byte	0xdc9
 4826 0dc3 0F       		.uleb128 0xf
 4827 0dc4 01       		.uleb128 0x1
 4828 0dc5 50       		.byte	0x50
 4829 0dc6 01       		.uleb128 0x1
 4830 0dc7 3A       		.byte	0x3a
ARM GAS  C:\Users\EDTRIC~1\AppData\Local\Temp\ccXQQyjM.s 			page 103


 4831 0dc8 00       		.byte	0
 4832 0dc9 0E       		.uleb128 0xe
 4833 0dca 30000000 		.4byte	.LVL230
 4834 0dce 2D030000 		.4byte	0x32d
 4835 0dd2 DD0D0000 		.4byte	0xddd
 4836 0dd6 0F       		.uleb128 0xf
 4837 0dd7 01       		.uleb128 0x1
 4838 0dd8 50       		.byte	0x50
 4839 0dd9 02       		.uleb128 0x2
 4840 0dda 09       		.byte	0x9
 4841 0ddb FE       		.byte	0xfe
 4842 0ddc 00       		.byte	0
 4843 0ddd 0E       		.uleb128 0xe
 4844 0dde 36000000 		.4byte	.LVL231
 4845 0de2 CF110000 		.4byte	0x11cf
 4846 0de6 F00D0000 		.4byte	0xdf0
 4847 0dea 0F       		.uleb128 0xf
 4848 0deb 01       		.uleb128 0x1
 4849 0dec 50       		.byte	0x50
 4850 0ded 01       		.uleb128 0x1
 4851 0dee 3A       		.byte	0x3a
 4852 0def 00       		.byte	0
 4853 0df0 0E       		.uleb128 0xe
 4854 0df1 44000000 		.4byte	.LVL232
 4855 0df5 D00C0000 		.4byte	0xcd0
 4856 0df9 100E0000 		.4byte	0xe10
 4857 0dfd 0F       		.uleb128 0xf
 4858 0dfe 01       		.uleb128 0x1
 4859 0dff 53       		.byte	0x53
 4860 0e00 01       		.uleb128 0x1
 4861 0e01 34       		.byte	0x34
 4862 0e02 0F       		.uleb128 0xf
 4863 0e03 01       		.uleb128 0x1
 4864 0e04 52       		.byte	0x52
 4865 0e05 03       		.uleb128 0x3
 4866 0e06 0A       		.byte	0xa
 4867 0e07 E803     		.2byte	0x3e8
 4868 0e09 0F       		.uleb128 0xf
 4869 0e0a 01       		.uleb128 0x1
 4870 0e0b 50       		.byte	0x50
 4871 0e0c 02       		.uleb128 0x2
 4872 0e0d 09       		.byte	0x9
 4873 0e0e FE       		.byte	0xfe
 4874 0e0f 00       		.byte	0
 4875 0e10 0E       		.uleb128 0xe
 4876 0e11 4C000000 		.4byte	.LVL233
 4877 0e15 CF110000 		.4byte	0x11cf
 4878 0e19 250E0000 		.4byte	0xe25
 4879 0e1d 0F       		.uleb128 0xf
 4880 0e1e 01       		.uleb128 0x1
 4881 0e1f 50       		.byte	0x50
 4882 0e20 03       		.uleb128 0x3
 4883 0e21 0A       		.byte	0xa
 4884 0e22 B004     		.2byte	0x4b0
 4885 0e24 00       		.byte	0
 4886 0e25 0E       		.uleb128 0xe
 4887 0e26 54000000 		.4byte	.LVL234
ARM GAS  C:\Users\EDTRIC~1\AppData\Local\Temp\ccXQQyjM.s 			page 104


 4888 0e2a 620B0000 		.4byte	0xb62
 4889 0e2e 3E0E0000 		.4byte	0xe3e
 4890 0e32 0F       		.uleb128 0xf
 4891 0e33 01       		.uleb128 0x1
 4892 0e34 51       		.byte	0x51
 4893 0e35 01       		.uleb128 0x1
 4894 0e36 31       		.byte	0x31
 4895 0e37 0F       		.uleb128 0xf
 4896 0e38 01       		.uleb128 0x1
 4897 0e39 50       		.byte	0x50
 4898 0e3a 02       		.uleb128 0x2
 4899 0e3b 09       		.byte	0x9
 4900 0e3c FE       		.byte	0xfe
 4901 0e3d 00       		.byte	0
 4902 0e3e 0E       		.uleb128 0xe
 4903 0e3f 5A000000 		.4byte	.LVL235
 4904 0e43 CF110000 		.4byte	0x11cf
 4905 0e47 520E0000 		.4byte	0xe52
 4906 0e4b 0F       		.uleb128 0xf
 4907 0e4c 01       		.uleb128 0x1
 4908 0e4d 50       		.byte	0x50
 4909 0e4e 02       		.uleb128 0x2
 4910 0e4f 08       		.byte	0x8
 4911 0e50 64       		.byte	0x64
 4912 0e51 00       		.byte	0
 4913 0e52 0E       		.uleb128 0xe
 4914 0e53 62000000 		.4byte	.LVL236
 4915 0e57 620B0000 		.4byte	0xb62
 4916 0e5b 6C0E0000 		.4byte	0xe6c
 4917 0e5f 0F       		.uleb128 0xf
 4918 0e60 01       		.uleb128 0x1
 4919 0e61 51       		.byte	0x51
 4920 0e62 02       		.uleb128 0x2
 4921 0e63 74       		.byte	0x74
 4922 0e64 00       		.sleb128 0
 4923 0e65 0F       		.uleb128 0xf
 4924 0e66 01       		.uleb128 0x1
 4925 0e67 50       		.byte	0x50
 4926 0e68 02       		.uleb128 0x2
 4927 0e69 09       		.byte	0x9
 4928 0e6a FE       		.byte	0xfe
 4929 0e6b 00       		.byte	0
 4930 0e6c 10       		.uleb128 0x10
 4931 0e6d 6A000000 		.4byte	.LVL237
 4932 0e71 CF110000 		.4byte	0x11cf
 4933 0e75 0F       		.uleb128 0xf
 4934 0e76 01       		.uleb128 0x1
 4935 0e77 50       		.byte	0x50
 4936 0e78 03       		.uleb128 0x3
 4937 0e79 0A       		.byte	0xa
 4938 0e7a F401     		.2byte	0x1f4
 4939 0e7c 00       		.byte	0
 4940 0e7d 00       		.byte	0
 4941 0e7e 18       		.uleb128 0x18
 4942 0e7f D3000000 		.4byte	.LASF74
 4943 0e83 01       		.byte	0x1
 4944 0e84 D102     		.2byte	0x2d1
ARM GAS  C:\Users\EDTRIC~1\AppData\Local\Temp\ccXQQyjM.s 			page 105


 4945 0e86 00000000 		.4byte	.LFB89
 4946 0e8a 24010000 		.4byte	.LFE89-.LFB89
 4947 0e8e 01       		.uleb128 0x1
 4948 0e8f 9C       		.byte	0x9c
 4949 0e90 850F0000 		.4byte	0xf85
 4950 0e94 14       		.uleb128 0x14
 4951 0e95 C6000000 		.4byte	.LASF34
 4952 0e99 01       		.byte	0x1
 4953 0e9a D102     		.2byte	0x2d1
 4954 0e9c 88000000 		.4byte	0x88
 4955 0ea0 D50B0000 		.4byte	.LLST74
 4956 0ea4 14       		.uleb128 0x14
 4957 0ea5 34040000 		.4byte	.LASF47
 4958 0ea9 01       		.byte	0x1
 4959 0eaa D102     		.2byte	0x2d1
 4960 0eac 6F000000 		.4byte	0x6f
 4961 0eb0 F60B0000 		.4byte	.LLST75
 4962 0eb4 14       		.uleb128 0x14
 4963 0eb5 97020000 		.4byte	.LASF63
 4964 0eb9 01       		.byte	0x1
 4965 0eba D102     		.2byte	0x2d1
 4966 0ebc 6F000000 		.4byte	0x6f
 4967 0ec0 3E0C0000 		.4byte	.LLST76
 4968 0ec4 16       		.uleb128 0x16
 4969 0ec5 4C454400 		.ascii	"LED\000"
 4970 0ec9 01       		.byte	0x1
 4971 0eca D102     		.2byte	0x2d1
 4972 0ecc 88000000 		.4byte	0x88
 4973 0ed0 5F0C0000 		.4byte	.LLST77
 4974 0ed4 17       		.uleb128 0x17
 4975 0ed5 73010000 		.4byte	.LASF59
 4976 0ed9 01       		.byte	0x1
 4977 0eda 1803     		.2byte	0x318
 4978 0edc 6F000000 		.4byte	0x6f
 4979 0ee0 CB0C0000 		.4byte	.LLST78
 4980 0ee4 17       		.uleb128 0x17
 4981 0ee5 5A010000 		.4byte	.LASF60
 4982 0ee9 01       		.byte	0x1
 4983 0eea 2303     		.2byte	0x323
 4984 0eec 6F000000 		.4byte	0x6f
 4985 0ef0 DE0C0000 		.4byte	.LLST79
 4986 0ef4 17       		.uleb128 0x17
 4987 0ef5 99030000 		.4byte	.LASF61
 4988 0ef9 01       		.byte	0x1
 4989 0efa 2403     		.2byte	0x324
 4990 0efc 6F000000 		.4byte	0x6f
 4991 0f00 F60C0000 		.4byte	.LLST80
 4992 0f04 17       		.uleb128 0x17
 4993 0f05 CE000000 		.4byte	.LASF52
 4994 0f09 01       		.byte	0x1
 4995 0f0a 2603     		.2byte	0x326
 4996 0f0c 6F000000 		.4byte	0x6f
 4997 0f10 090D0000 		.4byte	.LLST81
 4998 0f14 17       		.uleb128 0x17
 4999 0f15 C5010000 		.4byte	.LASF53
 5000 0f19 01       		.byte	0x1
 5001 0f1a 2703     		.2byte	0x327
ARM GAS  C:\Users\EDTRIC~1\AppData\Local\Temp\ccXQQyjM.s 			page 106


 5002 0f1c 6F000000 		.4byte	0x6f
 5003 0f20 400D0000 		.4byte	.LLST82
 5004 0f24 15       		.uleb128 0x15
 5005 0f25 72656400 		.ascii	"red\000"
 5006 0f29 01       		.byte	0x1
 5007 0f2a 2803     		.2byte	0x328
 5008 0f2c 6F000000 		.4byte	0x6f
 5009 0f30 5F0D0000 		.4byte	.LLST83
 5010 0f34 17       		.uleb128 0x17
 5011 0f35 AF020000 		.4byte	.LASF54
 5012 0f39 01       		.byte	0x1
 5013 0f3a 3603     		.2byte	0x336
 5014 0f3c 6F000000 		.4byte	0x6f
 5015 0f40 960D0000 		.4byte	.LLST84
 5016 0f44 0E       		.uleb128 0xe
 5017 0f45 B2000000 		.4byte	.LVL260
 5018 0f49 E9000000 		.4byte	0xe9
 5019 0f4d 5D0F0000 		.4byte	0xf5d
 5020 0f51 0F       		.uleb128 0xf
 5021 0f52 01       		.uleb128 0x1
 5022 0f53 51       		.byte	0x51
 5023 0f54 01       		.uleb128 0x1
 5024 0f55 34       		.byte	0x34
 5025 0f56 0F       		.uleb128 0xf
 5026 0f57 01       		.uleb128 0x1
 5027 0f58 50       		.byte	0x50
 5028 0f59 02       		.uleb128 0x2
 5029 0f5a 74       		.byte	0x74
 5030 0f5b 00       		.sleb128 0
 5031 0f5c 00       		.byte	0
 5032 0f5d 0E       		.uleb128 0xe
 5033 0f5e BC000000 		.4byte	.LVL262
 5034 0f62 32010000 		.4byte	0x132
 5035 0f66 710F0000 		.4byte	0xf71
 5036 0f6a 0F       		.uleb128 0xf
 5037 0f6b 01       		.uleb128 0x1
 5038 0f6c 50       		.byte	0x50
 5039 0f6d 02       		.uleb128 0x2
 5040 0f6e 7A       		.byte	0x7a
 5041 0f6f 00       		.sleb128 0
 5042 0f70 00       		.byte	0
 5043 0f71 10       		.uleb128 0x10
 5044 0f72 F8000000 		.4byte	.LVL263
 5045 0f76 5B010000 		.4byte	0x15b
 5046 0f7a 0F       		.uleb128 0xf
 5047 0f7b 01       		.uleb128 0x1
 5048 0f7c 50       		.byte	0x50
 5049 0f7d 05       		.uleb128 0x5
 5050 0f7e 03       		.byte	0x3
 5051 0f7f 00000000 		.4byte	dataEx
 5052 0f83 00       		.byte	0
 5053 0f84 00       		.byte	0
 5054 0f85 13       		.uleb128 0x13
 5055 0f86 C1020000 		.4byte	.LASF75
 5056 0f8a 01       		.byte	0x1
 5057 0f8b 5A03     		.2byte	0x35a
 5058 0f8d 00000000 		.4byte	.LFB90
ARM GAS  C:\Users\EDTRIC~1\AppData\Local\Temp\ccXQQyjM.s 			page 107


 5059 0f91 90000000 		.4byte	.LFE90-.LFB90
 5060 0f95 01       		.uleb128 0x1
 5061 0f96 9C       		.byte	0x9c
 5062 0f97 0C100000 		.4byte	0x100c
 5063 0f9b 14       		.uleb128 0x14
 5064 0f9c C6000000 		.4byte	.LASF34
 5065 0fa0 01       		.byte	0x1
 5066 0fa1 5A03     		.2byte	0x35a
 5067 0fa3 88000000 		.4byte	0x88
 5068 0fa7 A90D0000 		.4byte	.LLST85
 5069 0fab 14       		.uleb128 0x14
 5070 0fac ED000000 		.4byte	.LASF76
 5071 0fb0 01       		.byte	0x1
 5072 0fb1 5A03     		.2byte	0x35a
 5073 0fb3 88000000 		.4byte	0x88
 5074 0fb7 D90D0000 		.4byte	.LLST86
 5075 0fbb 14       		.uleb128 0x14
 5076 0fbc 7A000000 		.4byte	.LASF77
 5077 0fc0 01       		.byte	0x1
 5078 0fc1 5A03     		.2byte	0x35a
 5079 0fc3 88000000 		.4byte	0x88
 5080 0fc7 090E0000 		.4byte	.LLST87
 5081 0fcb 0E       		.uleb128 0xe
 5082 0fcc 2E000000 		.4byte	.LVL268
 5083 0fd0 E9000000 		.4byte	0xe9
 5084 0fd4 E40F0000 		.4byte	0xfe4
 5085 0fd8 0F       		.uleb128 0xf
 5086 0fd9 01       		.uleb128 0x1
 5087 0fda 51       		.byte	0x51
 5088 0fdb 01       		.uleb128 0x1
 5089 0fdc 33       		.byte	0x33
 5090 0fdd 0F       		.uleb128 0xf
 5091 0fde 01       		.uleb128 0x1
 5092 0fdf 50       		.byte	0x50
 5093 0fe0 02       		.uleb128 0x2
 5094 0fe1 74       		.byte	0x74
 5095 0fe2 00       		.sleb128 0
 5096 0fe3 00       		.byte	0
 5097 0fe4 0E       		.uleb128 0xe
 5098 0fe5 38000000 		.4byte	.LVL269
 5099 0fe9 32010000 		.4byte	0x132
 5100 0fed F80F0000 		.4byte	0xff8
 5101 0ff1 0F       		.uleb128 0xf
 5102 0ff2 01       		.uleb128 0x1
 5103 0ff3 50       		.byte	0x50
 5104 0ff4 02       		.uleb128 0x2
 5105 0ff5 75       		.byte	0x75
 5106 0ff6 00       		.sleb128 0
 5107 0ff7 00       		.byte	0
 5108 0ff8 10       		.uleb128 0x10
 5109 0ff9 6C000000 		.4byte	.LVL270
 5110 0ffd 5B010000 		.4byte	0x15b
 5111 1001 0F       		.uleb128 0xf
 5112 1002 01       		.uleb128 0x1
 5113 1003 50       		.byte	0x50
 5114 1004 05       		.uleb128 0x5
 5115 1005 03       		.byte	0x3
ARM GAS  C:\Users\EDTRIC~1\AppData\Local\Temp\ccXQQyjM.s 			page 108


 5116 1006 00000000 		.4byte	dataEx
 5117 100a 00       		.byte	0
 5118 100b 00       		.byte	0
 5119 100c 13       		.uleb128 0x13
 5120 100d F5000000 		.4byte	.LASF78
 5121 1011 01       		.byte	0x1
 5122 1012 7603     		.2byte	0x376
 5123 1014 00000000 		.4byte	.LFB91
 5124 1018 90000000 		.4byte	.LFE91-.LFB91
 5125 101c 01       		.uleb128 0x1
 5126 101d 9C       		.byte	0x9c
 5127 101e 93100000 		.4byte	0x1093
 5128 1022 14       		.uleb128 0x14
 5129 1023 C6000000 		.4byte	.LASF34
 5130 1027 01       		.byte	0x1
 5131 1028 7603     		.2byte	0x376
 5132 102a 88000000 		.4byte	0x88
 5133 102e 390E0000 		.4byte	.LLST88
 5134 1032 14       		.uleb128 0x14
 5135 1033 ED000000 		.4byte	.LASF76
 5136 1037 01       		.byte	0x1
 5137 1038 7603     		.2byte	0x376
 5138 103a 88000000 		.4byte	0x88
 5139 103e 690E0000 		.4byte	.LLST89
 5140 1042 14       		.uleb128 0x14
 5141 1043 7A000000 		.4byte	.LASF77
 5142 1047 01       		.byte	0x1
 5143 1048 7603     		.2byte	0x376
 5144 104a 88000000 		.4byte	0x88
 5145 104e 990E0000 		.4byte	.LLST90
 5146 1052 0E       		.uleb128 0xe
 5147 1053 2C000000 		.4byte	.LVL274
 5148 1057 E9000000 		.4byte	0xe9
 5149 105b 6B100000 		.4byte	0x106b
 5150 105f 0F       		.uleb128 0xf
 5151 1060 01       		.uleb128 0x1
 5152 1061 51       		.byte	0x51
 5153 1062 01       		.uleb128 0x1
 5154 1063 33       		.byte	0x33
 5155 1064 0F       		.uleb128 0xf
 5156 1065 01       		.uleb128 0x1
 5157 1066 50       		.byte	0x50
 5158 1067 02       		.uleb128 0x2
 5159 1068 74       		.byte	0x74
 5160 1069 00       		.sleb128 0
 5161 106a 00       		.byte	0
 5162 106b 0E       		.uleb128 0xe
 5163 106c 36000000 		.4byte	.LVL275
 5164 1070 32010000 		.4byte	0x132
 5165 1074 7F100000 		.4byte	0x107f
 5166 1078 0F       		.uleb128 0xf
 5167 1079 01       		.uleb128 0x1
 5168 107a 50       		.byte	0x50
 5169 107b 02       		.uleb128 0x2
 5170 107c 75       		.byte	0x75
 5171 107d 00       		.sleb128 0
 5172 107e 00       		.byte	0
ARM GAS  C:\Users\EDTRIC~1\AppData\Local\Temp\ccXQQyjM.s 			page 109


 5173 107f 10       		.uleb128 0x10
 5174 1080 6A000000 		.4byte	.LVL276
 5175 1084 5B010000 		.4byte	0x15b
 5176 1088 0F       		.uleb128 0xf
 5177 1089 01       		.uleb128 0x1
 5178 108a 50       		.byte	0x50
 5179 108b 05       		.uleb128 0x5
 5180 108c 03       		.byte	0x3
 5181 108d 00000000 		.4byte	dataEx
 5182 1091 00       		.byte	0
 5183 1092 00       		.byte	0
 5184 1093 1B       		.uleb128 0x1b
 5185 1094 A1040000 		.4byte	.LASF79
 5186 1098 05       		.byte	0x5
 5187 1099 5506     		.2byte	0x655
 5188 109b 9F100000 		.4byte	0x109f
 5189 109f 1C       		.uleb128 0x1c
 5190 10a0 7D000000 		.4byte	0x7d
 5191 10a4 1D       		.uleb128 0x1d
 5192 10a5 39030000 		.4byte	.LASF80
 5193 10a9 01       		.byte	0x1
 5194 10aa 0F       		.byte	0xf
 5195 10ab 88000000 		.4byte	0x88
 5196 10af 05       		.uleb128 0x5
 5197 10b0 03       		.byte	0x3
 5198 10b1 00000000 		.4byte	pSize
 5199 10b5 1E       		.uleb128 0x1e
 5200 10b6 70494400 		.ascii	"pID\000"
 5201 10ba 01       		.byte	0x1
 5202 10bb 10       		.byte	0x10
 5203 10bc 88000000 		.4byte	0x88
 5204 10c0 05       		.uleb128 0x5
 5205 10c1 03       		.byte	0x3
 5206 10c2 00000000 		.4byte	pID
 5207 10c6 1E       		.uleb128 0x1e
 5208 10c7 636D6400 		.ascii	"cmd\000"
 5209 10cb 01       		.byte	0x1
 5210 10cc 11       		.byte	0x11
 5211 10cd 88000000 		.4byte	0x88
 5212 10d1 05       		.uleb128 0x5
 5213 10d2 03       		.byte	0x3
 5214 10d3 00000000 		.4byte	cmd
 5215 10d7 1D       		.uleb128 0x1d
 5216 10d8 E0020000 		.4byte	.LASF19
 5217 10dc 01       		.byte	0x1
 5218 10dd 12       		.byte	0x12
 5219 10de 88000000 		.4byte	0x88
 5220 10e2 05       		.uleb128 0x5
 5221 10e3 03       		.byte	0x3
 5222 10e4 00000000 		.4byte	lengthString
 5223 10e8 1E       		.uleb128 0x1e
 5224 10e9 636B3100 		.ascii	"ck1\000"
 5225 10ed 01       		.byte	0x1
 5226 10ee 13       		.byte	0x13
 5227 10ef 88000000 		.4byte	0x88
 5228 10f3 05       		.uleb128 0x5
 5229 10f4 03       		.byte	0x3
ARM GAS  C:\Users\EDTRIC~1\AppData\Local\Temp\ccXQQyjM.s 			page 110


 5230 10f5 00000000 		.4byte	ck1
 5231 10f9 1E       		.uleb128 0x1e
 5232 10fa 636B3200 		.ascii	"ck2\000"
 5233 10fe 01       		.byte	0x1
 5234 10ff 14       		.byte	0x14
 5235 1100 88000000 		.4byte	0x88
 5236 1104 05       		.uleb128 0x5
 5237 1105 03       		.byte	0x3
 5238 1106 00000000 		.4byte	ck2
 5239 110a 1D       		.uleb128 0x1d
 5240 110b 84000000 		.4byte	.LASF81
 5241 110f 01       		.byte	0x1
 5242 1110 16       		.byte	0x16
 5243 1111 88000000 		.4byte	0x88
 5244 1115 05       		.uleb128 0x5
 5245 1116 03       		.byte	0x3
 5246 1117 00000000 		.4byte	conta
 5247 111b 1E       		.uleb128 0x1e
 5248 111c 584F5200 		.ascii	"XOR\000"
 5249 1120 01       		.byte	0x1
 5250 1121 18       		.byte	0x18
 5251 1122 88000000 		.4byte	0x88
 5252 1126 05       		.uleb128 0x5
 5253 1127 03       		.byte	0x3
 5254 1128 00000000 		.4byte	XOR
 5255 112c 1D       		.uleb128 0x1d
 5256 112d 9C020000 		.4byte	.LASF82
 5257 1131 01       		.byte	0x1
 5258 1132 19       		.byte	0x19
 5259 1133 6F000000 		.4byte	0x6f
 5260 1137 05       		.uleb128 0x5
 5261 1138 03       		.byte	0x3
 5262 1139 00000000 		.4byte	playTime
 5263 113d 1F       		.uleb128 0x1f
 5264 113e 88000000 		.4byte	0x88
 5265 1142 4D110000 		.4byte	0x114d
 5266 1146 20       		.uleb128 0x20
 5267 1147 BA000000 		.4byte	0xba
 5268 114b 1D       		.byte	0x1d
 5269 114c 00       		.byte	0
 5270 114d 1D       		.uleb128 0x1d
 5271 114e 24030000 		.4byte	.LASF18
 5272 1152 01       		.byte	0x1
 5273 1153 1B       		.byte	0x1b
 5274 1154 3D110000 		.4byte	0x113d
 5275 1158 05       		.uleb128 0x5
 5276 1159 03       		.byte	0x3
 5277 115a 00000000 		.4byte	data
 5278 115e 1F       		.uleb128 0x1f
 5279 115f 88000000 		.4byte	0x88
 5280 1163 6E110000 		.4byte	0x116e
 5281 1167 20       		.uleb128 0x20
 5282 1168 BA000000 		.4byte	0xba
 5283 116c 39       		.byte	0x39
 5284 116d 00       		.byte	0
 5285 116e 1D       		.uleb128 0x1d
 5286 116f 89010000 		.4byte	.LASF83
ARM GAS  C:\Users\EDTRIC~1\AppData\Local\Temp\ccXQQyjM.s 			page 111


 5287 1173 01       		.byte	0x1
 5288 1174 1C       		.byte	0x1c
 5289 1175 5E110000 		.4byte	0x115e
 5290 1179 05       		.uleb128 0x5
 5291 117a 03       		.byte	0x3
 5292 117b 00000000 		.4byte	dataEx
 5293 117f 1F       		.uleb128 0x1f
 5294 1180 88000000 		.4byte	0x88
 5295 1184 8F110000 		.4byte	0x118f
 5296 1188 20       		.uleb128 0x20
 5297 1189 BA000000 		.4byte	0xba
 5298 118d 31       		.byte	0x31
 5299 118e 00       		.byte	0
 5300 118f 1D       		.uleb128 0x1d
 5301 1190 29030000 		.4byte	.LASF84
 5302 1194 01       		.byte	0x1
 5303 1195 1D       		.byte	0x1d
 5304 1196 7F110000 		.4byte	0x117f
 5305 119a 05       		.uleb128 0x5
 5306 119b 03       		.byte	0x3
 5307 119c 00000000 		.4byte	moveData
 5308 11a0 21       		.uleb128 0x21
 5309 11a1 39040000 		.4byte	.LASF85
 5310 11a5 06       		.byte	0x6
 5311 11a6 8F       		.byte	0x8f
 5312 11a7 21       		.uleb128 0x21
 5313 11a8 AF000000 		.4byte	.LASF86
 5314 11ac 06       		.byte	0x6
 5315 11ad 75       		.byte	0x75
 5316 11ae 22       		.uleb128 0x22
 5317 11af AE040000 		.4byte	.LASF87
 5318 11b3 06       		.byte	0x6
 5319 11b4 8C       		.byte	0x8c
 5320 11b5 C4110000 		.4byte	0x11c4
 5321 11b9 23       		.uleb128 0x23
 5322 11ba C4110000 		.4byte	0x11c4
 5323 11be 23       		.uleb128 0x23
 5324 11bf 88000000 		.4byte	0x88
 5325 11c3 00       		.byte	0
 5326 11c4 0C       		.uleb128 0xc
 5327 11c5 04       		.byte	0x4
 5328 11c6 CA110000 		.4byte	0x11ca
 5329 11ca 24       		.uleb128 0x24
 5330 11cb 88000000 		.4byte	0x88
 5331 11cf 22       		.uleb128 0x22
 5332 11d0 C0040000 		.4byte	.LASF88
 5333 11d4 07       		.byte	0x7
 5334 11d5 77       		.byte	0x77
 5335 11d6 E0110000 		.4byte	0x11e0
 5336 11da 23       		.uleb128 0x23
 5337 11db A0000000 		.4byte	0xa0
 5338 11df 00       		.byte	0
 5339 11e0 25       		.uleb128 0x25
 5340 11e1 13030000 		.4byte	.LASF89
 5341 11e5 06       		.byte	0x6
 5342 11e6 72       		.byte	0x72
 5343 11e7 94000000 		.4byte	0x94
ARM GAS  C:\Users\EDTRIC~1\AppData\Local\Temp\ccXQQyjM.s 			page 112


 5344 11eb 25       		.uleb128 0x25
 5345 11ec 90010000 		.4byte	.LASF90
 5346 11f0 06       		.byte	0x6
 5347 11f1 73       		.byte	0x73
 5348 11f2 88000000 		.4byte	0x88
 5349 11f6 00       		.byte	0
 5350              		.section	.debug_abbrev,"",%progbits
 5351              	.Ldebug_abbrev0:
 5352 0000 01       		.uleb128 0x1
 5353 0001 11       		.uleb128 0x11
 5354 0002 01       		.byte	0x1
 5355 0003 25       		.uleb128 0x25
 5356 0004 0E       		.uleb128 0xe
 5357 0005 13       		.uleb128 0x13
 5358 0006 0B       		.uleb128 0xb
 5359 0007 03       		.uleb128 0x3
 5360 0008 0E       		.uleb128 0xe
 5361 0009 1B       		.uleb128 0x1b
 5362 000a 0E       		.uleb128 0xe
 5363 000b 55       		.uleb128 0x55
 5364 000c 17       		.uleb128 0x17
 5365 000d 11       		.uleb128 0x11
 5366 000e 01       		.uleb128 0x1
 5367 000f 10       		.uleb128 0x10
 5368 0010 17       		.uleb128 0x17
 5369 0011 00       		.byte	0
 5370 0012 00       		.byte	0
 5371 0013 02       		.uleb128 0x2
 5372 0014 24       		.uleb128 0x24
 5373 0015 00       		.byte	0
 5374 0016 0B       		.uleb128 0xb
 5375 0017 0B       		.uleb128 0xb
 5376 0018 3E       		.uleb128 0x3e
 5377 0019 0B       		.uleb128 0xb
 5378 001a 03       		.uleb128 0x3
 5379 001b 0E       		.uleb128 0xe
 5380 001c 00       		.byte	0
 5381 001d 00       		.byte	0
 5382 001e 03       		.uleb128 0x3
 5383 001f 16       		.uleb128 0x16
 5384 0020 00       		.byte	0
 5385 0021 03       		.uleb128 0x3
 5386 0022 0E       		.uleb128 0xe
 5387 0023 3A       		.uleb128 0x3a
 5388 0024 0B       		.uleb128 0xb
 5389 0025 3B       		.uleb128 0x3b
 5390 0026 0B       		.uleb128 0xb
 5391 0027 49       		.uleb128 0x49
 5392 0028 13       		.uleb128 0x13
 5393 0029 00       		.byte	0
 5394 002a 00       		.byte	0
 5395 002b 04       		.uleb128 0x4
 5396 002c 24       		.uleb128 0x24
 5397 002d 00       		.byte	0
 5398 002e 0B       		.uleb128 0xb
 5399 002f 0B       		.uleb128 0xb
 5400 0030 3E       		.uleb128 0x3e
ARM GAS  C:\Users\EDTRIC~1\AppData\Local\Temp\ccXQQyjM.s 			page 113


 5401 0031 0B       		.uleb128 0xb
 5402 0032 03       		.uleb128 0x3
 5403 0033 08       		.uleb128 0x8
 5404 0034 00       		.byte	0
 5405 0035 00       		.byte	0
 5406 0036 05       		.uleb128 0x5
 5407 0037 16       		.uleb128 0x16
 5408 0038 00       		.byte	0
 5409 0039 03       		.uleb128 0x3
 5410 003a 0E       		.uleb128 0xe
 5411 003b 3A       		.uleb128 0x3a
 5412 003c 0B       		.uleb128 0xb
 5413 003d 3B       		.uleb128 0x3b
 5414 003e 05       		.uleb128 0x5
 5415 003f 49       		.uleb128 0x49
 5416 0040 13       		.uleb128 0x13
 5417 0041 00       		.byte	0
 5418 0042 00       		.byte	0
 5419 0043 06       		.uleb128 0x6
 5420 0044 2E       		.uleb128 0x2e
 5421 0045 01       		.byte	0x1
 5422 0046 3F       		.uleb128 0x3f
 5423 0047 19       		.uleb128 0x19
 5424 0048 03       		.uleb128 0x3
 5425 0049 0E       		.uleb128 0xe
 5426 004a 3A       		.uleb128 0x3a
 5427 004b 0B       		.uleb128 0xb
 5428 004c 3B       		.uleb128 0x3b
 5429 004d 0B       		.uleb128 0xb
 5430 004e 27       		.uleb128 0x27
 5431 004f 19       		.uleb128 0x19
 5432 0050 11       		.uleb128 0x11
 5433 0051 01       		.uleb128 0x1
 5434 0052 12       		.uleb128 0x12
 5435 0053 06       		.uleb128 0x6
 5436 0054 40       		.uleb128 0x40
 5437 0055 18       		.uleb128 0x18
 5438 0056 9742     		.uleb128 0x2117
 5439 0058 19       		.uleb128 0x19
 5440 0059 01       		.uleb128 0x1
 5441 005a 13       		.uleb128 0x13
 5442 005b 00       		.byte	0
 5443 005c 00       		.byte	0
 5444 005d 07       		.uleb128 0x7
 5445 005e 898201   		.uleb128 0x4109
 5446 0061 00       		.byte	0
 5447 0062 11       		.uleb128 0x11
 5448 0063 01       		.uleb128 0x1
 5449 0064 31       		.uleb128 0x31
 5450 0065 13       		.uleb128 0x13
 5451 0066 00       		.byte	0
 5452 0067 00       		.byte	0
 5453 0068 08       		.uleb128 0x8
 5454 0069 2E       		.uleb128 0x2e
 5455 006a 01       		.byte	0x1
 5456 006b 3F       		.uleb128 0x3f
 5457 006c 19       		.uleb128 0x19
ARM GAS  C:\Users\EDTRIC~1\AppData\Local\Temp\ccXQQyjM.s 			page 114


 5458 006d 03       		.uleb128 0x3
 5459 006e 0E       		.uleb128 0xe
 5460 006f 3A       		.uleb128 0x3a
 5461 0070 0B       		.uleb128 0xb
 5462 0071 3B       		.uleb128 0x3b
 5463 0072 0B       		.uleb128 0xb
 5464 0073 27       		.uleb128 0x27
 5465 0074 19       		.uleb128 0x19
 5466 0075 49       		.uleb128 0x49
 5467 0076 13       		.uleb128 0x13
 5468 0077 11       		.uleb128 0x11
 5469 0078 01       		.uleb128 0x1
 5470 0079 12       		.uleb128 0x12
 5471 007a 06       		.uleb128 0x6
 5472 007b 40       		.uleb128 0x40
 5473 007c 18       		.uleb128 0x18
 5474 007d 9742     		.uleb128 0x2117
 5475 007f 19       		.uleb128 0x19
 5476 0080 01       		.uleb128 0x1
 5477 0081 13       		.uleb128 0x13
 5478 0082 00       		.byte	0
 5479 0083 00       		.byte	0
 5480 0084 09       		.uleb128 0x9
 5481 0085 05       		.uleb128 0x5
 5482 0086 00       		.byte	0
 5483 0087 03       		.uleb128 0x3
 5484 0088 0E       		.uleb128 0xe
 5485 0089 3A       		.uleb128 0x3a
 5486 008a 0B       		.uleb128 0xb
 5487 008b 3B       		.uleb128 0x3b
 5488 008c 0B       		.uleb128 0xb
 5489 008d 49       		.uleb128 0x49
 5490 008e 13       		.uleb128 0x13
 5491 008f 02       		.uleb128 0x2
 5492 0090 17       		.uleb128 0x17
 5493 0091 00       		.byte	0
 5494 0092 00       		.byte	0
 5495 0093 0A       		.uleb128 0xa
 5496 0094 05       		.uleb128 0x5
 5497 0095 00       		.byte	0
 5498 0096 03       		.uleb128 0x3
 5499 0097 0E       		.uleb128 0xe
 5500 0098 3A       		.uleb128 0x3a
 5501 0099 0B       		.uleb128 0xb
 5502 009a 3B       		.uleb128 0x3b
 5503 009b 0B       		.uleb128 0xb
 5504 009c 49       		.uleb128 0x49
 5505 009d 13       		.uleb128 0x13
 5506 009e 02       		.uleb128 0x2
 5507 009f 18       		.uleb128 0x18
 5508 00a0 00       		.byte	0
 5509 00a1 00       		.byte	0
 5510 00a2 0B       		.uleb128 0xb
 5511 00a3 34       		.uleb128 0x34
 5512 00a4 00       		.byte	0
 5513 00a5 03       		.uleb128 0x3
 5514 00a6 08       		.uleb128 0x8
ARM GAS  C:\Users\EDTRIC~1\AppData\Local\Temp\ccXQQyjM.s 			page 115


 5515 00a7 3A       		.uleb128 0x3a
 5516 00a8 0B       		.uleb128 0xb
 5517 00a9 3B       		.uleb128 0x3b
 5518 00aa 0B       		.uleb128 0xb
 5519 00ab 49       		.uleb128 0x49
 5520 00ac 13       		.uleb128 0x13
 5521 00ad 02       		.uleb128 0x2
 5522 00ae 17       		.uleb128 0x17
 5523 00af 00       		.byte	0
 5524 00b0 00       		.byte	0
 5525 00b1 0C       		.uleb128 0xc
 5526 00b2 0F       		.uleb128 0xf
 5527 00b3 00       		.byte	0
 5528 00b4 0B       		.uleb128 0xb
 5529 00b5 0B       		.uleb128 0xb
 5530 00b6 49       		.uleb128 0x49
 5531 00b7 13       		.uleb128 0x13
 5532 00b8 00       		.byte	0
 5533 00b9 00       		.byte	0
 5534 00ba 0D       		.uleb128 0xd
 5535 00bb 05       		.uleb128 0x5
 5536 00bc 00       		.byte	0
 5537 00bd 03       		.uleb128 0x3
 5538 00be 08       		.uleb128 0x8
 5539 00bf 3A       		.uleb128 0x3a
 5540 00c0 0B       		.uleb128 0xb
 5541 00c1 3B       		.uleb128 0x3b
 5542 00c2 0B       		.uleb128 0xb
 5543 00c3 49       		.uleb128 0x49
 5544 00c4 13       		.uleb128 0x13
 5545 00c5 02       		.uleb128 0x2
 5546 00c6 17       		.uleb128 0x17
 5547 00c7 00       		.byte	0
 5548 00c8 00       		.byte	0
 5549 00c9 0E       		.uleb128 0xe
 5550 00ca 898201   		.uleb128 0x4109
 5551 00cd 01       		.byte	0x1
 5552 00ce 11       		.uleb128 0x11
 5553 00cf 01       		.uleb128 0x1
 5554 00d0 31       		.uleb128 0x31
 5555 00d1 13       		.uleb128 0x13
 5556 00d2 01       		.uleb128 0x1
 5557 00d3 13       		.uleb128 0x13
 5558 00d4 00       		.byte	0
 5559 00d5 00       		.byte	0
 5560 00d6 0F       		.uleb128 0xf
 5561 00d7 8A8201   		.uleb128 0x410a
 5562 00da 00       		.byte	0
 5563 00db 02       		.uleb128 0x2
 5564 00dc 18       		.uleb128 0x18
 5565 00dd 9142     		.uleb128 0x2111
 5566 00df 18       		.uleb128 0x18
 5567 00e0 00       		.byte	0
 5568 00e1 00       		.byte	0
 5569 00e2 10       		.uleb128 0x10
 5570 00e3 898201   		.uleb128 0x4109
 5571 00e6 01       		.byte	0x1
ARM GAS  C:\Users\EDTRIC~1\AppData\Local\Temp\ccXQQyjM.s 			page 116


 5572 00e7 11       		.uleb128 0x11
 5573 00e8 01       		.uleb128 0x1
 5574 00e9 31       		.uleb128 0x31
 5575 00ea 13       		.uleb128 0x13
 5576 00eb 00       		.byte	0
 5577 00ec 00       		.byte	0
 5578 00ed 11       		.uleb128 0x11
 5579 00ee 34       		.uleb128 0x34
 5580 00ef 00       		.byte	0
 5581 00f0 03       		.uleb128 0x3
 5582 00f1 0E       		.uleb128 0xe
 5583 00f2 3A       		.uleb128 0x3a
 5584 00f3 0B       		.uleb128 0xb
 5585 00f4 3B       		.uleb128 0x3b
 5586 00f5 0B       		.uleb128 0xb
 5587 00f6 49       		.uleb128 0x49
 5588 00f7 13       		.uleb128 0x13
 5589 00f8 02       		.uleb128 0x2
 5590 00f9 17       		.uleb128 0x17
 5591 00fa 00       		.byte	0
 5592 00fb 00       		.byte	0
 5593 00fc 12       		.uleb128 0x12
 5594 00fd 0B       		.uleb128 0xb
 5595 00fe 01       		.byte	0x1
 5596 00ff 11       		.uleb128 0x11
 5597 0100 01       		.uleb128 0x1
 5598 0101 12       		.uleb128 0x12
 5599 0102 06       		.uleb128 0x6
 5600 0103 01       		.uleb128 0x1
 5601 0104 13       		.uleb128 0x13
 5602 0105 00       		.byte	0
 5603 0106 00       		.byte	0
 5604 0107 13       		.uleb128 0x13
 5605 0108 2E       		.uleb128 0x2e
 5606 0109 01       		.byte	0x1
 5607 010a 3F       		.uleb128 0x3f
 5608 010b 19       		.uleb128 0x19
 5609 010c 03       		.uleb128 0x3
 5610 010d 0E       		.uleb128 0xe
 5611 010e 3A       		.uleb128 0x3a
 5612 010f 0B       		.uleb128 0xb
 5613 0110 3B       		.uleb128 0x3b
 5614 0111 05       		.uleb128 0x5
 5615 0112 27       		.uleb128 0x27
 5616 0113 19       		.uleb128 0x19
 5617 0114 11       		.uleb128 0x11
 5618 0115 01       		.uleb128 0x1
 5619 0116 12       		.uleb128 0x12
 5620 0117 06       		.uleb128 0x6
 5621 0118 40       		.uleb128 0x40
 5622 0119 18       		.uleb128 0x18
 5623 011a 9742     		.uleb128 0x2117
 5624 011c 19       		.uleb128 0x19
 5625 011d 01       		.uleb128 0x1
 5626 011e 13       		.uleb128 0x13
 5627 011f 00       		.byte	0
 5628 0120 00       		.byte	0
ARM GAS  C:\Users\EDTRIC~1\AppData\Local\Temp\ccXQQyjM.s 			page 117


 5629 0121 14       		.uleb128 0x14
 5630 0122 05       		.uleb128 0x5
 5631 0123 00       		.byte	0
 5632 0124 03       		.uleb128 0x3
 5633 0125 0E       		.uleb128 0xe
 5634 0126 3A       		.uleb128 0x3a
 5635 0127 0B       		.uleb128 0xb
 5636 0128 3B       		.uleb128 0x3b
 5637 0129 05       		.uleb128 0x5
 5638 012a 49       		.uleb128 0x49
 5639 012b 13       		.uleb128 0x13
 5640 012c 02       		.uleb128 0x2
 5641 012d 17       		.uleb128 0x17
 5642 012e 00       		.byte	0
 5643 012f 00       		.byte	0
 5644 0130 15       		.uleb128 0x15
 5645 0131 34       		.uleb128 0x34
 5646 0132 00       		.byte	0
 5647 0133 03       		.uleb128 0x3
 5648 0134 08       		.uleb128 0x8
 5649 0135 3A       		.uleb128 0x3a
 5650 0136 0B       		.uleb128 0xb
 5651 0137 3B       		.uleb128 0x3b
 5652 0138 05       		.uleb128 0x5
 5653 0139 49       		.uleb128 0x49
 5654 013a 13       		.uleb128 0x13
 5655 013b 02       		.uleb128 0x2
 5656 013c 17       		.uleb128 0x17
 5657 013d 00       		.byte	0
 5658 013e 00       		.byte	0
 5659 013f 16       		.uleb128 0x16
 5660 0140 05       		.uleb128 0x5
 5661 0141 00       		.byte	0
 5662 0142 03       		.uleb128 0x3
 5663 0143 08       		.uleb128 0x8
 5664 0144 3A       		.uleb128 0x3a
 5665 0145 0B       		.uleb128 0xb
 5666 0146 3B       		.uleb128 0x3b
 5667 0147 05       		.uleb128 0x5
 5668 0148 49       		.uleb128 0x49
 5669 0149 13       		.uleb128 0x13
 5670 014a 02       		.uleb128 0x2
 5671 014b 17       		.uleb128 0x17
 5672 014c 00       		.byte	0
 5673 014d 00       		.byte	0
 5674 014e 17       		.uleb128 0x17
 5675 014f 34       		.uleb128 0x34
 5676 0150 00       		.byte	0
 5677 0151 03       		.uleb128 0x3
 5678 0152 0E       		.uleb128 0xe
 5679 0153 3A       		.uleb128 0x3a
 5680 0154 0B       		.uleb128 0xb
 5681 0155 3B       		.uleb128 0x3b
 5682 0156 05       		.uleb128 0x5
 5683 0157 49       		.uleb128 0x49
 5684 0158 13       		.uleb128 0x13
 5685 0159 02       		.uleb128 0x2
ARM GAS  C:\Users\EDTRIC~1\AppData\Local\Temp\ccXQQyjM.s 			page 118


 5686 015a 17       		.uleb128 0x17
 5687 015b 00       		.byte	0
 5688 015c 00       		.byte	0
 5689 015d 18       		.uleb128 0x18
 5690 015e 2E       		.uleb128 0x2e
 5691 015f 01       		.byte	0x1
 5692 0160 3F       		.uleb128 0x3f
 5693 0161 19       		.uleb128 0x19
 5694 0162 03       		.uleb128 0x3
 5695 0163 0E       		.uleb128 0xe
 5696 0164 3A       		.uleb128 0x3a
 5697 0165 0B       		.uleb128 0xb
 5698 0166 3B       		.uleb128 0x3b
 5699 0167 05       		.uleb128 0x5
 5700 0168 27       		.uleb128 0x27
 5701 0169 19       		.uleb128 0x19
 5702 016a 11       		.uleb128 0x11
 5703 016b 01       		.uleb128 0x1
 5704 016c 12       		.uleb128 0x12
 5705 016d 06       		.uleb128 0x6
 5706 016e 40       		.uleb128 0x40
 5707 016f 18       		.uleb128 0x18
 5708 0170 9642     		.uleb128 0x2116
 5709 0172 19       		.uleb128 0x19
 5710 0173 01       		.uleb128 0x1
 5711 0174 13       		.uleb128 0x13
 5712 0175 00       		.byte	0
 5713 0176 00       		.byte	0
 5714 0177 19       		.uleb128 0x19
 5715 0178 2E       		.uleb128 0x2e
 5716 0179 01       		.byte	0x1
 5717 017a 3F       		.uleb128 0x3f
 5718 017b 19       		.uleb128 0x19
 5719 017c 03       		.uleb128 0x3
 5720 017d 0E       		.uleb128 0xe
 5721 017e 3A       		.uleb128 0x3a
 5722 017f 0B       		.uleb128 0xb
 5723 0180 3B       		.uleb128 0x3b
 5724 0181 05       		.uleb128 0x5
 5725 0182 27       		.uleb128 0x27
 5726 0183 19       		.uleb128 0x19
 5727 0184 49       		.uleb128 0x49
 5728 0185 13       		.uleb128 0x13
 5729 0186 11       		.uleb128 0x11
 5730 0187 01       		.uleb128 0x1
 5731 0188 12       		.uleb128 0x12
 5732 0189 06       		.uleb128 0x6
 5733 018a 40       		.uleb128 0x40
 5734 018b 18       		.uleb128 0x18
 5735 018c 9742     		.uleb128 0x2117
 5736 018e 19       		.uleb128 0x19
 5737 018f 01       		.uleb128 0x1
 5738 0190 13       		.uleb128 0x13
 5739 0191 00       		.byte	0
 5740 0192 00       		.byte	0
 5741 0193 1A       		.uleb128 0x1a
 5742 0194 2E       		.uleb128 0x2e
ARM GAS  C:\Users\EDTRIC~1\AppData\Local\Temp\ccXQQyjM.s 			page 119


 5743 0195 01       		.byte	0x1
 5744 0196 3F       		.uleb128 0x3f
 5745 0197 19       		.uleb128 0x19
 5746 0198 03       		.uleb128 0x3
 5747 0199 0E       		.uleb128 0xe
 5748 019a 3A       		.uleb128 0x3a
 5749 019b 0B       		.uleb128 0xb
 5750 019c 3B       		.uleb128 0x3b
 5751 019d 05       		.uleb128 0x5
 5752 019e 27       		.uleb128 0x27
 5753 019f 19       		.uleb128 0x19
 5754 01a0 49       		.uleb128 0x49
 5755 01a1 13       		.uleb128 0x13
 5756 01a2 11       		.uleb128 0x11
 5757 01a3 01       		.uleb128 0x1
 5758 01a4 12       		.uleb128 0x12
 5759 01a5 06       		.uleb128 0x6
 5760 01a6 40       		.uleb128 0x40
 5761 01a7 18       		.uleb128 0x18
 5762 01a8 9642     		.uleb128 0x2116
 5763 01aa 19       		.uleb128 0x19
 5764 01ab 01       		.uleb128 0x1
 5765 01ac 13       		.uleb128 0x13
 5766 01ad 00       		.byte	0
 5767 01ae 00       		.byte	0
 5768 01af 1B       		.uleb128 0x1b
 5769 01b0 34       		.uleb128 0x34
 5770 01b1 00       		.byte	0
 5771 01b2 03       		.uleb128 0x3
 5772 01b3 0E       		.uleb128 0xe
 5773 01b4 3A       		.uleb128 0x3a
 5774 01b5 0B       		.uleb128 0xb
 5775 01b6 3B       		.uleb128 0x3b
 5776 01b7 05       		.uleb128 0x5
 5777 01b8 49       		.uleb128 0x49
 5778 01b9 13       		.uleb128 0x13
 5779 01ba 3F       		.uleb128 0x3f
 5780 01bb 19       		.uleb128 0x19
 5781 01bc 3C       		.uleb128 0x3c
 5782 01bd 19       		.uleb128 0x19
 5783 01be 00       		.byte	0
 5784 01bf 00       		.byte	0
 5785 01c0 1C       		.uleb128 0x1c
 5786 01c1 35       		.uleb128 0x35
 5787 01c2 00       		.byte	0
 5788 01c3 49       		.uleb128 0x49
 5789 01c4 13       		.uleb128 0x13
 5790 01c5 00       		.byte	0
 5791 01c6 00       		.byte	0
 5792 01c7 1D       		.uleb128 0x1d
 5793 01c8 34       		.uleb128 0x34
 5794 01c9 00       		.byte	0
 5795 01ca 03       		.uleb128 0x3
 5796 01cb 0E       		.uleb128 0xe
 5797 01cc 3A       		.uleb128 0x3a
 5798 01cd 0B       		.uleb128 0xb
 5799 01ce 3B       		.uleb128 0x3b
ARM GAS  C:\Users\EDTRIC~1\AppData\Local\Temp\ccXQQyjM.s 			page 120


 5800 01cf 0B       		.uleb128 0xb
 5801 01d0 49       		.uleb128 0x49
 5802 01d1 13       		.uleb128 0x13
 5803 01d2 3F       		.uleb128 0x3f
 5804 01d3 19       		.uleb128 0x19
 5805 01d4 02       		.uleb128 0x2
 5806 01d5 18       		.uleb128 0x18
 5807 01d6 00       		.byte	0
 5808 01d7 00       		.byte	0
 5809 01d8 1E       		.uleb128 0x1e
 5810 01d9 34       		.uleb128 0x34
 5811 01da 00       		.byte	0
 5812 01db 03       		.uleb128 0x3
 5813 01dc 08       		.uleb128 0x8
 5814 01dd 3A       		.uleb128 0x3a
 5815 01de 0B       		.uleb128 0xb
 5816 01df 3B       		.uleb128 0x3b
 5817 01e0 0B       		.uleb128 0xb
 5818 01e1 49       		.uleb128 0x49
 5819 01e2 13       		.uleb128 0x13
 5820 01e3 3F       		.uleb128 0x3f
 5821 01e4 19       		.uleb128 0x19
 5822 01e5 02       		.uleb128 0x2
 5823 01e6 18       		.uleb128 0x18
 5824 01e7 00       		.byte	0
 5825 01e8 00       		.byte	0
 5826 01e9 1F       		.uleb128 0x1f
 5827 01ea 01       		.uleb128 0x1
 5828 01eb 01       		.byte	0x1
 5829 01ec 49       		.uleb128 0x49
 5830 01ed 13       		.uleb128 0x13
 5831 01ee 01       		.uleb128 0x1
 5832 01ef 13       		.uleb128 0x13
 5833 01f0 00       		.byte	0
 5834 01f1 00       		.byte	0
 5835 01f2 20       		.uleb128 0x20
 5836 01f3 21       		.uleb128 0x21
 5837 01f4 00       		.byte	0
 5838 01f5 49       		.uleb128 0x49
 5839 01f6 13       		.uleb128 0x13
 5840 01f7 2F       		.uleb128 0x2f
 5841 01f8 0B       		.uleb128 0xb
 5842 01f9 00       		.byte	0
 5843 01fa 00       		.byte	0
 5844 01fb 21       		.uleb128 0x21
 5845 01fc 2E       		.uleb128 0x2e
 5846 01fd 00       		.byte	0
 5847 01fe 3F       		.uleb128 0x3f
 5848 01ff 19       		.uleb128 0x19
 5849 0200 03       		.uleb128 0x3
 5850 0201 0E       		.uleb128 0xe
 5851 0202 3A       		.uleb128 0x3a
 5852 0203 0B       		.uleb128 0xb
 5853 0204 3B       		.uleb128 0x3b
 5854 0205 0B       		.uleb128 0xb
 5855 0206 27       		.uleb128 0x27
 5856 0207 19       		.uleb128 0x19
ARM GAS  C:\Users\EDTRIC~1\AppData\Local\Temp\ccXQQyjM.s 			page 121


 5857 0208 3C       		.uleb128 0x3c
 5858 0209 19       		.uleb128 0x19
 5859 020a 00       		.byte	0
 5860 020b 00       		.byte	0
 5861 020c 22       		.uleb128 0x22
 5862 020d 2E       		.uleb128 0x2e
 5863 020e 01       		.byte	0x1
 5864 020f 3F       		.uleb128 0x3f
 5865 0210 19       		.uleb128 0x19
 5866 0211 03       		.uleb128 0x3
 5867 0212 0E       		.uleb128 0xe
 5868 0213 3A       		.uleb128 0x3a
 5869 0214 0B       		.uleb128 0xb
 5870 0215 3B       		.uleb128 0x3b
 5871 0216 0B       		.uleb128 0xb
 5872 0217 27       		.uleb128 0x27
 5873 0218 19       		.uleb128 0x19
 5874 0219 3C       		.uleb128 0x3c
 5875 021a 19       		.uleb128 0x19
 5876 021b 01       		.uleb128 0x1
 5877 021c 13       		.uleb128 0x13
 5878 021d 00       		.byte	0
 5879 021e 00       		.byte	0
 5880 021f 23       		.uleb128 0x23
 5881 0220 05       		.uleb128 0x5
 5882 0221 00       		.byte	0
 5883 0222 49       		.uleb128 0x49
 5884 0223 13       		.uleb128 0x13
 5885 0224 00       		.byte	0
 5886 0225 00       		.byte	0
 5887 0226 24       		.uleb128 0x24
 5888 0227 26       		.uleb128 0x26
 5889 0228 00       		.byte	0
 5890 0229 49       		.uleb128 0x49
 5891 022a 13       		.uleb128 0x13
 5892 022b 00       		.byte	0
 5893 022c 00       		.byte	0
 5894 022d 25       		.uleb128 0x25
 5895 022e 2E       		.uleb128 0x2e
 5896 022f 00       		.byte	0
 5897 0230 3F       		.uleb128 0x3f
 5898 0231 19       		.uleb128 0x19
 5899 0232 03       		.uleb128 0x3
 5900 0233 0E       		.uleb128 0xe
 5901 0234 3A       		.uleb128 0x3a
 5902 0235 0B       		.uleb128 0xb
 5903 0236 3B       		.uleb128 0x3b
 5904 0237 0B       		.uleb128 0xb
 5905 0238 27       		.uleb128 0x27
 5906 0239 19       		.uleb128 0x19
 5907 023a 49       		.uleb128 0x49
 5908 023b 13       		.uleb128 0x13
 5909 023c 3C       		.uleb128 0x3c
 5910 023d 19       		.uleb128 0x19
 5911 023e 00       		.byte	0
 5912 023f 00       		.byte	0
 5913 0240 00       		.byte	0
ARM GAS  C:\Users\EDTRIC~1\AppData\Local\Temp\ccXQQyjM.s 			page 122


 5914              		.section	.debug_loc,"",%progbits
 5915              	.Ldebug_loc0:
 5916              	.LLST0:
 5917 0000 00000000 		.4byte	.LVL2
 5918 0004 30000000 		.4byte	.LVL8
 5919 0008 0100     		.2byte	0x1
 5920 000a 50       		.byte	0x50
 5921 000b 30000000 		.4byte	.LVL8
 5922 000f 48000000 		.4byte	.LFE64
 5923 0013 0400     		.2byte	0x4
 5924 0015 F3       		.byte	0xf3
 5925 0016 01       		.uleb128 0x1
 5926 0017 50       		.byte	0x50
 5927 0018 9F       		.byte	0x9f
 5928 0019 00000000 		.4byte	0
 5929 001d 00000000 		.4byte	0
 5930              	.LLST1:
 5931 0021 16000000 		.4byte	.LVL3
 5932 0025 1A000000 		.4byte	.LVL4
 5933 0029 0200     		.2byte	0x2
 5934 002b 30       		.byte	0x30
 5935 002c 9F       		.byte	0x9f
 5936 002d 1A000000 		.4byte	.LVL4
 5937 0031 26000000 		.4byte	.LVL5
 5938 0035 0100     		.2byte	0x1
 5939 0037 53       		.byte	0x53
 5940 0038 28000000 		.4byte	.LVL6
 5941 003c 2E000000 		.4byte	.LVL7
 5942 0040 0100     		.2byte	0x1
 5943 0042 53       		.byte	0x53
 5944 0043 00000000 		.4byte	0
 5945 0047 00000000 		.4byte	0
 5946              	.LLST2:
 5947 004b 00000000 		.4byte	.LVL9
 5948 004f 02000000 		.4byte	.LVL10
 5949 0053 0100     		.2byte	0x1
 5950 0055 50       		.byte	0x50
 5951 0056 02000000 		.4byte	.LVL10
 5952 005a 08000000 		.4byte	.LFE65
 5953 005e 0400     		.2byte	0x4
 5954 0060 F3       		.byte	0xf3
 5955 0061 01       		.uleb128 0x1
 5956 0062 50       		.byte	0x50
 5957 0063 9F       		.byte	0x9f
 5958 0064 00000000 		.4byte	0
 5959 0068 00000000 		.4byte	0
 5960              	.LLST3:
 5961 006c 00000000 		.4byte	.LVL11
 5962 0070 09000000 		.4byte	.LVL12-1
 5963 0074 0100     		.2byte	0x1
 5964 0076 50       		.byte	0x50
 5965 0077 09000000 		.4byte	.LVL12-1
 5966 007b 1A000000 		.4byte	.LFE66
 5967 007f 0100     		.2byte	0x1
 5968 0081 55       		.byte	0x55
 5969 0082 00000000 		.4byte	0
 5970 0086 00000000 		.4byte	0
ARM GAS  C:\Users\EDTRIC~1\AppData\Local\Temp\ccXQQyjM.s 			page 123


 5971              	.LLST4:
 5972 008a 00000000 		.4byte	.LVL11
 5973 008e 09000000 		.4byte	.LVL12-1
 5974 0092 0100     		.2byte	0x1
 5975 0094 51       		.byte	0x51
 5976 0095 09000000 		.4byte	.LVL12-1
 5977 0099 1A000000 		.4byte	.LFE66
 5978 009d 0400     		.2byte	0x4
 5979 009f F3       		.byte	0xf3
 5980 00a0 01       		.uleb128 0x1
 5981 00a1 51       		.byte	0x51
 5982 00a2 9F       		.byte	0x9f
 5983 00a3 00000000 		.4byte	0
 5984 00a7 00000000 		.4byte	0
 5985              	.LLST5:
 5986 00ab 00000000 		.4byte	.LVL15
 5987 00af 08000000 		.4byte	.LVL17
 5988 00b3 0100     		.2byte	0x1
 5989 00b5 50       		.byte	0x50
 5990 00b6 08000000 		.4byte	.LVL17
 5991 00ba 54000000 		.4byte	.LFE67
 5992 00be 0400     		.2byte	0x4
 5993 00c0 F3       		.byte	0xf3
 5994 00c1 01       		.uleb128 0x1
 5995 00c2 50       		.byte	0x50
 5996 00c3 9F       		.byte	0x9f
 5997 00c4 00000000 		.4byte	0
 5998 00c8 00000000 		.4byte	0
 5999              	.LLST6:
 6000 00cc 04000000 		.4byte	.LVL16
 6001 00d0 24000000 		.4byte	.LVL23
 6002 00d4 0200     		.2byte	0x2
 6003 00d6 30       		.byte	0x30
 6004 00d7 9F       		.byte	0x9f
 6005 00d8 24000000 		.4byte	.LVL23
 6006 00dc 3E000000 		.4byte	.LVL28
 6007 00e0 0100     		.2byte	0x1
 6008 00e2 56       		.byte	0x56
 6009 00e3 40000000 		.4byte	.LVL29
 6010 00e7 4E000000 		.4byte	.LVL32
 6011 00eb 0100     		.2byte	0x1
 6012 00ed 56       		.byte	0x56
 6013 00ee 00000000 		.4byte	0
 6014 00f2 00000000 		.4byte	0
 6015              	.LLST7:
 6016 00f6 04000000 		.4byte	.LVL16
 6017 00fa 24000000 		.4byte	.LVL23
 6018 00fe 0200     		.2byte	0x2
 6019 0100 30       		.byte	0x30
 6020 0101 9F       		.byte	0x9f
 6021 0102 24000000 		.4byte	.LVL23
 6022 0106 30000000 		.4byte	.LVL26
 6023 010a 0100     		.2byte	0x1
 6024 010c 54       		.byte	0x54
 6025 010d 32000000 		.4byte	.LVL27
 6026 0111 4E000000 		.4byte	.LVL32
 6027 0115 0100     		.2byte	0x1
ARM GAS  C:\Users\EDTRIC~1\AppData\Local\Temp\ccXQQyjM.s 			page 124


 6028 0117 54       		.byte	0x54
 6029 0118 00000000 		.4byte	0
 6030 011c 00000000 		.4byte	0
 6031              	.LLST8:
 6032 0120 04000000 		.4byte	.LVL16
 6033 0124 08000000 		.4byte	.LVL17
 6034 0128 0200     		.2byte	0x2
 6035 012a 30       		.byte	0x30
 6036 012b 9F       		.byte	0x9f
 6037 012c 08000000 		.4byte	.LVL17
 6038 0130 0A000000 		.4byte	.LVL18
 6039 0134 0100     		.2byte	0x1
 6040 0136 54       		.byte	0x54
 6041 0137 0C000000 		.4byte	.LVL19
 6042 013b 20000000 		.4byte	.LVL22
 6043 013f 0100     		.2byte	0x1
 6044 0141 54       		.byte	0x54
 6045 0142 00000000 		.4byte	0
 6046 0146 00000000 		.4byte	0
 6047              	.LLST9:
 6048 014a 2A000000 		.4byte	.LVL25
 6049 014e 40000000 		.4byte	.LVL29
 6050 0152 0100     		.2byte	0x1
 6051 0154 50       		.byte	0x50
 6052 0155 00000000 		.4byte	0
 6053 0159 00000000 		.4byte	0
 6054              	.LLST10:
 6055 015d 00000000 		.4byte	.LVL33
 6056 0161 10000000 		.4byte	.LVL34
 6057 0165 0100     		.2byte	0x1
 6058 0167 50       		.byte	0x50
 6059 0168 10000000 		.4byte	.LVL34
 6060 016c 2C000000 		.4byte	.LFE68
 6061 0170 0400     		.2byte	0x4
 6062 0172 F3       		.byte	0xf3
 6063 0173 01       		.uleb128 0x1
 6064 0174 50       		.byte	0x50
 6065 0175 9F       		.byte	0x9f
 6066 0176 00000000 		.4byte	0
 6067 017a 00000000 		.4byte	0
 6068              	.LLST11:
 6069 017e 00000000 		.4byte	.LVL33
 6070 0182 16000000 		.4byte	.LVL35
 6071 0186 0100     		.2byte	0x1
 6072 0188 51       		.byte	0x51
 6073 0189 16000000 		.4byte	.LVL35
 6074 018d 2C000000 		.4byte	.LFE68
 6075 0191 0400     		.2byte	0x4
 6076 0193 F3       		.byte	0xf3
 6077 0194 01       		.uleb128 0x1
 6078 0195 51       		.byte	0x51
 6079 0196 9F       		.byte	0x9f
 6080 0197 00000000 		.4byte	0
 6081 019b 00000000 		.4byte	0
 6082              	.LLST12:
 6083 019f 00000000 		.4byte	.LVL33
 6084 01a3 1C000000 		.4byte	.LVL36
ARM GAS  C:\Users\EDTRIC~1\AppData\Local\Temp\ccXQQyjM.s 			page 125


 6085 01a7 0100     		.2byte	0x1
 6086 01a9 52       		.byte	0x52
 6087 01aa 1C000000 		.4byte	.LVL36
 6088 01ae 20000000 		.4byte	.LVL37
 6089 01b2 0500     		.2byte	0x5
 6090 01b4 74       		.byte	0x74
 6091 01b5 00       		.sleb128 0
 6092 01b6 70       		.byte	0x70
 6093 01b7 00       		.sleb128 0
 6094 01b8 22       		.byte	0x22
 6095 01b9 20000000 		.4byte	.LVL37
 6096 01bd 2C000000 		.4byte	.LFE68
 6097 01c1 0400     		.2byte	0x4
 6098 01c3 F3       		.byte	0xf3
 6099 01c4 01       		.uleb128 0x1
 6100 01c5 52       		.byte	0x52
 6101 01c6 9F       		.byte	0x9f
 6102 01c7 00000000 		.4byte	0
 6103 01cb 00000000 		.4byte	0
 6104              	.LLST13:
 6105 01cf 00000000 		.4byte	.LVL38
 6106 01d3 46000000 		.4byte	.LVL39
 6107 01d7 0100     		.2byte	0x1
 6108 01d9 50       		.byte	0x50
 6109 01da 46000000 		.4byte	.LVL39
 6110 01de 49000000 		.4byte	.LVL40-1
 6111 01e2 0500     		.2byte	0x5
 6112 01e4 03       		.byte	0x3
 6113 01e5 00000000 		.4byte	pID
 6114 01e9 49000000 		.4byte	.LVL40-1
 6115 01ed C8000000 		.4byte	.LFE70
 6116 01f1 0400     		.2byte	0x4
 6117 01f3 F3       		.byte	0xf3
 6118 01f4 01       		.uleb128 0x1
 6119 01f5 50       		.byte	0x50
 6120 01f6 9F       		.byte	0x9f
 6121 01f7 00000000 		.4byte	0
 6122 01fb 00000000 		.4byte	0
 6123              	.LLST14:
 6124 01ff 00000000 		.4byte	.LVL44
 6125 0203 2C000000 		.4byte	.LVL45
 6126 0207 0100     		.2byte	0x1
 6127 0209 50       		.byte	0x50
 6128 020a 2C000000 		.4byte	.LVL45
 6129 020e 2F000000 		.4byte	.LVL46-1
 6130 0212 0500     		.2byte	0x5
 6131 0214 03       		.byte	0x3
 6132 0215 00000000 		.4byte	pID
 6133 0219 2F000000 		.4byte	.LVL46-1
 6134 021d 90000000 		.4byte	.LFE71
 6135 0221 0400     		.2byte	0x4
 6136 0223 F3       		.byte	0xf3
 6137 0224 01       		.uleb128 0x1
 6138 0225 50       		.byte	0x50
 6139 0226 9F       		.byte	0x9f
 6140 0227 00000000 		.4byte	0
 6141 022b 00000000 		.4byte	0
ARM GAS  C:\Users\EDTRIC~1\AppData\Local\Temp\ccXQQyjM.s 			page 126


 6142              	.LLST15:
 6143 022f 00000000 		.4byte	.LVL49
 6144 0233 2C000000 		.4byte	.LVL50
 6145 0237 0100     		.2byte	0x1
 6146 0239 50       		.byte	0x50
 6147 023a 2C000000 		.4byte	.LVL50
 6148 023e 2F000000 		.4byte	.LVL51-1
 6149 0242 0500     		.2byte	0x5
 6150 0244 03       		.byte	0x3
 6151 0245 00000000 		.4byte	pID
 6152 0249 2F000000 		.4byte	.LVL51-1
 6153 024d 90000000 		.4byte	.LFE72
 6154 0251 0400     		.2byte	0x4
 6155 0253 F3       		.byte	0xf3
 6156 0254 01       		.uleb128 0x1
 6157 0255 50       		.byte	0x50
 6158 0256 9F       		.byte	0x9f
 6159 0257 00000000 		.4byte	0
 6160 025b 00000000 		.4byte	0
 6161              	.LLST16:
 6162 025f 00000000 		.4byte	.LVL54
 6163 0263 2C000000 		.4byte	.LVL55
 6164 0267 0100     		.2byte	0x1
 6165 0269 50       		.byte	0x50
 6166 026a 2C000000 		.4byte	.LVL55
 6167 026e 2F000000 		.4byte	.LVL56-1
 6168 0272 0500     		.2byte	0x5
 6169 0274 03       		.byte	0x3
 6170 0275 02000000 		.4byte	data+2
 6171 0279 2F000000 		.4byte	.LVL56-1
 6172 027d 90000000 		.4byte	.LFE73
 6173 0281 0400     		.2byte	0x4
 6174 0283 F3       		.byte	0xf3
 6175 0284 01       		.uleb128 0x1
 6176 0285 50       		.byte	0x50
 6177 0286 9F       		.byte	0x9f
 6178 0287 00000000 		.4byte	0
 6179 028b 00000000 		.4byte	0
 6180              	.LLST17:
 6181 028f 00000000 		.4byte	.LVL66
 6182 0293 2A000000 		.4byte	.LVL68
 6183 0297 0100     		.2byte	0x1
 6184 0299 50       		.byte	0x50
 6185 029a 2A000000 		.4byte	.LVL68
 6186 029e 2D000000 		.4byte	.LVL69-1
 6187 02a2 0500     		.2byte	0x5
 6188 02a4 03       		.byte	0x3
 6189 02a5 00000000 		.4byte	pID
 6190 02a9 2D000000 		.4byte	.LVL69-1
 6191 02ad 8C000000 		.4byte	.LFE75
 6192 02b1 0400     		.2byte	0x4
 6193 02b3 F3       		.byte	0xf3
 6194 02b4 01       		.uleb128 0x1
 6195 02b5 50       		.byte	0x50
 6196 02b6 9F       		.byte	0x9f
 6197 02b7 00000000 		.4byte	0
 6198 02bb 00000000 		.4byte	0
ARM GAS  C:\Users\EDTRIC~1\AppData\Local\Temp\ccXQQyjM.s 			page 127


 6199              	.LLST18:
 6200 02bf 00000000 		.4byte	.LVL66
 6201 02c3 24000000 		.4byte	.LVL67
 6202 02c7 0100     		.2byte	0x1
 6203 02c9 51       		.byte	0x51
 6204 02ca 24000000 		.4byte	.LVL67
 6205 02ce 2D000000 		.4byte	.LVL69-1
 6206 02d2 0500     		.2byte	0x5
 6207 02d4 03       		.byte	0x3
 6208 02d5 02000000 		.4byte	data+2
 6209 02d9 2D000000 		.4byte	.LVL69-1
 6210 02dd 8C000000 		.4byte	.LFE75
 6211 02e1 0400     		.2byte	0x4
 6212 02e3 F3       		.byte	0xf3
 6213 02e4 01       		.uleb128 0x1
 6214 02e5 51       		.byte	0x51
 6215 02e6 9F       		.byte	0x9f
 6216 02e7 00000000 		.4byte	0
 6217 02eb 00000000 		.4byte	0
 6218              	.LLST19:
 6219 02ef 1E000000 		.4byte	.LVL72
 6220 02f3 20000000 		.4byte	.LVL73
 6221 02f7 0200     		.2byte	0x2
 6222 02f9 31       		.byte	0x31
 6223 02fa 9F       		.byte	0x9f
 6224 02fb 20000000 		.4byte	.LVL73
 6225 02ff 8A000000 		.4byte	.LVL81
 6226 0303 0100     		.2byte	0x1
 6227 0305 55       		.byte	0x55
 6228 0306 8C000000 		.4byte	.LVL82
 6229 030a 94000000 		.4byte	.LVL83
 6230 030e 0100     		.2byte	0x1
 6231 0310 55       		.byte	0x55
 6232 0311 00000000 		.4byte	0
 6233 0315 00000000 		.4byte	0
 6234              	.LLST20:
 6235 0319 00000000 		.4byte	.LVL84
 6236 031d 30000000 		.4byte	.LVL85
 6237 0321 0100     		.2byte	0x1
 6238 0323 50       		.byte	0x50
 6239 0324 30000000 		.4byte	.LVL85
 6240 0328 33000000 		.4byte	.LVL86-1
 6241 032c 0500     		.2byte	0x5
 6242 032e 03       		.byte	0x3
 6243 032f 00000000 		.4byte	pID
 6244 0333 33000000 		.4byte	.LVL86-1
 6245 0337 98000000 		.4byte	.LFE77
 6246 033b 0400     		.2byte	0x4
 6247 033d F3       		.byte	0xf3
 6248 033e 01       		.uleb128 0x1
 6249 033f 50       		.byte	0x50
 6250 0340 9F       		.byte	0x9f
 6251 0341 00000000 		.4byte	0
 6252 0345 00000000 		.4byte	0
 6253              	.LLST21:
 6254 0349 00000000 		.4byte	.LVL89
 6255 034d 0C000000 		.4byte	.LVL91
ARM GAS  C:\Users\EDTRIC~1\AppData\Local\Temp\ccXQQyjM.s 			page 128


 6256 0351 0100     		.2byte	0x1
 6257 0353 50       		.byte	0x50
 6258 0354 0C000000 		.4byte	.LVL91
 6259 0358 4E000000 		.4byte	.LVL105
 6260 035c 0400     		.2byte	0x4
 6261 035e F3       		.byte	0xf3
 6262 035f 01       		.uleb128 0x1
 6263 0360 50       		.byte	0x50
 6264 0361 9F       		.byte	0x9f
 6265 0362 4E000000 		.4byte	.LVL105
 6266 0366 50000000 		.4byte	.LFE78
 6267 036a 0100     		.2byte	0x1
 6268 036c 50       		.byte	0x50
 6269 036d 00000000 		.4byte	0
 6270 0371 00000000 		.4byte	0
 6271              	.LLST22:
 6272 0375 00000000 		.4byte	.LVL89
 6273 0379 10000000 		.4byte	.LVL92
 6274 037d 0100     		.2byte	0x1
 6275 037f 51       		.byte	0x51
 6276 0380 10000000 		.4byte	.LVL92
 6277 0384 4E000000 		.4byte	.LVL105
 6278 0388 0400     		.2byte	0x4
 6279 038a F3       		.byte	0xf3
 6280 038b 01       		.uleb128 0x1
 6281 038c 51       		.byte	0x51
 6282 038d 9F       		.byte	0x9f
 6283 038e 4E000000 		.4byte	.LVL105
 6284 0392 50000000 		.4byte	.LFE78
 6285 0396 0100     		.2byte	0x1
 6286 0398 51       		.byte	0x51
 6287 0399 00000000 		.4byte	0
 6288 039d 00000000 		.4byte	0
 6289              	.LLST23:
 6290 03a1 00000000 		.4byte	.LVL89
 6291 03a5 20000000 		.4byte	.LVL93
 6292 03a9 0100     		.2byte	0x1
 6293 03ab 52       		.byte	0x52
 6294 03ac 20000000 		.4byte	.LVL93
 6295 03b0 24000000 		.4byte	.LVL94
 6296 03b4 0400     		.2byte	0x4
 6297 03b6 F3       		.byte	0xf3
 6298 03b7 01       		.uleb128 0x1
 6299 03b8 52       		.byte	0x52
 6300 03b9 9F       		.byte	0x9f
 6301 03ba 24000000 		.4byte	.LVL94
 6302 03be 28000000 		.4byte	.LVL95
 6303 03c2 0100     		.2byte	0x1
 6304 03c4 52       		.byte	0x52
 6305 03c5 28000000 		.4byte	.LVL95
 6306 03c9 2C000000 		.4byte	.LVL96
 6307 03cd 0400     		.2byte	0x4
 6308 03cf F3       		.byte	0xf3
 6309 03d0 01       		.uleb128 0x1
 6310 03d1 52       		.byte	0x52
 6311 03d2 9F       		.byte	0x9f
 6312 03d3 2C000000 		.4byte	.LVL96
ARM GAS  C:\Users\EDTRIC~1\AppData\Local\Temp\ccXQQyjM.s 			page 129


 6313 03d7 30000000 		.4byte	.LVL97
 6314 03db 0100     		.2byte	0x1
 6315 03dd 52       		.byte	0x52
 6316 03de 30000000 		.4byte	.LVL97
 6317 03e2 34000000 		.4byte	.LVL98
 6318 03e6 0400     		.2byte	0x4
 6319 03e8 F3       		.byte	0xf3
 6320 03e9 01       		.uleb128 0x1
 6321 03ea 52       		.byte	0x52
 6322 03eb 9F       		.byte	0x9f
 6323 03ec 34000000 		.4byte	.LVL98
 6324 03f0 38000000 		.4byte	.LVL99
 6325 03f4 0100     		.2byte	0x1
 6326 03f6 52       		.byte	0x52
 6327 03f7 38000000 		.4byte	.LVL99
 6328 03fb 4E000000 		.4byte	.LVL105
 6329 03ff 0400     		.2byte	0x4
 6330 0401 F3       		.byte	0xf3
 6331 0402 01       		.uleb128 0x1
 6332 0403 52       		.byte	0x52
 6333 0404 9F       		.byte	0x9f
 6334 0405 4E000000 		.4byte	.LVL105
 6335 0409 50000000 		.4byte	.LFE78
 6336 040d 0100     		.2byte	0x1
 6337 040f 52       		.byte	0x52
 6338 0410 00000000 		.4byte	0
 6339 0414 00000000 		.4byte	0
 6340              	.LLST24:
 6341 0418 0A000000 		.4byte	.LVL90
 6342 041c 4E000000 		.4byte	.LVL105
 6343 0420 0200     		.2byte	0x2
 6344 0422 30       		.byte	0x30
 6345 0423 9F       		.byte	0x9f
 6346 0424 00000000 		.4byte	0
 6347 0428 00000000 		.4byte	0
 6348              	.LLST26:
 6349 042c 0C000000 		.4byte	.LVL91
 6350 0430 4B000000 		.4byte	.LVL104-1
 6351 0434 0100     		.2byte	0x1
 6352 0436 50       		.byte	0x50
 6353 0437 4B000000 		.4byte	.LVL104-1
 6354 043b 4E000000 		.4byte	.LVL105
 6355 043f 0700     		.2byte	0x7
 6356 0441 F3       		.byte	0xf3
 6357 0442 01       		.uleb128 0x1
 6358 0443 51       		.byte	0x51
 6359 0444 08       		.byte	0x8
 6360 0445 FF       		.byte	0xff
 6361 0446 1A       		.byte	0x1a
 6362 0447 9F       		.byte	0x9f
 6363 0448 00000000 		.4byte	0
 6364 044c 00000000 		.4byte	0
 6365              	.LLST27:
 6366 0450 10000000 		.4byte	.LVL92
 6367 0454 4B000000 		.4byte	.LVL104-1
 6368 0458 0100     		.2byte	0x1
 6369 045a 51       		.byte	0x51
ARM GAS  C:\Users\EDTRIC~1\AppData\Local\Temp\ccXQQyjM.s 			page 130


 6370 045b 4B000000 		.4byte	.LVL104-1
 6371 045f 4E000000 		.4byte	.LVL105
 6372 0463 0A00     		.2byte	0xa
 6373 0465 F3       		.byte	0xf3
 6374 0466 01       		.uleb128 0x1
 6375 0467 51       		.byte	0x51
 6376 0468 09       		.byte	0x9
 6377 0469 F4       		.byte	0xf4
 6378 046a 24       		.byte	0x24
 6379 046b 09       		.byte	0x9
 6380 046c FC       		.byte	0xfc
 6381 046d 25       		.byte	0x25
 6382 046e 9F       		.byte	0x9f
 6383 046f 00000000 		.4byte	0
 6384 0473 00000000 		.4byte	0
 6385              	.LLST28:
 6386 0477 10000000 		.4byte	.LVL92
 6387 047b 24000000 		.4byte	.LVL94
 6388 047f 0200     		.2byte	0x2
 6389 0481 30       		.byte	0x30
 6390 0482 9F       		.byte	0x9f
 6391 0483 24000000 		.4byte	.LVL94
 6392 0487 2C000000 		.4byte	.LVL96
 6393 048b 0200     		.2byte	0x2
 6394 048d 31       		.byte	0x31
 6395 048e 9F       		.byte	0x9f
 6396 048f 2C000000 		.4byte	.LVL96
 6397 0493 3A000000 		.4byte	.LVL100
 6398 0497 0200     		.2byte	0x2
 6399 0499 30       		.byte	0x30
 6400 049a 9F       		.byte	0x9f
 6401 049b 3A000000 		.4byte	.LVL100
 6402 049f 3C000000 		.4byte	.LVL101
 6403 04a3 0100     		.2byte	0x1
 6404 04a5 54       		.byte	0x54
 6405 04a6 00000000 		.4byte	0
 6406 04aa 00000000 		.4byte	0
 6407              	.LLST29:
 6408 04ae 10000000 		.4byte	.LVL92
 6409 04b2 3A000000 		.4byte	.LVL100
 6410 04b6 0200     		.2byte	0x2
 6411 04b8 30       		.byte	0x30
 6412 04b9 9F       		.byte	0x9f
 6413 04ba 3A000000 		.4byte	.LVL100
 6414 04be 44000000 		.4byte	.LVL102
 6415 04c2 0100     		.2byte	0x1
 6416 04c4 52       		.byte	0x52
 6417 04c5 00000000 		.4byte	0
 6418 04c9 00000000 		.4byte	0
 6419              	.LLST30:
 6420 04cd 10000000 		.4byte	.LVL92
 6421 04d1 2C000000 		.4byte	.LVL96
 6422 04d5 0200     		.2byte	0x2
 6423 04d7 30       		.byte	0x30
 6424 04d8 9F       		.byte	0x9f
 6425 04d9 2C000000 		.4byte	.LVL96
 6426 04dd 34000000 		.4byte	.LVL98
ARM GAS  C:\Users\EDTRIC~1\AppData\Local\Temp\ccXQQyjM.s 			page 131


 6427 04e1 0200     		.2byte	0x2
 6428 04e3 31       		.byte	0x31
 6429 04e4 9F       		.byte	0x9f
 6430 04e5 34000000 		.4byte	.LVL98
 6431 04e9 3A000000 		.4byte	.LVL100
 6432 04ed 0200     		.2byte	0x2
 6433 04ef 30       		.byte	0x30
 6434 04f0 9F       		.byte	0x9f
 6435 04f1 3A000000 		.4byte	.LVL100
 6436 04f5 4E000000 		.4byte	.LVL105
 6437 04f9 0100     		.2byte	0x1
 6438 04fb 55       		.byte	0x55
 6439 04fc 00000000 		.4byte	0
 6440 0500 00000000 		.4byte	0
 6441              	.LLST31:
 6442 0504 44000000 		.4byte	.LVL102
 6443 0508 48000000 		.4byte	.LVL103
 6444 050c 0100     		.2byte	0x1
 6445 050e 52       		.byte	0x52
 6446 050f 48000000 		.4byte	.LVL103
 6447 0513 4E000000 		.4byte	.LVL105
 6448 0517 0800     		.2byte	0x8
 6449 0519 75       		.byte	0x75
 6450 051a 00       		.sleb128 0
 6451 051b 34       		.byte	0x34
 6452 051c 24       		.byte	0x24
 6453 051d 74       		.byte	0x74
 6454 051e 00       		.sleb128 0
 6455 051f 22       		.byte	0x22
 6456 0520 9F       		.byte	0x9f
 6457 0521 00000000 		.4byte	0
 6458 0525 00000000 		.4byte	0
 6459              	.LLST32:
 6460 0529 00000000 		.4byte	.LVL106
 6461 052d 0A000000 		.4byte	.LVL107
 6462 0531 0100     		.2byte	0x1
 6463 0533 50       		.byte	0x50
 6464 0534 0A000000 		.4byte	.LVL107
 6465 0538 50000000 		.4byte	.LFE79
 6466 053c 0400     		.2byte	0x4
 6467 053e F3       		.byte	0xf3
 6468 053f 01       		.uleb128 0x1
 6469 0540 50       		.byte	0x50
 6470 0541 9F       		.byte	0x9f
 6471 0542 00000000 		.4byte	0
 6472 0546 00000000 		.4byte	0
 6473              	.LLST33:
 6474 054a 00000000 		.4byte	.LVL106
 6475 054e 0C000000 		.4byte	.LVL108
 6476 0552 0100     		.2byte	0x1
 6477 0554 51       		.byte	0x51
 6478 0555 0C000000 		.4byte	.LVL108
 6479 0559 0F000000 		.4byte	.LVL109-1
 6480 055d 0100     		.2byte	0x1
 6481 055f 50       		.byte	0x50
 6482 0560 0F000000 		.4byte	.LVL109-1
 6483 0564 3E000000 		.4byte	.LVL116
ARM GAS  C:\Users\EDTRIC~1\AppData\Local\Temp\ccXQQyjM.s 			page 132


 6484 0568 0100     		.2byte	0x1
 6485 056a 54       		.byte	0x54
 6486 056b 3E000000 		.4byte	.LVL116
 6487 056f 50000000 		.4byte	.LFE79
 6488 0573 0600     		.2byte	0x6
 6489 0575 F3       		.byte	0xf3
 6490 0576 03       		.uleb128 0x3
 6491 0577 F5       		.byte	0xf5
 6492 0578 01       		.uleb128 0x1
 6493 0579 25       		.uleb128 0x25
 6494 057a 9F       		.byte	0x9f
 6495 057b 00000000 		.4byte	0
 6496 057f 00000000 		.4byte	0
 6497              	.LLST34:
 6498 0583 00000000 		.4byte	.LVL106
 6499 0587 0F000000 		.4byte	.LVL109-1
 6500 058b 0100     		.2byte	0x1
 6501 058d 52       		.byte	0x52
 6502 058e 0F000000 		.4byte	.LVL109-1
 6503 0592 50000000 		.4byte	.LFE79
 6504 0596 0400     		.2byte	0x4
 6505 0598 F3       		.byte	0xf3
 6506 0599 01       		.uleb128 0x1
 6507 059a 52       		.byte	0x52
 6508 059b 9F       		.byte	0x9f
 6509 059c 00000000 		.4byte	0
 6510 05a0 00000000 		.4byte	0
 6511              	.LLST35:
 6512 05a4 34000000 		.4byte	.LVL114
 6513 05a8 3B000000 		.4byte	.LVL115-1
 6514 05ac 0100     		.2byte	0x1
 6515 05ae 51       		.byte	0x51
 6516 05af 00000000 		.4byte	0
 6517 05b3 00000000 		.4byte	0
 6518              	.LLST36:
 6519 05b7 00000000 		.4byte	.LVL117
 6520 05bb 0C000000 		.4byte	.LVL118
 6521 05bf 0100     		.2byte	0x1
 6522 05c1 50       		.byte	0x50
 6523 05c2 0C000000 		.4byte	.LVL118
 6524 05c6 60000000 		.4byte	.LFE80
 6525 05ca 0400     		.2byte	0x4
 6526 05cc F3       		.byte	0xf3
 6527 05cd 01       		.uleb128 0x1
 6528 05ce 50       		.byte	0x50
 6529 05cf 9F       		.byte	0x9f
 6530 05d0 00000000 		.4byte	0
 6531 05d4 00000000 		.4byte	0
 6532              	.LLST37:
 6533 05d8 00000000 		.4byte	.LVL117
 6534 05dc 16000000 		.4byte	.LVL120
 6535 05e0 0100     		.2byte	0x1
 6536 05e2 51       		.byte	0x51
 6537 05e3 16000000 		.4byte	.LVL120
 6538 05e7 1A000000 		.4byte	.LVL121
 6539 05eb 0400     		.2byte	0x4
 6540 05ed 71       		.byte	0x71
ARM GAS  C:\Users\EDTRIC~1\AppData\Local\Temp\ccXQQyjM.s 			page 133


 6541 05ee 00       		.sleb128 0
 6542 05ef 1F       		.byte	0x1f
 6543 05f0 9F       		.byte	0x9f
 6544 05f1 1A000000 		.4byte	.LVL121
 6545 05f5 30000000 		.4byte	.LVL124
 6546 05f9 0400     		.2byte	0x4
 6547 05fb 74       		.byte	0x74
 6548 05fc 8178     		.sleb128 -1023
 6549 05fe 9F       		.byte	0x9f
 6550 05ff 30000000 		.4byte	.LVL124
 6551 0603 60000000 		.4byte	.LFE80
 6552 0607 0400     		.2byte	0x4
 6553 0609 F3       		.byte	0xf3
 6554 060a 01       		.uleb128 0x1
 6555 060b 51       		.byte	0x51
 6556 060c 9F       		.byte	0x9f
 6557 060d 00000000 		.4byte	0
 6558 0611 00000000 		.4byte	0
 6559              	.LLST38:
 6560 0615 00000000 		.4byte	.LVL117
 6561 0619 32000000 		.4byte	.LVL125
 6562 061d 0100     		.2byte	0x1
 6563 061f 52       		.byte	0x52
 6564 0620 32000000 		.4byte	.LVL125
 6565 0624 34000000 		.4byte	.LVL126
 6566 0628 0400     		.2byte	0x4
 6567 062a F3       		.byte	0xf3
 6568 062b 01       		.uleb128 0x1
 6569 062c 52       		.byte	0x52
 6570 062d 9F       		.byte	0x9f
 6571 062e 34000000 		.4byte	.LVL126
 6572 0632 3A000000 		.4byte	.LVL127
 6573 0636 0100     		.2byte	0x1
 6574 0638 52       		.byte	0x52
 6575 0639 3A000000 		.4byte	.LVL127
 6576 063d 3C000000 		.4byte	.LVL128
 6577 0641 0400     		.2byte	0x4
 6578 0643 F3       		.byte	0xf3
 6579 0644 01       		.uleb128 0x1
 6580 0645 52       		.byte	0x52
 6581 0646 9F       		.byte	0x9f
 6582 0647 3C000000 		.4byte	.LVL128
 6583 064b 42000000 		.4byte	.LVL129
 6584 064f 0100     		.2byte	0x1
 6585 0651 52       		.byte	0x52
 6586 0652 42000000 		.4byte	.LVL129
 6587 0656 44000000 		.4byte	.LVL130
 6588 065a 0400     		.2byte	0x4
 6589 065c F3       		.byte	0xf3
 6590 065d 01       		.uleb128 0x1
 6591 065e 52       		.byte	0x52
 6592 065f 9F       		.byte	0x9f
 6593 0660 44000000 		.4byte	.LVL130
 6594 0664 4A000000 		.4byte	.LVL131
 6595 0668 0100     		.2byte	0x1
 6596 066a 52       		.byte	0x52
 6597 066b 4A000000 		.4byte	.LVL131
ARM GAS  C:\Users\EDTRIC~1\AppData\Local\Temp\ccXQQyjM.s 			page 134


 6598 066f 60000000 		.4byte	.LFE80
 6599 0673 0400     		.2byte	0x4
 6600 0675 F3       		.byte	0xf3
 6601 0676 01       		.uleb128 0x1
 6602 0677 52       		.byte	0x52
 6603 0678 9F       		.byte	0x9f
 6604 0679 00000000 		.4byte	0
 6605 067d 00000000 		.4byte	0
 6606              	.LLST39:
 6607 0681 10000000 		.4byte	.LVL119
 6608 0685 5E000000 		.4byte	.LVL135
 6609 0689 0200     		.2byte	0x2
 6610 068b 31       		.byte	0x31
 6611 068c 9F       		.byte	0x9f
 6612 068d 00000000 		.4byte	0
 6613 0691 00000000 		.4byte	0
 6614              	.LLST40:
 6615 0695 10000000 		.4byte	.LVL119
 6616 0699 5E000000 		.4byte	.LVL135
 6617 069d 0200     		.2byte	0x2
 6618 069f 30       		.byte	0x30
 6619 06a0 9F       		.byte	0x9f
 6620 06a1 00000000 		.4byte	0
 6621 06a5 00000000 		.4byte	0
 6622              	.LLST41:
 6623 06a9 16000000 		.4byte	.LVL120
 6624 06ad 20000000 		.4byte	.LVL123
 6625 06b1 0100     		.2byte	0x1
 6626 06b3 51       		.byte	0x51
 6627 06b4 00000000 		.4byte	0
 6628 06b8 00000000 		.4byte	0
 6629              	.LLST42:
 6630 06bc 1C000000 		.4byte	.LVL122
 6631 06c0 5D000000 		.4byte	.LVL135-1
 6632 06c4 0100     		.2byte	0x1
 6633 06c6 50       		.byte	0x50
 6634 06c7 00000000 		.4byte	0
 6635 06cb 00000000 		.4byte	0
 6636              	.LLST43:
 6637 06cf 20000000 		.4byte	.LVL123
 6638 06d3 5D000000 		.4byte	.LVL135-1
 6639 06d7 0100     		.2byte	0x1
 6640 06d9 51       		.byte	0x51
 6641 06da 00000000 		.4byte	0
 6642 06de 00000000 		.4byte	0
 6643              	.LLST44:
 6644 06e2 20000000 		.4byte	.LVL123
 6645 06e6 34000000 		.4byte	.LVL126
 6646 06ea 0200     		.2byte	0x2
 6647 06ec 30       		.byte	0x30
 6648 06ed 9F       		.byte	0x9f
 6649 06ee 34000000 		.4byte	.LVL126
 6650 06f2 3C000000 		.4byte	.LVL128
 6651 06f6 0200     		.2byte	0x2
 6652 06f8 31       		.byte	0x31
 6653 06f9 9F       		.byte	0x9f
 6654 06fa 3C000000 		.4byte	.LVL128
ARM GAS  C:\Users\EDTRIC~1\AppData\Local\Temp\ccXQQyjM.s 			page 135


 6655 06fe 4A000000 		.4byte	.LVL131
 6656 0702 0200     		.2byte	0x2
 6657 0704 30       		.byte	0x30
 6658 0705 9F       		.byte	0x9f
 6659 0706 4A000000 		.4byte	.LVL131
 6660 070a 56000000 		.4byte	.LVL133
 6661 070e 0100     		.2byte	0x1
 6662 0710 52       		.byte	0x52
 6663 0711 00000000 		.4byte	0
 6664 0715 00000000 		.4byte	0
 6665              	.LLST45:
 6666 0719 20000000 		.4byte	.LVL123
 6667 071d 4A000000 		.4byte	.LVL131
 6668 0721 0200     		.2byte	0x2
 6669 0723 30       		.byte	0x30
 6670 0724 9F       		.byte	0x9f
 6671 0725 4A000000 		.4byte	.LVL131
 6672 0729 4C000000 		.4byte	.LVL132
 6673 072d 0100     		.2byte	0x1
 6674 072f 54       		.byte	0x54
 6675 0730 00000000 		.4byte	0
 6676 0734 00000000 		.4byte	0
 6677              	.LLST46:
 6678 0738 20000000 		.4byte	.LVL123
 6679 073c 3C000000 		.4byte	.LVL128
 6680 0740 0200     		.2byte	0x2
 6681 0742 30       		.byte	0x30
 6682 0743 9F       		.byte	0x9f
 6683 0744 3C000000 		.4byte	.LVL128
 6684 0748 44000000 		.4byte	.LVL130
 6685 074c 0200     		.2byte	0x2
 6686 074e 31       		.byte	0x31
 6687 074f 9F       		.byte	0x9f
 6688 0750 44000000 		.4byte	.LVL130
 6689 0754 4A000000 		.4byte	.LVL131
 6690 0758 0200     		.2byte	0x2
 6691 075a 30       		.byte	0x30
 6692 075b 9F       		.byte	0x9f
 6693 075c 4A000000 		.4byte	.LVL131
 6694 0760 5E000000 		.4byte	.LVL135
 6695 0764 0100     		.2byte	0x1
 6696 0766 55       		.byte	0x55
 6697 0767 00000000 		.4byte	0
 6698 076b 00000000 		.4byte	0
 6699              	.LLST47:
 6700 076f 56000000 		.4byte	.LVL133
 6701 0773 5A000000 		.4byte	.LVL134
 6702 0777 0100     		.2byte	0x1
 6703 0779 52       		.byte	0x52
 6704 077a 5A000000 		.4byte	.LVL134
 6705 077e 5E000000 		.4byte	.LVL135
 6706 0782 0800     		.2byte	0x8
 6707 0784 75       		.byte	0x75
 6708 0785 00       		.sleb128 0
 6709 0786 34       		.byte	0x34
 6710 0787 24       		.byte	0x24
 6711 0788 74       		.byte	0x74
ARM GAS  C:\Users\EDTRIC~1\AppData\Local\Temp\ccXQQyjM.s 			page 136


 6712 0789 00       		.sleb128 0
 6713 078a 22       		.byte	0x22
 6714 078b 9F       		.byte	0x9f
 6715 078c 00000000 		.4byte	0
 6716 0790 00000000 		.4byte	0
 6717              	.LLST48:
 6718 0794 00000000 		.4byte	.LVL136
 6719 0798 23000000 		.4byte	.LVL137-1
 6720 079c 0100     		.2byte	0x1
 6721 079e 50       		.byte	0x50
 6722 079f 23000000 		.4byte	.LVL137-1
 6723 07a3 D0000000 		.4byte	.LFE81
 6724 07a7 0400     		.2byte	0x4
 6725 07a9 F3       		.byte	0xf3
 6726 07aa 01       		.uleb128 0x1
 6727 07ab 50       		.byte	0x50
 6728 07ac 9F       		.byte	0x9f
 6729 07ad 00000000 		.4byte	0
 6730 07b1 00000000 		.4byte	0
 6731              	.LLST49:
 6732 07b5 7C000000 		.4byte	.LVL143
 6733 07b9 80000000 		.4byte	.LVL144
 6734 07bd 0200     		.2byte	0x2
 6735 07bf 30       		.byte	0x30
 6736 07c0 9F       		.byte	0x9f
 6737 07c1 80000000 		.4byte	.LVL144
 6738 07c5 8E000000 		.4byte	.LVL145
 6739 07c9 0100     		.2byte	0x1
 6740 07cb 53       		.byte	0x53
 6741 07cc 90000000 		.4byte	.LVL146
 6742 07d0 9D000000 		.4byte	.LVL147-1
 6743 07d4 0100     		.2byte	0x1
 6744 07d6 53       		.byte	0x53
 6745 07d7 00000000 		.4byte	0
 6746 07db 00000000 		.4byte	0
 6747              	.LLST50:
 6748 07df 00000000 		.4byte	.LVL148
 6749 07e3 2E000000 		.4byte	.LVL150
 6750 07e7 0100     		.2byte	0x1
 6751 07e9 50       		.byte	0x50
 6752 07ea 2E000000 		.4byte	.LVL150
 6753 07ee 31000000 		.4byte	.LVL151-1
 6754 07f2 0500     		.2byte	0x5
 6755 07f4 03       		.byte	0x3
 6756 07f5 00000000 		.4byte	pID
 6757 07f9 31000000 		.4byte	.LVL151-1
 6758 07fd 0C010000 		.4byte	.LFE82
 6759 0801 0400     		.2byte	0x4
 6760 0803 F3       		.byte	0xf3
 6761 0804 01       		.uleb128 0x1
 6762 0805 50       		.byte	0x50
 6763 0806 9F       		.byte	0x9f
 6764 0807 00000000 		.4byte	0
 6765 080b 00000000 		.4byte	0
 6766              	.LLST51:
 6767 080f 06000000 		.4byte	.LVL149
 6768 0813 D8000000 		.4byte	.LVL158
ARM GAS  C:\Users\EDTRIC~1\AppData\Local\Temp\ccXQQyjM.s 			page 137


 6769 0817 0200     		.2byte	0x2
 6770 0819 30       		.byte	0x30
 6771 081a 9F       		.byte	0x9f
 6772 081b DA000000 		.4byte	.LVL159
 6773 081f E4000000 		.4byte	.LVL160
 6774 0823 0200     		.2byte	0x2
 6775 0825 30       		.byte	0x30
 6776 0826 9F       		.byte	0x9f
 6777 0827 00000000 		.4byte	0
 6778 082b 00000000 		.4byte	0
 6779              	.LLST52:
 6780 082f 00000000 		.4byte	.LVL161
 6781 0833 05000000 		.4byte	.LVL162-1
 6782 0837 0100     		.2byte	0x1
 6783 0839 50       		.byte	0x50
 6784 083a 05000000 		.4byte	.LVL162-1
 6785 083e 28000000 		.4byte	.LFE83
 6786 0842 0400     		.2byte	0x4
 6787 0844 F3       		.byte	0xf3
 6788 0845 01       		.uleb128 0x1
 6789 0846 50       		.byte	0x50
 6790 0847 9F       		.byte	0x9f
 6791 0848 00000000 		.4byte	0
 6792 084c 00000000 		.4byte	0
 6793              	.LLST53:
 6794 0850 06000000 		.4byte	.LVL162
 6795 0854 0A000000 		.4byte	.LVL163
 6796 0858 0100     		.2byte	0x1
 6797 085a 50       		.byte	0x50
 6798 085b 0A000000 		.4byte	.LVL163
 6799 085f 0D000000 		.4byte	.LVL164-1
 6800 0863 0400     		.2byte	0x4
 6801 0865 70       		.byte	0x70
 6802 0866 8004     		.sleb128 512
 6803 0868 9F       		.byte	0x9f
 6804 0869 00000000 		.4byte	0
 6805 086d 00000000 		.4byte	0
 6806              	.LLST54:
 6807 0871 00000000 		.4byte	.LVL167
 6808 0875 2E000000 		.4byte	.LVL169
 6809 0879 0100     		.2byte	0x1
 6810 087b 50       		.byte	0x50
 6811 087c 2E000000 		.4byte	.LVL169
 6812 0880 31000000 		.4byte	.LVL170-1
 6813 0884 0500     		.2byte	0x5
 6814 0886 03       		.byte	0x3
 6815 0887 00000000 		.4byte	pID
 6816 088b 31000000 		.4byte	.LVL170-1
 6817 088f 08010000 		.4byte	.LFE84
 6818 0893 0400     		.2byte	0x4
 6819 0895 F3       		.byte	0xf3
 6820 0896 01       		.uleb128 0x1
 6821 0897 50       		.byte	0x50
 6822 0898 9F       		.byte	0x9f
 6823 0899 00000000 		.4byte	0
 6824 089d 00000000 		.4byte	0
 6825              	.LLST55:
ARM GAS  C:\Users\EDTRIC~1\AppData\Local\Temp\ccXQQyjM.s 			page 138


 6826 08a1 06000000 		.4byte	.LVL168
 6827 08a5 D4000000 		.4byte	.LVL177
 6828 08a9 0200     		.2byte	0x2
 6829 08ab 30       		.byte	0x30
 6830 08ac 9F       		.byte	0x9f
 6831 08ad D6000000 		.4byte	.LVL178
 6832 08b1 E0000000 		.4byte	.LVL179
 6833 08b5 0200     		.2byte	0x2
 6834 08b7 30       		.byte	0x30
 6835 08b8 9F       		.byte	0x9f
 6836 08b9 00000000 		.4byte	0
 6837 08bd 00000000 		.4byte	0
 6838              	.LLST56:
 6839 08c1 00000000 		.4byte	.LVL180
 6840 08c5 3C000000 		.4byte	.LVL181
 6841 08c9 0100     		.2byte	0x1
 6842 08cb 50       		.byte	0x50
 6843 08cc 3C000000 		.4byte	.LVL181
 6844 08d0 3F000000 		.4byte	.LVL182-1
 6845 08d4 0500     		.2byte	0x5
 6846 08d6 03       		.byte	0x3
 6847 08d7 00000000 		.4byte	pID
 6848 08db 3F000000 		.4byte	.LVL182-1
 6849 08df 5C000000 		.4byte	.LFE85
 6850 08e3 0400     		.2byte	0x4
 6851 08e5 F3       		.byte	0xf3
 6852 08e6 01       		.uleb128 0x1
 6853 08e7 50       		.byte	0x50
 6854 08e8 9F       		.byte	0x9f
 6855 08e9 00000000 		.4byte	0
 6856 08ed 00000000 		.4byte	0
 6857              	.LLST57:
 6858 08f1 00000000 		.4byte	.LVL183
 6859 08f5 2A000000 		.4byte	.LVL184
 6860 08f9 0100     		.2byte	0x1
 6861 08fb 50       		.byte	0x50
 6862 08fc 2A000000 		.4byte	.LVL184
 6863 0900 2F000000 		.4byte	.LVL186-1
 6864 0904 0500     		.2byte	0x5
 6865 0906 03       		.byte	0x3
 6866 0907 00000000 		.4byte	pID
 6867 090b 2F000000 		.4byte	.LVL186-1
 6868 090f 90000000 		.4byte	.LFE86
 6869 0913 0400     		.2byte	0x4
 6870 0915 F3       		.byte	0xf3
 6871 0916 01       		.uleb128 0x1
 6872 0917 50       		.byte	0x50
 6873 0918 9F       		.byte	0x9f
 6874 0919 00000000 		.4byte	0
 6875 091d 00000000 		.4byte	0
 6876              	.LLST58:
 6877 0921 00000000 		.4byte	.LVL183
 6878 0925 2C000000 		.4byte	.LVL185
 6879 0929 0100     		.2byte	0x1
 6880 092b 51       		.byte	0x51
 6881 092c 2C000000 		.4byte	.LVL185
 6882 0930 2F000000 		.4byte	.LVL186-1
ARM GAS  C:\Users\EDTRIC~1\AppData\Local\Temp\ccXQQyjM.s 			page 139


 6883 0934 0500     		.2byte	0x5
 6884 0936 03       		.byte	0x3
 6885 0937 02000000 		.4byte	data+2
 6886 093b 2F000000 		.4byte	.LVL186-1
 6887 093f 90000000 		.4byte	.LFE86
 6888 0943 0400     		.2byte	0x4
 6889 0945 F3       		.byte	0xf3
 6890 0946 01       		.uleb128 0x1
 6891 0947 51       		.byte	0x51
 6892 0948 9F       		.byte	0x9f
 6893 0949 00000000 		.4byte	0
 6894 094d 00000000 		.4byte	0
 6895              	.LLST59:
 6896 0951 00000000 		.4byte	.LVL189
 6897 0955 5A000000 		.4byte	.LVL204
 6898 0959 0100     		.2byte	0x1
 6899 095b 50       		.byte	0x50
 6900 095c 5A000000 		.4byte	.LVL204
 6901 0960 1C010000 		.4byte	.LFE87
 6902 0964 0400     		.2byte	0x4
 6903 0966 F3       		.byte	0xf3
 6904 0967 01       		.uleb128 0x1
 6905 0968 50       		.byte	0x50
 6906 0969 9F       		.byte	0x9f
 6907 096a 00000000 		.4byte	0
 6908 096e 00000000 		.4byte	0
 6909              	.LLST60:
 6910 0972 00000000 		.4byte	.LVL189
 6911 0976 12000000 		.4byte	.LVL190
 6912 097a 0100     		.2byte	0x1
 6913 097c 51       		.byte	0x51
 6914 097d 12000000 		.4byte	.LVL190
 6915 0981 98000000 		.4byte	.LVL209
 6916 0985 0100     		.2byte	0x1
 6917 0987 55       		.byte	0x55
 6918 0988 98000000 		.4byte	.LVL209
 6919 098c 1C010000 		.4byte	.LFE87
 6920 0990 0400     		.2byte	0x4
 6921 0992 F3       		.byte	0xf3
 6922 0993 01       		.uleb128 0x1
 6923 0994 51       		.byte	0x51
 6924 0995 9F       		.byte	0x9f
 6925 0996 00000000 		.4byte	0
 6926 099a 00000000 		.4byte	0
 6927              	.LLST61:
 6928 099e 00000000 		.4byte	.LVL189
 6929 09a2 5D000000 		.4byte	.LVL205-1
 6930 09a6 0100     		.2byte	0x1
 6931 09a8 52       		.byte	0x52
 6932 09a9 5D000000 		.4byte	.LVL205-1
 6933 09ad 1C010000 		.4byte	.LFE87
 6934 09b1 0400     		.2byte	0x4
 6935 09b3 F3       		.byte	0xf3
 6936 09b4 01       		.uleb128 0x1
 6937 09b5 52       		.byte	0x52
 6938 09b6 9F       		.byte	0x9f
 6939 09b7 00000000 		.4byte	0
ARM GAS  C:\Users\EDTRIC~1\AppData\Local\Temp\ccXQQyjM.s 			page 140


 6940 09bb 00000000 		.4byte	0
 6941              	.LLST62:
 6942 09bf 00000000 		.4byte	.LVL189
 6943 09c3 2C000000 		.4byte	.LVL193
 6944 09c7 0100     		.2byte	0x1
 6945 09c9 53       		.byte	0x53
 6946 09ca 2C000000 		.4byte	.LVL193
 6947 09ce 30000000 		.4byte	.LVL194
 6948 09d2 0400     		.2byte	0x4
 6949 09d4 F3       		.byte	0xf3
 6950 09d5 01       		.uleb128 0x1
 6951 09d6 53       		.byte	0x53
 6952 09d7 9F       		.byte	0x9f
 6953 09d8 30000000 		.4byte	.LVL194
 6954 09dc 36000000 		.4byte	.LVL195
 6955 09e0 0100     		.2byte	0x1
 6956 09e2 53       		.byte	0x53
 6957 09e3 36000000 		.4byte	.LVL195
 6958 09e7 3A000000 		.4byte	.LVL196
 6959 09eb 0400     		.2byte	0x4
 6960 09ed F3       		.byte	0xf3
 6961 09ee 01       		.uleb128 0x1
 6962 09ef 53       		.byte	0x53
 6963 09f0 9F       		.byte	0x9f
 6964 09f1 3A000000 		.4byte	.LVL196
 6965 09f5 40000000 		.4byte	.LVL197
 6966 09f9 0100     		.2byte	0x1
 6967 09fb 53       		.byte	0x53
 6968 09fc 40000000 		.4byte	.LVL197
 6969 0a00 44000000 		.4byte	.LVL198
 6970 0a04 0400     		.2byte	0x4
 6971 0a06 F3       		.byte	0xf3
 6972 0a07 01       		.uleb128 0x1
 6973 0a08 53       		.byte	0x53
 6974 0a09 9F       		.byte	0x9f
 6975 0a0a 44000000 		.4byte	.LVL198
 6976 0a0e 4A000000 		.4byte	.LVL199
 6977 0a12 0100     		.2byte	0x1
 6978 0a14 53       		.byte	0x53
 6979 0a15 4A000000 		.4byte	.LVL199
 6980 0a19 1C010000 		.4byte	.LFE87
 6981 0a1d 0400     		.2byte	0x4
 6982 0a1f F3       		.byte	0xf3
 6983 0a20 01       		.uleb128 0x1
 6984 0a21 53       		.byte	0x53
 6985 0a22 9F       		.byte	0x9f
 6986 0a23 00000000 		.4byte	0
 6987 0a27 00000000 		.4byte	0
 6988              	.LLST63:
 6989 0a2b 16000000 		.4byte	.LVL191
 6990 0a2f 98000000 		.4byte	.LVL209
 6991 0a33 0600     		.2byte	0x6
 6992 0a35 75       		.byte	0x75
 6993 0a36 00       		.sleb128 0
 6994 0a37 08       		.byte	0x8
 6995 0a38 FF       		.byte	0xff
 6996 0a39 1A       		.byte	0x1a
ARM GAS  C:\Users\EDTRIC~1\AppData\Local\Temp\ccXQQyjM.s 			page 141


 6997 0a3a 9F       		.byte	0x9f
 6998 0a3b 98000000 		.4byte	.LVL209
 6999 0a3f EE000000 		.4byte	.LVL213
 7000 0a43 0700     		.2byte	0x7
 7001 0a45 F3       		.byte	0xf3
 7002 0a46 01       		.uleb128 0x1
 7003 0a47 51       		.byte	0x51
 7004 0a48 08       		.byte	0x8
 7005 0a49 FF       		.byte	0xff
 7006 0a4a 1A       		.byte	0x1a
 7007 0a4b 9F       		.byte	0x9f
 7008 0a4c 00000000 		.4byte	0
 7009 0a50 00000000 		.4byte	0
 7010              	.LLST64:
 7011 0a54 1A000000 		.4byte	.LVL192
 7012 0a58 AA000000 		.4byte	.LVL211
 7013 0a5c 0100     		.2byte	0x1
 7014 0a5e 5A       		.byte	0x5a
 7015 0a5f AA000000 		.4byte	.LVL211
 7016 0a63 EE000000 		.4byte	.LVL213
 7017 0a67 0A00     		.2byte	0xa
 7018 0a69 F3       		.byte	0xf3
 7019 0a6a 01       		.uleb128 0x1
 7020 0a6b 51       		.byte	0x51
 7021 0a6c 09       		.byte	0x9
 7022 0a6d F4       		.byte	0xf4
 7023 0a6e 24       		.byte	0x24
 7024 0a6f 09       		.byte	0x9
 7025 0a70 FC       		.byte	0xfc
 7026 0a71 25       		.byte	0x25
 7027 0a72 9F       		.byte	0x9f
 7028 0a73 00000000 		.4byte	0
 7029 0a77 00000000 		.4byte	0
 7030              	.LLST65:
 7031 0a7b 1A000000 		.4byte	.LVL192
 7032 0a7f 30000000 		.4byte	.LVL194
 7033 0a83 0200     		.2byte	0x2
 7034 0a85 30       		.byte	0x30
 7035 0a86 9F       		.byte	0x9f
 7036 0a87 30000000 		.4byte	.LVL194
 7037 0a8b 3A000000 		.4byte	.LVL196
 7038 0a8f 0200     		.2byte	0x2
 7039 0a91 31       		.byte	0x31
 7040 0a92 9F       		.byte	0x9f
 7041 0a93 3A000000 		.4byte	.LVL196
 7042 0a97 4C000000 		.4byte	.LVL200
 7043 0a9b 0200     		.2byte	0x2
 7044 0a9d 30       		.byte	0x30
 7045 0a9e 9F       		.byte	0x9f
 7046 0a9f 4C000000 		.4byte	.LVL200
 7047 0aa3 5D000000 		.4byte	.LVL205-1
 7048 0aa7 0100     		.2byte	0x1
 7049 0aa9 51       		.byte	0x51
 7050 0aaa 00000000 		.4byte	0
 7051 0aae 00000000 		.4byte	0
 7052              	.LLST66:
 7053 0ab2 1A000000 		.4byte	.LVL192
ARM GAS  C:\Users\EDTRIC~1\AppData\Local\Temp\ccXQQyjM.s 			page 142


 7054 0ab6 4C000000 		.4byte	.LVL200
 7055 0aba 0200     		.2byte	0x2
 7056 0abc 30       		.byte	0x30
 7057 0abd 9F       		.byte	0x9f
 7058 0abe 4C000000 		.4byte	.LVL200
 7059 0ac2 50000000 		.4byte	.LVL201
 7060 0ac6 0100     		.2byte	0x1
 7061 0ac8 53       		.byte	0x53
 7062 0ac9 00000000 		.4byte	0
 7063 0acd 00000000 		.4byte	0
 7064              	.LLST67:
 7065 0ad1 1A000000 		.4byte	.LVL192
 7066 0ad5 3A000000 		.4byte	.LVL196
 7067 0ad9 0200     		.2byte	0x2
 7068 0adb 30       		.byte	0x30
 7069 0adc 9F       		.byte	0x9f
 7070 0add 3A000000 		.4byte	.LVL196
 7071 0ae1 44000000 		.4byte	.LVL198
 7072 0ae5 0200     		.2byte	0x2
 7073 0ae7 31       		.byte	0x31
 7074 0ae8 9F       		.byte	0x9f
 7075 0ae9 44000000 		.4byte	.LVL198
 7076 0aed 4C000000 		.4byte	.LVL200
 7077 0af1 0200     		.2byte	0x2
 7078 0af3 30       		.byte	0x30
 7079 0af4 9F       		.byte	0x9f
 7080 0af5 4C000000 		.4byte	.LVL200
 7081 0af9 54000000 		.4byte	.LVL202
 7082 0afd 0100     		.2byte	0x1
 7083 0aff 5B       		.byte	0x5b
 7084 0b00 00000000 		.4byte	0
 7085 0b04 00000000 		.4byte	0
 7086              	.LLST68:
 7087 0b08 58000000 		.4byte	.LVL203
 7088 0b0c EE000000 		.4byte	.LVL213
 7089 0b10 0100     		.2byte	0x1
 7090 0b12 5B       		.byte	0x5b
 7091 0b13 00000000 		.4byte	0
 7092 0b17 00000000 		.4byte	0
 7093              	.LLST69:
 7094 0b1b 00000000 		.4byte	.LVL214
 7095 0b1f 0C000000 		.4byte	.LVL215
 7096 0b23 0100     		.2byte	0x1
 7097 0b25 50       		.byte	0x50
 7098 0b26 0C000000 		.4byte	.LVL215
 7099 0b2a 58000000 		.4byte	.LFE88
 7100 0b2e 0400     		.2byte	0x4
 7101 0b30 F3       		.byte	0xf3
 7102 0b31 01       		.uleb128 0x1
 7103 0b32 50       		.byte	0x50
 7104 0b33 9F       		.byte	0x9f
 7105 0b34 00000000 		.4byte	0
 7106 0b38 00000000 		.4byte	0
 7107              	.LLST70:
 7108 0b3c 00000000 		.4byte	.LVL214
 7109 0b40 0E000000 		.4byte	.LVL216
 7110 0b44 0100     		.2byte	0x1
ARM GAS  C:\Users\EDTRIC~1\AppData\Local\Temp\ccXQQyjM.s 			page 143


 7111 0b46 51       		.byte	0x51
 7112 0b47 0E000000 		.4byte	.LVL216
 7113 0b4b 11000000 		.4byte	.LVL217-1
 7114 0b4f 0100     		.2byte	0x1
 7115 0b51 50       		.byte	0x50
 7116 0b52 11000000 		.4byte	.LVL217-1
 7117 0b56 42000000 		.4byte	.LVL224
 7118 0b5a 0100     		.2byte	0x1
 7119 0b5c 54       		.byte	0x54
 7120 0b5d 42000000 		.4byte	.LVL224
 7121 0b61 58000000 		.4byte	.LFE88
 7122 0b65 0600     		.2byte	0x6
 7123 0b67 F3       		.byte	0xf3
 7124 0b68 03       		.uleb128 0x3
 7125 0b69 F5       		.byte	0xf5
 7126 0b6a 01       		.uleb128 0x1
 7127 0b6b 25       		.uleb128 0x25
 7128 0b6c 9F       		.byte	0x9f
 7129 0b6d 00000000 		.4byte	0
 7130 0b71 00000000 		.4byte	0
 7131              	.LLST71:
 7132 0b75 00000000 		.4byte	.LVL214
 7133 0b79 11000000 		.4byte	.LVL217-1
 7134 0b7d 0100     		.2byte	0x1
 7135 0b7f 52       		.byte	0x52
 7136 0b80 11000000 		.4byte	.LVL217-1
 7137 0b84 42000000 		.4byte	.LVL224
 7138 0b88 0100     		.2byte	0x1
 7139 0b8a 56       		.byte	0x56
 7140 0b8b 42000000 		.4byte	.LVL224
 7141 0b8f 58000000 		.4byte	.LFE88
 7142 0b93 0400     		.2byte	0x4
 7143 0b95 F3       		.byte	0xf3
 7144 0b96 01       		.uleb128 0x1
 7145 0b97 52       		.byte	0x52
 7146 0b98 9F       		.byte	0x9f
 7147 0b99 00000000 		.4byte	0
 7148 0b9d 00000000 		.4byte	0
 7149              	.LLST72:
 7150 0ba1 00000000 		.4byte	.LVL214
 7151 0ba5 11000000 		.4byte	.LVL217-1
 7152 0ba9 0100     		.2byte	0x1
 7153 0bab 53       		.byte	0x53
 7154 0bac 11000000 		.4byte	.LVL217-1
 7155 0bb0 58000000 		.4byte	.LFE88
 7156 0bb4 0400     		.2byte	0x4
 7157 0bb6 F3       		.byte	0xf3
 7158 0bb7 01       		.uleb128 0x1
 7159 0bb8 53       		.byte	0x53
 7160 0bb9 9F       		.byte	0x9f
 7161 0bba 00000000 		.4byte	0
 7162 0bbe 00000000 		.4byte	0
 7163              	.LLST73:
 7164 0bc2 36000000 		.4byte	.LVL222
 7165 0bc6 3F000000 		.4byte	.LVL223-1
 7166 0bca 0100     		.2byte	0x1
 7167 0bcc 51       		.byte	0x51
ARM GAS  C:\Users\EDTRIC~1\AppData\Local\Temp\ccXQQyjM.s 			page 144


 7168 0bcd 00000000 		.4byte	0
 7169 0bd1 00000000 		.4byte	0
 7170              	.LLST74:
 7171 0bd5 00000000 		.4byte	.LVL238
 7172 0bd9 64000000 		.4byte	.LVL253
 7173 0bdd 0100     		.2byte	0x1
 7174 0bdf 50       		.byte	0x50
 7175 0be0 64000000 		.4byte	.LVL253
 7176 0be4 24010000 		.4byte	.LFE89
 7177 0be8 0400     		.2byte	0x4
 7178 0bea F3       		.byte	0xf3
 7179 0beb 01       		.uleb128 0x1
 7180 0bec 50       		.byte	0x50
 7181 0bed 9F       		.byte	0x9f
 7182 0bee 00000000 		.4byte	0
 7183 0bf2 00000000 		.4byte	0
 7184              	.LLST75:
 7185 0bf6 00000000 		.4byte	.LVL238
 7186 0bfa 0E000000 		.4byte	.LVL239
 7187 0bfe 0100     		.2byte	0x1
 7188 0c00 51       		.byte	0x51
 7189 0c01 0E000000 		.4byte	.LVL239
 7190 0c05 22000000 		.4byte	.LVL240
 7191 0c09 0100     		.2byte	0x1
 7192 0c0b 55       		.byte	0x55
 7193 0c0c 22000000 		.4byte	.LVL240
 7194 0c10 26000000 		.4byte	.LVL241
 7195 0c14 0400     		.2byte	0x4
 7196 0c16 75       		.byte	0x75
 7197 0c17 00       		.sleb128 0
 7198 0c18 1F       		.byte	0x1f
 7199 0c19 9F       		.byte	0x9f
 7200 0c1a 26000000 		.4byte	.LVL241
 7201 0c1e 94000000 		.4byte	.LVL258
 7202 0c22 0400     		.2byte	0x4
 7203 0c24 74       		.byte	0x74
 7204 0c25 8178     		.sleb128 -1023
 7205 0c27 9F       		.byte	0x9f
 7206 0c28 94000000 		.4byte	.LVL258
 7207 0c2c 24010000 		.4byte	.LFE89
 7208 0c30 0400     		.2byte	0x4
 7209 0c32 F3       		.byte	0xf3
 7210 0c33 01       		.uleb128 0x1
 7211 0c34 51       		.byte	0x51
 7212 0c35 9F       		.byte	0x9f
 7213 0c36 00000000 		.4byte	0
 7214 0c3a 00000000 		.4byte	0
 7215              	.LLST76:
 7216 0c3e 00000000 		.4byte	.LVL238
 7217 0c42 67000000 		.4byte	.LVL254-1
 7218 0c46 0100     		.2byte	0x1
 7219 0c48 52       		.byte	0x52
 7220 0c49 67000000 		.4byte	.LVL254-1
 7221 0c4d 24010000 		.4byte	.LFE89
 7222 0c51 0400     		.2byte	0x4
 7223 0c53 F3       		.byte	0xf3
 7224 0c54 01       		.uleb128 0x1
ARM GAS  C:\Users\EDTRIC~1\AppData\Local\Temp\ccXQQyjM.s 			page 145


 7225 0c55 52       		.byte	0x52
 7226 0c56 9F       		.byte	0x9f
 7227 0c57 00000000 		.4byte	0
 7228 0c5b 00000000 		.4byte	0
 7229              	.LLST77:
 7230 0c5f 00000000 		.4byte	.LVL238
 7231 0c63 3A000000 		.4byte	.LVL243
 7232 0c67 0100     		.2byte	0x1
 7233 0c69 53       		.byte	0x53
 7234 0c6a 3A000000 		.4byte	.LVL243
 7235 0c6e 3E000000 		.4byte	.LVL244
 7236 0c72 0400     		.2byte	0x4
 7237 0c74 F3       		.byte	0xf3
 7238 0c75 01       		.uleb128 0x1
 7239 0c76 53       		.byte	0x53
 7240 0c77 9F       		.byte	0x9f
 7241 0c78 3E000000 		.4byte	.LVL244
 7242 0c7c 42000000 		.4byte	.LVL245
 7243 0c80 0100     		.2byte	0x1
 7244 0c82 53       		.byte	0x53
 7245 0c83 42000000 		.4byte	.LVL245
 7246 0c87 48000000 		.4byte	.LVL246
 7247 0c8b 0400     		.2byte	0x4
 7248 0c8d F3       		.byte	0xf3
 7249 0c8e 01       		.uleb128 0x1
 7250 0c8f 53       		.byte	0x53
 7251 0c90 9F       		.byte	0x9f
 7252 0c91 48000000 		.4byte	.LVL246
 7253 0c95 4C000000 		.4byte	.LVL247
 7254 0c99 0100     		.2byte	0x1
 7255 0c9b 53       		.byte	0x53
 7256 0c9c 4C000000 		.4byte	.LVL247
 7257 0ca0 50000000 		.4byte	.LVL248
 7258 0ca4 0400     		.2byte	0x4
 7259 0ca6 F3       		.byte	0xf3
 7260 0ca7 01       		.uleb128 0x1
 7261 0ca8 53       		.byte	0x53
 7262 0ca9 9F       		.byte	0x9f
 7263 0caa 50000000 		.4byte	.LVL248
 7264 0cae 54000000 		.4byte	.LVL249
 7265 0cb2 0100     		.2byte	0x1
 7266 0cb4 53       		.byte	0x53
 7267 0cb5 54000000 		.4byte	.LVL249
 7268 0cb9 24010000 		.4byte	.LFE89
 7269 0cbd 0400     		.2byte	0x4
 7270 0cbf F3       		.byte	0xf3
 7271 0cc0 01       		.uleb128 0x1
 7272 0cc1 53       		.byte	0x53
 7273 0cc2 9F       		.byte	0x9f
 7274 0cc3 00000000 		.4byte	0
 7275 0cc7 00000000 		.4byte	0
 7276              	.LLST78:
 7277 0ccb 22000000 		.4byte	.LVL240
 7278 0ccf A2000000 		.4byte	.LVL259
 7279 0cd3 0100     		.2byte	0x1
 7280 0cd5 55       		.byte	0x55
 7281 0cd6 00000000 		.4byte	0
ARM GAS  C:\Users\EDTRIC~1\AppData\Local\Temp\ccXQQyjM.s 			page 146


 7282 0cda 00000000 		.4byte	0
 7283              	.LLST79:
 7284 0cde 26000000 		.4byte	.LVL241
 7285 0ce2 A2000000 		.4byte	.LVL259
 7286 0ce6 0600     		.2byte	0x6
 7287 0ce8 75       		.byte	0x75
 7288 0ce9 00       		.sleb128 0
 7289 0cea 08       		.byte	0x8
 7290 0ceb FF       		.byte	0xff
 7291 0cec 1A       		.byte	0x1a
 7292 0ced 9F       		.byte	0x9f
 7293 0cee 00000000 		.4byte	0
 7294 0cf2 00000000 		.4byte	0
 7295              	.LLST80:
 7296 0cf6 2A000000 		.4byte	.LVL242
 7297 0cfa B4000000 		.4byte	.LVL261
 7298 0cfe 0100     		.2byte	0x1
 7299 0d00 5A       		.byte	0x5a
 7300 0d01 00000000 		.4byte	0
 7301 0d05 00000000 		.4byte	0
 7302              	.LLST81:
 7303 0d09 2A000000 		.4byte	.LVL242
 7304 0d0d 3E000000 		.4byte	.LVL244
 7305 0d11 0200     		.2byte	0x2
 7306 0d13 30       		.byte	0x30
 7307 0d14 9F       		.byte	0x9f
 7308 0d15 3E000000 		.4byte	.LVL244
 7309 0d19 48000000 		.4byte	.LVL246
 7310 0d1d 0200     		.2byte	0x2
 7311 0d1f 31       		.byte	0x31
 7312 0d20 9F       		.byte	0x9f
 7313 0d21 48000000 		.4byte	.LVL246
 7314 0d25 56000000 		.4byte	.LVL250
 7315 0d29 0200     		.2byte	0x2
 7316 0d2b 30       		.byte	0x30
 7317 0d2c 9F       		.byte	0x9f
 7318 0d2d 56000000 		.4byte	.LVL250
 7319 0d31 62000000 		.4byte	.LVL252
 7320 0d35 0100     		.2byte	0x1
 7321 0d37 5B       		.byte	0x5b
 7322 0d38 00000000 		.4byte	0
 7323 0d3c 00000000 		.4byte	0
 7324              	.LLST82:
 7325 0d40 2A000000 		.4byte	.LVL242
 7326 0d44 56000000 		.4byte	.LVL250
 7327 0d48 0200     		.2byte	0x2
 7328 0d4a 30       		.byte	0x30
 7329 0d4b 9F       		.byte	0x9f
 7330 0d4c 56000000 		.4byte	.LVL250
 7331 0d50 58000000 		.4byte	.LVL251
 7332 0d54 0100     		.2byte	0x1
 7333 0d56 53       		.byte	0x53
 7334 0d57 00000000 		.4byte	0
 7335 0d5b 00000000 		.4byte	0
 7336              	.LLST83:
 7337 0d5f 2A000000 		.4byte	.LVL242
 7338 0d63 48000000 		.4byte	.LVL246
ARM GAS  C:\Users\EDTRIC~1\AppData\Local\Temp\ccXQQyjM.s 			page 147


 7339 0d67 0200     		.2byte	0x2
 7340 0d69 30       		.byte	0x30
 7341 0d6a 9F       		.byte	0x9f
 7342 0d6b 48000000 		.4byte	.LVL246
 7343 0d6f 50000000 		.4byte	.LVL248
 7344 0d73 0200     		.2byte	0x2
 7345 0d75 31       		.byte	0x31
 7346 0d76 9F       		.byte	0x9f
 7347 0d77 50000000 		.4byte	.LVL248
 7348 0d7b 56000000 		.4byte	.LVL250
 7349 0d7f 0200     		.2byte	0x2
 7350 0d81 30       		.byte	0x30
 7351 0d82 9F       		.byte	0x9f
 7352 0d83 56000000 		.4byte	.LVL250
 7353 0d87 67000000 		.4byte	.LVL254-1
 7354 0d8b 0100     		.2byte	0x1
 7355 0d8d 51       		.byte	0x51
 7356 0d8e 00000000 		.4byte	0
 7357 0d92 00000000 		.4byte	0
 7358              	.LLST84:
 7359 0d96 62000000 		.4byte	.LVL252
 7360 0d9a F8000000 		.4byte	.LVL263
 7361 0d9e 0100     		.2byte	0x1
 7362 0da0 5B       		.byte	0x5b
 7363 0da1 00000000 		.4byte	0
 7364 0da5 00000000 		.4byte	0
 7365              	.LLST85:
 7366 0da9 00000000 		.4byte	.LVL264
 7367 0dad 28000000 		.4byte	.LVL267
 7368 0db1 0100     		.2byte	0x1
 7369 0db3 50       		.byte	0x50
 7370 0db4 28000000 		.4byte	.LVL267
 7371 0db8 2D000000 		.4byte	.LVL268-1
 7372 0dbc 0500     		.2byte	0x5
 7373 0dbe 03       		.byte	0x3
 7374 0dbf 00000000 		.4byte	pID
 7375 0dc3 2D000000 		.4byte	.LVL268-1
 7376 0dc7 90000000 		.4byte	.LFE90
 7377 0dcb 0400     		.2byte	0x4
 7378 0dcd F3       		.byte	0xf3
 7379 0dce 01       		.uleb128 0x1
 7380 0dcf 50       		.byte	0x50
 7381 0dd0 9F       		.byte	0x9f
 7382 0dd1 00000000 		.4byte	0
 7383 0dd5 00000000 		.4byte	0
 7384              	.LLST86:
 7385 0dd9 00000000 		.4byte	.LVL264
 7386 0ddd 1E000000 		.4byte	.LVL265
 7387 0de1 0100     		.2byte	0x1
 7388 0de3 51       		.byte	0x51
 7389 0de4 1E000000 		.4byte	.LVL265
 7390 0de8 2D000000 		.4byte	.LVL268-1
 7391 0dec 0500     		.2byte	0x5
 7392 0dee 03       		.byte	0x3
 7393 0def 00000000 		.4byte	data
 7394 0df3 2D000000 		.4byte	.LVL268-1
 7395 0df7 90000000 		.4byte	.LFE90
ARM GAS  C:\Users\EDTRIC~1\AppData\Local\Temp\ccXQQyjM.s 			page 148


 7396 0dfb 0400     		.2byte	0x4
 7397 0dfd F3       		.byte	0xf3
 7398 0dfe 01       		.uleb128 0x1
 7399 0dff 51       		.byte	0x51
 7400 0e00 9F       		.byte	0x9f
 7401 0e01 00000000 		.4byte	0
 7402 0e05 00000000 		.4byte	0
 7403              	.LLST87:
 7404 0e09 00000000 		.4byte	.LVL264
 7405 0e0d 24000000 		.4byte	.LVL266
 7406 0e11 0100     		.2byte	0x1
 7407 0e13 52       		.byte	0x52
 7408 0e14 24000000 		.4byte	.LVL266
 7409 0e18 2D000000 		.4byte	.LVL268-1
 7410 0e1c 0500     		.2byte	0x5
 7411 0e1e 03       		.byte	0x3
 7412 0e1f 02000000 		.4byte	data+2
 7413 0e23 2D000000 		.4byte	.LVL268-1
 7414 0e27 90000000 		.4byte	.LFE90
 7415 0e2b 0400     		.2byte	0x4
 7416 0e2d F3       		.byte	0xf3
 7417 0e2e 01       		.uleb128 0x1
 7418 0e2f 52       		.byte	0x52
 7419 0e30 9F       		.byte	0x9f
 7420 0e31 00000000 		.4byte	0
 7421 0e35 00000000 		.4byte	0
 7422              	.LLST88:
 7423 0e39 00000000 		.4byte	.LVL271
 7424 0e3d 28000000 		.4byte	.LVL273
 7425 0e41 0100     		.2byte	0x1
 7426 0e43 50       		.byte	0x50
 7427 0e44 28000000 		.4byte	.LVL273
 7428 0e48 2B000000 		.4byte	.LVL274-1
 7429 0e4c 0500     		.2byte	0x5
 7430 0e4e 03       		.byte	0x3
 7431 0e4f 00000000 		.4byte	pID
 7432 0e53 2B000000 		.4byte	.LVL274-1
 7433 0e57 90000000 		.4byte	.LFE91
 7434 0e5b 0400     		.2byte	0x4
 7435 0e5d F3       		.byte	0xf3
 7436 0e5e 01       		.uleb128 0x1
 7437 0e5f 50       		.byte	0x50
 7438 0e60 9F       		.byte	0x9f
 7439 0e61 00000000 		.4byte	0
 7440 0e65 00000000 		.4byte	0
 7441              	.LLST89:
 7442 0e69 00000000 		.4byte	.LVL271
 7443 0e6d 22000000 		.4byte	.LVL272
 7444 0e71 0100     		.2byte	0x1
 7445 0e73 51       		.byte	0x51
 7446 0e74 22000000 		.4byte	.LVL272
 7447 0e78 2B000000 		.4byte	.LVL274-1
 7448 0e7c 0500     		.2byte	0x5
 7449 0e7e 03       		.byte	0x3
 7450 0e7f 00000000 		.4byte	data
 7451 0e83 2B000000 		.4byte	.LVL274-1
 7452 0e87 90000000 		.4byte	.LFE91
ARM GAS  C:\Users\EDTRIC~1\AppData\Local\Temp\ccXQQyjM.s 			page 149


 7453 0e8b 0400     		.2byte	0x4
 7454 0e8d F3       		.byte	0xf3
 7455 0e8e 01       		.uleb128 0x1
 7456 0e8f 51       		.byte	0x51
 7457 0e90 9F       		.byte	0x9f
 7458 0e91 00000000 		.4byte	0
 7459 0e95 00000000 		.4byte	0
 7460              	.LLST90:
 7461 0e99 00000000 		.4byte	.LVL271
 7462 0e9d 2B000000 		.4byte	.LVL274-1
 7463 0ea1 0100     		.2byte	0x1
 7464 0ea3 52       		.byte	0x52
 7465 0ea4 2B000000 		.4byte	.LVL274-1
 7466 0ea8 90000000 		.4byte	.LFE91
 7467 0eac 0400     		.2byte	0x4
 7468 0eae F3       		.byte	0xf3
 7469 0eaf 01       		.uleb128 0x1
 7470 0eb0 52       		.byte	0x52
 7471 0eb1 9F       		.byte	0x9f
 7472 0eb2 00000000 		.4byte	0
 7473 0eb6 00000000 		.4byte	0
 7474              		.section	.debug_aranges,"",%progbits
 7475 0000 FC000000 		.4byte	0xfc
 7476 0004 0200     		.2byte	0x2
 7477 0006 00000000 		.4byte	.Ldebug_info0
 7478 000a 04       		.byte	0x4
 7479 000b 00       		.byte	0
 7480 000c 0000     		.2byte	0
 7481 000e 0000     		.2byte	0
 7482 0010 00000000 		.4byte	.LFB63
 7483 0014 0C000000 		.4byte	.LFE63-.LFB63
 7484 0018 00000000 		.4byte	.LFB64
 7485 001c 48000000 		.4byte	.LFE64-.LFB64
 7486 0020 00000000 		.4byte	.LFB65
 7487 0024 08000000 		.4byte	.LFE65-.LFB65
 7488 0028 00000000 		.4byte	.LFB66
 7489 002c 1A000000 		.4byte	.LFE66-.LFB66
 7490 0030 00000000 		.4byte	.LFB67
 7491 0034 54000000 		.4byte	.LFE67-.LFB67
 7492 0038 00000000 		.4byte	.LFB68
 7493 003c 2C000000 		.4byte	.LFE68-.LFB68
 7494 0040 00000000 		.4byte	.LFB70
 7495 0044 C8000000 		.4byte	.LFE70-.LFB70
 7496 0048 00000000 		.4byte	.LFB71
 7497 004c 90000000 		.4byte	.LFE71-.LFB71
 7498 0050 00000000 		.4byte	.LFB72
 7499 0054 90000000 		.4byte	.LFE72-.LFB72
 7500 0058 00000000 		.4byte	.LFB73
 7501 005c 90000000 		.4byte	.LFE73-.LFB73
 7502 0060 00000000 		.4byte	.LFB74
 7503 0064 F0000000 		.4byte	.LFE74-.LFB74
 7504 0068 00000000 		.4byte	.LFB75
 7505 006c 8C000000 		.4byte	.LFE75-.LFB75
 7506 0070 00000000 		.4byte	.LFB76
 7507 0074 B4000000 		.4byte	.LFE76-.LFB76
 7508 0078 00000000 		.4byte	.LFB77
 7509 007c 98000000 		.4byte	.LFE77-.LFB77
ARM GAS  C:\Users\EDTRIC~1\AppData\Local\Temp\ccXQQyjM.s 			page 150


 7510 0080 00000000 		.4byte	.LFB78
 7511 0084 50000000 		.4byte	.LFE78-.LFB78
 7512 0088 00000000 		.4byte	.LFB79
 7513 008c 50000000 		.4byte	.LFE79-.LFB79
 7514 0090 00000000 		.4byte	.LFB80
 7515 0094 60000000 		.4byte	.LFE80-.LFB80
 7516 0098 00000000 		.4byte	.LFB81
 7517 009c D0000000 		.4byte	.LFE81-.LFB81
 7518 00a0 00000000 		.4byte	.LFB82
 7519 00a4 0C010000 		.4byte	.LFE82-.LFB82
 7520 00a8 00000000 		.4byte	.LFB83
 7521 00ac 28000000 		.4byte	.LFE83-.LFB83
 7522 00b0 00000000 		.4byte	.LFB84
 7523 00b4 08010000 		.4byte	.LFE84-.LFB84
 7524 00b8 00000000 		.4byte	.LFB85
 7525 00bc 5C000000 		.4byte	.LFE85-.LFB85
 7526 00c0 00000000 		.4byte	.LFB86
 7527 00c4 90000000 		.4byte	.LFE86-.LFB86
 7528 00c8 00000000 		.4byte	.LFB87
 7529 00cc 1C010000 		.4byte	.LFE87-.LFB87
 7530 00d0 00000000 		.4byte	.LFB88
 7531 00d4 58000000 		.4byte	.LFE88-.LFB88
 7532 00d8 00000000 		.4byte	.LFB69
 7533 00dc 74000000 		.4byte	.LFE69-.LFB69
 7534 00e0 00000000 		.4byte	.LFB89
 7535 00e4 24010000 		.4byte	.LFE89-.LFB89
 7536 00e8 00000000 		.4byte	.LFB90
 7537 00ec 90000000 		.4byte	.LFE90-.LFB90
 7538 00f0 00000000 		.4byte	.LFB91
 7539 00f4 90000000 		.4byte	.LFE91-.LFB91
 7540 00f8 00000000 		.4byte	0
 7541 00fc 00000000 		.4byte	0
 7542              		.section	.debug_ranges,"",%progbits
 7543              	.Ldebug_ranges0:
 7544 0000 00000000 		.4byte	.LFB63
 7545 0004 0C000000 		.4byte	.LFE63
 7546 0008 00000000 		.4byte	.LFB64
 7547 000c 48000000 		.4byte	.LFE64
 7548 0010 00000000 		.4byte	.LFB65
 7549 0014 08000000 		.4byte	.LFE65
 7550 0018 00000000 		.4byte	.LFB66
 7551 001c 1A000000 		.4byte	.LFE66
 7552 0020 00000000 		.4byte	.LFB67
 7553 0024 54000000 		.4byte	.LFE67
 7554 0028 00000000 		.4byte	.LFB68
 7555 002c 2C000000 		.4byte	.LFE68
 7556 0030 00000000 		.4byte	.LFB70
 7557 0034 C8000000 		.4byte	.LFE70
 7558 0038 00000000 		.4byte	.LFB71
 7559 003c 90000000 		.4byte	.LFE71
 7560 0040 00000000 		.4byte	.LFB72
 7561 0044 90000000 		.4byte	.LFE72
 7562 0048 00000000 		.4byte	.LFB73
 7563 004c 90000000 		.4byte	.LFE73
 7564 0050 00000000 		.4byte	.LFB74
 7565 0054 F0000000 		.4byte	.LFE74
 7566 0058 00000000 		.4byte	.LFB75
ARM GAS  C:\Users\EDTRIC~1\AppData\Local\Temp\ccXQQyjM.s 			page 151


 7567 005c 8C000000 		.4byte	.LFE75
 7568 0060 00000000 		.4byte	.LFB76
 7569 0064 B4000000 		.4byte	.LFE76
 7570 0068 00000000 		.4byte	.LFB77
 7571 006c 98000000 		.4byte	.LFE77
 7572 0070 00000000 		.4byte	.LFB78
 7573 0074 50000000 		.4byte	.LFE78
 7574 0078 00000000 		.4byte	.LFB79
 7575 007c 50000000 		.4byte	.LFE79
 7576 0080 00000000 		.4byte	.LFB80
 7577 0084 60000000 		.4byte	.LFE80
 7578 0088 00000000 		.4byte	.LFB81
 7579 008c D0000000 		.4byte	.LFE81
 7580 0090 00000000 		.4byte	.LFB82
 7581 0094 0C010000 		.4byte	.LFE82
 7582 0098 00000000 		.4byte	.LFB83
 7583 009c 28000000 		.4byte	.LFE83
 7584 00a0 00000000 		.4byte	.LFB84
 7585 00a4 08010000 		.4byte	.LFE84
 7586 00a8 00000000 		.4byte	.LFB85
 7587 00ac 5C000000 		.4byte	.LFE85
 7588 00b0 00000000 		.4byte	.LFB86
 7589 00b4 90000000 		.4byte	.LFE86
 7590 00b8 00000000 		.4byte	.LFB87
 7591 00bc 1C010000 		.4byte	.LFE87
 7592 00c0 00000000 		.4byte	.LFB88
 7593 00c4 58000000 		.4byte	.LFE88
 7594 00c8 00000000 		.4byte	.LFB69
 7595 00cc 74000000 		.4byte	.LFE69
 7596 00d0 00000000 		.4byte	.LFB89
 7597 00d4 24010000 		.4byte	.LFE89
 7598 00d8 00000000 		.4byte	.LFB90
 7599 00dc 90000000 		.4byte	.LFE90
 7600 00e0 00000000 		.4byte	.LFB91
 7601 00e4 90000000 		.4byte	.LFE91
 7602 00e8 00000000 		.4byte	0
 7603 00ec 00000000 		.4byte	0
 7604              		.section	.debug_line,"",%progbits
 7605              	.Ldebug_line0:
 7606 0000 19060000 		.section	.debug_str,"MS",%progbits,1
 7606      02006701 
 7606      00000201 
 7606      FB0E0D00 
 7606      01010101 
 7607              	.LASF73:
 7608 0000 53657276 		.ascii	"Servo_Start\000"
 7608      6F5F5374 
 7608      61727400 
 7609              	.LASF37:
 7610 000c 53657276 		.ascii	"Servo_torqueOFF\000"
 7610      6F5F746F 
 7610      72717565 
 7610      4F464600 
 7611              	.LASF15:
 7612 001c 646F7562 		.ascii	"double\000"
 7612      6C6500
 7613              	.LASF28:
ARM GAS  C:\Users\EDTRIC~1\AppData\Local\Temp\ccXQQyjM.s 			page 152


 7614 0023 62656769 		.ascii	"beginsave\000"
 7614      6E736176 
 7614      6500
 7615              	.LASF23:
 7616 002d 73656E64 		.ascii	"sendData\000"
 7616      44617461 
 7616      00
 7617              	.LASF3:
 7618 0036 73686F72 		.ascii	"short int\000"
 7618      7420696E 
 7618      7400
 7619              	.LASF92:
 7620 0040 2E5C6865 		.ascii	".\\herkulex2.c\000"
 7620      726B756C 
 7620      6578322E 
 7620      6300
 7621              	.LASF20:
 7622 004e 63686563 		.ascii	"checksum1\000"
 7622      6B73756D 
 7622      3100
 7623              	.LASF21:
 7624 0058 63686563 		.ascii	"checksum2\000"
 7624      6B73756D 
 7624      3200
 7625              	.LASF64:
 7626 0062 53657276 		.ascii	"Servo_getPosition\000"
 7626      6F5F6765 
 7626      74506F73 
 7626      6974696F 
 7626      6E00
 7627              	.LASF42:
 7628 0074 6F6C6449 		.ascii	"oldID\000"
 7628      4400
 7629              	.LASF77:
 7630 007a 77726974 		.ascii	"writeByte\000"
 7630      65427974 
 7630      6500
 7631              	.LASF81:
 7632 0084 636F6E74 		.ascii	"conta\000"
 7632      6100
 7633              	.LASF66:
 7634 008a 53657276 		.ascii	"Servo_getSpeed\000"
 7634      6F5F6765 
 7634      74537065 
 7634      656400
 7635              	.LASF45:
 7636 0099 53657276 		.ascii	"Servo_clearError\000"
 7636      6F5F636C 
 7636      65617245 
 7636      72726F72 
 7636      00
 7637              	.LASF48:
 7638 00aa 6D6F6465 		.ascii	"mode\000"
 7638      00
 7639              	.LASF86:
 7640 00af 55415254 		.ascii	"UART_SRV_ClearRxBuffer\000"
 7640      5F535256 
ARM GAS  C:\Users\EDTRIC~1\AppData\Local\Temp\ccXQQyjM.s 			page 153


 7640      5F436C65 
 7640      61725278 
 7640      42756666 
 7641              	.LASF34:
 7642 00c6 73657276 		.ascii	"servoID\000"
 7642      6F494400 
 7643              	.LASF52:
 7644 00ce 626C7565 		.ascii	"blue\000"
 7644      00
 7645              	.LASF74:
 7646 00d3 53657276 		.ascii	"Servo_moveSpeedOne\000"
 7646      6F5F6D6F 
 7646      76655370 
 7646      6565644F 
 7646      6E6500
 7647              	.LASF13:
 7648 00e6 75696E74 		.ascii	"uint16\000"
 7648      313600
 7649              	.LASF76:
 7650 00ed 61646472 		.ascii	"address\000"
 7650      65737300 
 7651              	.LASF78:
 7652 00f5 53657276 		.ascii	"Servo_writeRegistryEEP\000"
 7652      6F5F7772 
 7652      69746552 
 7652      65676973 
 7652      74727945 
 7653              	.LASF40:
 7654 010c 53657276 		.ascii	"Servo_model\000"
 7654      6F5F6D6F 
 7654      64656C00 
 7655              	.LASF70:
 7656 0118 4C45445F 		.ascii	"LED_Value\000"
 7656      56616C75 
 7656      6500
 7657              	.LASF31:
 7658 0122 61646444 		.ascii	"addData\000"
 7658      61746100 
 7659              	.LASF0:
 7660 012a 666C6F61 		.ascii	"float\000"
 7660      7400
 7661              	.LASF26:
 7662 0130 72656164 		.ascii	"readData\000"
 7662      44617461 
 7662      00
 7663              	.LASF58:
 7664 0139 53657276 		.ascii	"Servo_moveSpeedAll\000"
 7664      6F5F6D6F 
 7664      76655370 
 7664      65656441 
 7664      6C6C00
 7665              	.LASF7:
 7666 014c 6C6F6E67 		.ascii	"long long int\000"
 7666      206C6F6E 
 7666      6720696E 
 7666      7400
 7667              	.LASF60:
ARM GAS  C:\Users\EDTRIC~1\AppData\Local\Temp\ccXQQyjM.s 			page 154


 7668 015a 73706565 		.ascii	"speedGoalLSB\000"
 7668      64476F61 
 7668      6C4C5342 
 7668      00
 7669              	.LASF41:
 7670 0167 53657276 		.ascii	"Servo_setID\000"
 7670      6F5F7365 
 7670      74494400 
 7671              	.LASF59:
 7672 0173 676F616C 		.ascii	"goalSpeedSign\000"
 7672      53706565 
 7672      64536967 
 7672      6E00
 7673              	.LASF30:
 7674 0181 72656342 		.ascii	"recByte\000"
 7674      79746500 
 7675              	.LASF83:
 7676 0189 64617461 		.ascii	"dataEx\000"
 7676      457800
 7677              	.LASF90:
 7678 0190 55415254 		.ascii	"UART_SRV_GetRxBufferSize\000"
 7678      5F535256 
 7678      5F476574 
 7678      52784275 
 7678      66666572 
 7679              	.LASF35:
 7680 01a9 53657276 		.ascii	"Servo_status\000"
 7680      6F5F7374 
 7680      61747573 
 7680      00
 7681              	.LASF36:
 7682 01b6 53657276 		.ascii	"Servo_torqueON\000"
 7682      6F5F746F 
 7682      72717565 
 7682      4F4E00
 7683              	.LASF53:
 7684 01c5 67726565 		.ascii	"green\000"
 7684      6E00
 7685              	.LASF29:
 7686 01cb 74696D65 		.ascii	"timeCounter\000"
 7686      436F756E 
 7686      74657200 
 7687              	.LASF43:
 7688 01d7 6E657749 		.ascii	"newID\000"
 7688      4400
 7689              	.LASF57:
 7690 01dd 706F7369 		.ascii	"position\000"
 7690      74696F6E 
 7690      00
 7691              	.LASF25:
 7692 01e6 6C656E67 		.ascii	"length\000"
 7692      746800
 7693              	.LASF2:
 7694 01ed 756E7369 		.ascii	"unsigned char\000"
 7694      676E6564 
 7694      20636861 
 7694      7200
ARM GAS  C:\Users\EDTRIC~1\AppData\Local\Temp\ccXQQyjM.s 			page 155


 7695              	.LASF62:
 7696 01fb 53657276 		.ascii	"Servo_actionAll\000"
 7696      6F5F6163 
 7696      74696F6E 
 7696      416C6C00 
 7697              	.LASF1:
 7698 020b 7369676E 		.ascii	"signed char\000"
 7698      65642063 
 7698      68617200 
 7699              	.LASF8:
 7700 0217 6C6F6E67 		.ascii	"long long unsigned int\000"
 7700      206C6F6E 
 7700      6720756E 
 7700      7369676E 
 7700      65642069 
 7701              	.LASF9:
 7702 022e 756E7369 		.ascii	"unsigned int\000"
 7702      676E6564 
 7702      20696E74 
 7702      00
 7703              	.LASF38:
 7704 023b 53657276 		.ascii	"Servo_ACK\000"
 7704      6F5F4143 
 7704      4B00
 7705              	.LASF67:
 7706 0245 73706565 		.ascii	"speed\000"
 7706      6400
 7707              	.LASF93:
 7708 024b 433A5C55 		.ascii	"C:\\Users\\edtriccorp\\Documents\\PSoC Creator\\Ava"
 7708      73657273 
 7708      5C656474 
 7708      72696363 
 7708      6F72705C 
 7709 0279 74617220 		.ascii	"tar Comms\\Nimbelink 4.0.cydsn\000"
 7709      436F6D6D 
 7709      735C4E69 
 7709      6D62656C 
 7709      696E6B20 
 7710              	.LASF63:
 7711 0297 74696D65 		.ascii	"time\000"
 7711      00
 7712              	.LASF82:
 7713 029c 706C6179 		.ascii	"playTime\000"
 7713      54696D65 
 7713      00
 7714              	.LASF49:
 7715 02a5 73746F70 		.ascii	"stop\000"
 7715      00
 7716              	.LASF16:
 7717 02aa 63686172 		.ascii	"char\000"
 7717      00
 7718              	.LASF54:
 7719 02af 73657456 		.ascii	"setValue\000"
 7719      616C7565 
 7719      00
 7720              	.LASF5:
 7721 02b8 6C6F6E67 		.ascii	"long int\000"
ARM GAS  C:\Users\EDTRIC~1\AppData\Local\Temp\ccXQQyjM.s 			page 156


 7721      20696E74 
 7721      00
 7722              	.LASF75:
 7723 02c1 53657276 		.ascii	"Servo_writeRegistryRAM\000"
 7723      6F5F7772 
 7723      69746552 
 7723      65676973 
 7723      74727952 
 7724              	.LASF11:
 7725 02d8 696E7433 		.ascii	"int32_t\000"
 7725      325F7400 
 7726              	.LASF19:
 7727 02e0 6C656E67 		.ascii	"lengthString\000"
 7727      74685374 
 7727      72696E67 
 7727      00
 7728              	.LASF4:
 7729 02ed 73686F72 		.ascii	"short unsigned int\000"
 7729      7420756E 
 7729      7369676E 
 7729      65642069 
 7729      6E7400
 7730              	.LASF69:
 7731 0300 53657276 		.ascii	"Servo_setLED\000"
 7731      6F5F7365 
 7731      744C4544 
 7731      00
 7732              	.LASF12:
 7733 030d 75696E74 		.ascii	"uint8\000"
 7733      3800
 7734              	.LASF89:
 7735 0313 55415254 		.ascii	"UART_SRV_GetByte\000"
 7735      5F535256 
 7735      5F476574 
 7735      42797465 
 7735      00
 7736              	.LASF18:
 7737 0324 64617461 		.ascii	"data\000"
 7737      00
 7738              	.LASF84:
 7739 0329 6D6F7665 		.ascii	"moveData\000"
 7739      44617461 
 7739      00
 7740              	.LASF24:
 7741 0332 62756666 		.ascii	"buffer\000"
 7741      657200
 7742              	.LASF80:
 7743 0339 7053697A 		.ascii	"pSize\000"
 7743      6500
 7744              	.LASF6:
 7745 033f 6C6F6E67 		.ascii	"long unsigned int\000"
 7745      20756E73 
 7745      69676E65 
 7745      6420696E 
 7745      7400
 7746              	.LASF44:
 7747 0351 53657276 		.ascii	"Servo_resetID\000"
ARM GAS  C:\Users\EDTRIC~1\AppData\Local\Temp\ccXQQyjM.s 			page 157


 7747      6F5F7265 
 7747      73657449 
 7747      4400
 7748              	.LASF14:
 7749 035f 75696E74 		.ascii	"uint32\000"
 7749      333200
 7750              	.LASF51:
 7751 0366 706F734D 		.ascii	"posMSB\000"
 7751      534200
 7752              	.LASF27:
 7753 036d 73697A65 		.ascii	"size\000"
 7753      00
 7754              	.LASF65:
 7755 0372 53657276 		.ascii	"Servo_getAngle\000"
 7755      6F5F6765 
 7755      74416E67 
 7755      6C6500
 7756              	.LASF71:
 7757 0381 53657276 		.ascii	"Servo_moveOne\000"
 7757      6F5F6D6F 
 7757      76654F6E 
 7757      6500
 7758              	.LASF10:
 7759 038f 5F5F696E 		.ascii	"__int32_t\000"
 7759      7433325F 
 7759      7400
 7760              	.LASF61:
 7761 0399 73706565 		.ascii	"speedGoalMSB\000"
 7761      64476F61 
 7761      6C4D5342 
 7761      00
 7762              	.LASF91:
 7763 03a6 474E5520 		.ascii	"GNU C 4.9.3 20150303 (release) [ARM/embedded-4_9-br"
 7763      4320342E 
 7763      392E3320 
 7763      32303135 
 7763      30333033 
 7764 03d9 616E6368 		.ascii	"anch revision 221220] -mcpu=cortex-m3 -mthumb -g -O"
 7764      20726576 
 7764      6973696F 
 7764      6E203232 
 7764      31323230 
 7765 040c 67202D66 		.ascii	"g -ffunction-sections -ffat-lto-objects\000"
 7765      66756E63 
 7765      74696F6E 
 7765      2D736563 
 7765      74696F6E 
 7766              	.LASF47:
 7767 0434 676F616C 		.ascii	"goal\000"
 7767      00
 7768              	.LASF85:
 7769 0439 55415254 		.ascii	"UART_SRV_ClearTxBuffer\000"
 7769      5F535256 
 7769      5F436C65 
 7769      61725478 
 7769      42756666 
 7770              	.LASF17:
ARM GAS  C:\Users\EDTRIC~1\AppData\Local\Temp\ccXQQyjM.s 			page 158


 7771 0450 73697A65 		.ascii	"sizetype\000"
 7771      74797065 
 7771      00
 7772              	.LASF56:
 7773 0459 616E676C 		.ascii	"angle\000"
 7773      6500
 7774              	.LASF68:
 7775 045f 53657276 		.ascii	"Servo_reboot\000"
 7775      6F5F7265 
 7775      626F6F74 
 7775      00
 7776              	.LASF33:
 7777 046c 676F616C 		.ascii	"goalMSB\000"
 7777      4D534200 
 7778              	.LASF22:
 7779 0474 636C6561 		.ascii	"clearBuffer\000"
 7779      72427566 
 7779      66657200 
 7780              	.LASF72:
 7781 0480 53657276 		.ascii	"Servo_moveOneAngle\000"
 7781      6F5F6D6F 
 7781      76654F6E 
 7781      65416E67 
 7781      6C6500
 7782              	.LASF46:
 7783 0493 53657276 		.ascii	"Servo_moveAll\000"
 7783      6F5F6D6F 
 7783      7665416C 
 7783      6C00
 7784              	.LASF79:
 7785 04a1 49544D5F 		.ascii	"ITM_RxBuffer\000"
 7785      52784275 
 7785      66666572 
 7785      00
 7786              	.LASF87:
 7787 04ae 55415254 		.ascii	"UART_SRV_PutArray\000"
 7787      5F535256 
 7787      5F507574 
 7787      41727261 
 7787      7900
 7788              	.LASF88:
 7789 04c0 43794465 		.ascii	"CyDelay\000"
 7789      6C617900 
 7790              	.LASF50:
 7791 04c8 706F734C 		.ascii	"posLSB\000"
 7791      534200
 7792              	.LASF55:
 7793 04cf 53657276 		.ascii	"Servo_moveAllAngle\000"
 7793      6F5F6D6F 
 7793      7665416C 
 7793      6C416E67 
 7793      6C6500
 7794              	.LASF32:
 7795 04e2 676F616C 		.ascii	"goalLSB\000"
 7795      4C534200 
 7796              	.LASF39:
 7797 04ea 76616C75 		.ascii	"valueACK\000"
ARM GAS  C:\Users\EDTRIC~1\AppData\Local\Temp\ccXQQyjM.s 			page 159


 7797      6541434B 
 7797      00
 7798              		.ident	"GCC: (GNU Tools for ARM Embedded Processors) 4.9.3 20150303 (release) [ARM/embedded-4_9-br
