ARM GAS  C:\Users\EDTRIC~1\AppData\Local\Temp\ccXQQyjM.s 			page 1


   1              		.syntax unified
   2              		.cpu cortex-m3
   3              		.fpu softvfp
   4              		.eabi_attribute 20, 1
   5              		.eabi_attribute 21, 1
   6              		.eabi_attribute 23, 3
   7              		.eabi_attribute 24, 1
   8              		.eabi_attribute 25, 1
   9              		.eabi_attribute 26, 1
  10              		.eabi_attribute 30, 1
  11              		.eabi_attribute 34, 1
  12              		.eabi_attribute 18, 4
  13              		.thumb
  14              		.file	"herkulex2.c"
  15              		.text
  16              	.Ltext0:
  17              		.cfi_sections	.debug_frame
  18              		.section	.text.clearBuffer,"ax",%progbits
  19              		.align	2
  20              		.global	clearBuffer
  21              		.thumb
  22              		.thumb_func
  23              		.type	clearBuffer, %function
  24              	clearBuffer:
  25              	.LFB63:
  26              		.file 1 ".\\herkulex2.c"
   1:.\herkulex2.c **** /* ========================================
   2:.\herkulex2.c ****  *
   3:.\herkulex2.c ****  * Copyright YOUR COMPANY, THE YEAR
   4:.\herkulex2.c ****  * All Rights Reserved
   5:.\herkulex2.c ****  * UNPUBLISHED, LICENSED SOFTWARE.
   6:.\herkulex2.c ****  *
   7:.\herkulex2.c ****  * CONFIDENTIAL AND PROPRIETARY INFORMATION
   8:.\herkulex2.c ****  * WHICH IS THE PROPERTY OF your company.
   9:.\herkulex2.c ****  *
  10:.\herkulex2.c ****  * ========================================
  11:.\herkulex2.c **** */
  12:.\herkulex2.c **** 
  13:.\herkulex2.c **** #include "herkulex2.h"
  14:.\herkulex2.c **** 
  15:.\herkulex2.c **** uint8 pSize;
  16:.\herkulex2.c **** uint8 pID;
  17:.\herkulex2.c **** uint8 cmd;
  18:.\herkulex2.c **** uint8 lengthString;
  19:.\herkulex2.c **** uint8 ck1;
  20:.\herkulex2.c **** uint8 ck2;
  21:.\herkulex2.c **** 
  22:.\herkulex2.c **** uint8 conta;
  23:.\herkulex2.c **** 
  24:.\herkulex2.c **** uint8 XOR;
  25:.\herkulex2.c **** int playTime;
  26:.\herkulex2.c **** 
  27:.\herkulex2.c **** uint8 data[DATASIZE];
  28:.\herkulex2.c **** uint8 dataEx[DATAMOVE+8];
  29:.\herkulex2.c **** uint8 moveData[DATAMOVE];
  30:.\herkulex2.c **** 
  31:.\herkulex2.c **** void clearBuffer( void )
ARM GAS  C:\Users\EDTRIC~1\AppData\Local\Temp\ccXQQyjM.s 			page 2


  32:.\herkulex2.c **** {
  27              		.loc 1 32 0
  28              		.cfi_startproc
  29              		@ args = 0, pretend = 0, frame = 0
  30              		@ frame_needed = 0, uses_anonymous_args = 0
  31 0000 08B5     		push	{r3, lr}
  32              		.cfi_def_cfa_offset 8
  33              		.cfi_offset 3, -8
  34              		.cfi_offset 14, -4
  33:.\herkulex2.c ****     UART_SRV_ClearTxBuffer();
  35              		.loc 1 33 0
  36 0002 FFF7FEFF 		bl	UART_SRV_ClearTxBuffer
  37              	.LVL0:
  34:.\herkulex2.c ****     UART_SRV_ClearRxBuffer();
  38              		.loc 1 34 0
  39 0006 FFF7FEFF 		bl	UART_SRV_ClearRxBuffer
  40              	.LVL1:
  41 000a 08BD     		pop	{r3, pc}
  42              		.cfi_endproc
  43              	.LFE63:
  44              		.size	clearBuffer, .-clearBuffer
  45              		.section	.text.checksum1,"ax",%progbits
  46              		.align	2
  47              		.global	checksum1
  48              		.thumb
  49              		.thumb_func
  50              		.type	checksum1, %function
  51              	checksum1:
  52              	.LFB64:
  35:.\herkulex2.c **** }
  36:.\herkulex2.c **** 
  37:.\herkulex2.c **** uint8 checksum1( uint8 * data , uint8 lengthString )
  38:.\herkulex2.c **** {
  53              		.loc 1 38 0
  54              		.cfi_startproc
  55              		@ args = 0, pretend = 0, frame = 0
  56              		@ frame_needed = 0, uses_anonymous_args = 0
  57              		@ link register save eliminated.
  58              	.LVL2:
  59 0000 30B4     		push	{r4, r5}
  60              		.cfi_def_cfa_offset 8
  61              		.cfi_offset 4, -8
  62              		.cfi_offset 5, -4
  39:.\herkulex2.c ****     uint8 i;
  40:.\herkulex2.c ****     
  41:.\herkulex2.c ****     XOR = 0;
  42:.\herkulex2.c ****     XOR = XOR ^ pSize;
  63              		.loc 1 42 0
  64 0002 0D4B     		ldr	r3, .L7
  65 0004 1A78     		ldrb	r2, [r3]	@ zero_extendqisi2
  43:.\herkulex2.c ****     XOR = XOR ^ pID;
  66              		.loc 1 43 0
  67 0006 0D4B     		ldr	r3, .L7+4
  68 0008 1B78     		ldrb	r3, [r3]	@ zero_extendqisi2
  69 000a 5A40     		eors	r2, r2, r3
  44:.\herkulex2.c ****     XOR = XOR ^ cmd;
  70              		.loc 1 44 0
ARM GAS  C:\Users\EDTRIC~1\AppData\Local\Temp\ccXQQyjM.s 			page 3


  71 000c 0C4B     		ldr	r3, .L7+8
  72 000e 1B78     		ldrb	r3, [r3]	@ zero_extendqisi2
  73 0010 5340     		eors	r3, r3, r2
  74 0012 0C4A     		ldr	r2, .L7+12
  75 0014 1370     		strb	r3, [r2]
  76              	.LVL3:
  45:.\herkulex2.c ****     
  46:.\herkulex2.c ****     for( i = 0; i < lengthString; i++ )
  77              		.loc 1 46 0
  78 0016 0023     		movs	r3, #0
  79 0018 06E0     		b	.L4
  80              	.LVL4:
  81              	.L5:
  47:.\herkulex2.c ****     {
  48:.\herkulex2.c ****         XOR = XOR ^ data[i];
  82              		.loc 1 48 0 discriminator 3
  83 001a C55C     		ldrb	r5, [r0, r3]	@ zero_extendqisi2
  84 001c 094C     		ldr	r4, .L7+12
  85 001e 2278     		ldrb	r2, [r4]	@ zero_extendqisi2
  86 0020 6A40     		eors	r2, r2, r5
  87 0022 2270     		strb	r2, [r4]
  46:.\herkulex2.c ****     {
  88              		.loc 1 46 0 discriminator 3
  89 0024 0133     		adds	r3, r3, #1
  90              	.LVL5:
  91 0026 DBB2     		uxtb	r3, r3
  92              	.LVL6:
  93              	.L4:
  46:.\herkulex2.c ****     {
  94              		.loc 1 46 0 is_stmt 0 discriminator 1
  95 0028 8B42     		cmp	r3, r1
  96 002a F6D3     		bcc	.L5
  49:.\herkulex2.c ****     }
  50:.\herkulex2.c ****     
  51:.\herkulex2.c ****     return XOR & 0xFE;
  97              		.loc 1 51 0 is_stmt 1
  98 002c 054B     		ldr	r3, .L7+12
  99              	.LVL7:
 100 002e 1878     		ldrb	r0, [r3]	@ zero_extendqisi2
 101              	.LVL8:
  52:.\herkulex2.c **** }
 102              		.loc 1 52 0
 103 0030 00F0FE00 		and	r0, r0, #254
 104 0034 30BC     		pop	{r4, r5}
 105              		.cfi_restore 5
 106              		.cfi_restore 4
 107              		.cfi_def_cfa_offset 0
 108 0036 7047     		bx	lr
 109              	.L8:
 110              		.align	2
 111              	.L7:
 112 0038 00000000 		.word	pSize
 113 003c 00000000 		.word	pID
 114 0040 00000000 		.word	cmd
 115 0044 00000000 		.word	XOR
 116              		.cfi_endproc
 117              	.LFE64:
ARM GAS  C:\Users\EDTRIC~1\AppData\Local\Temp\ccXQQyjM.s 			page 4


 118              		.size	checksum1, .-checksum1
 119              		.section	.text.checksum2,"ax",%progbits
 120              		.align	2
 121              		.global	checksum2
 122              		.thumb
 123              		.thumb_func
 124              		.type	checksum2, %function
 125              	checksum2:
 126              	.LFB65:
  53:.\herkulex2.c **** 
  54:.\herkulex2.c **** uint8 checksum2( uint8 XOR )
  55:.\herkulex2.c **** {
 127              		.loc 1 55 0
 128              		.cfi_startproc
 129              		@ args = 0, pretend = 0, frame = 0
 130              		@ frame_needed = 0, uses_anonymous_args = 0
 131              		@ link register save eliminated.
 132              	.LVL9:
  56:.\herkulex2.c ****     return (~XOR) & 0xFE;
 133              		.loc 1 56 0
 134 0000 C043     		mvns	r0, r0
 135              	.LVL10:
  57:.\herkulex2.c **** }
 136              		.loc 1 57 0
 137 0002 00F0FE00 		and	r0, r0, #254
 138 0006 7047     		bx	lr
 139              		.cfi_endproc
 140              	.LFE65:
 141              		.size	checksum2, .-checksum2
 142              		.section	.text.sendData,"ax",%progbits
 143              		.align	2
 144              		.global	sendData
 145              		.thumb
 146              		.thumb_func
 147              		.type	sendData, %function
 148              	sendData:
 149              	.LFB66:
  58:.\herkulex2.c **** 
  59:.\herkulex2.c **** /*void printHexByte( uint8 x )
  60:.\herkulex2.c **** {
  61:.\herkulex2.c ****     char byte[4];
  62:.\herkulex2.c ****     
  63:.\herkulex2.c ****     sprintf( byte , "%x" , x );
  64:.\herkulex2.c ****     
  65:.\herkulex2.c ****     UART_UartPutString("0x");
  66:.\herkulex2.c ****     if( x < 16)
  67:.\herkulex2.c ****     {
  68:.\herkulex2.c ****         UART_UartPutChar('0');
  69:.\herkulex2.c ****     }
  70:.\herkulex2.c ****     UART_UartPutString(byte);
  71:.\herkulex2.c ****     UART_UartPutChar(' ');
  72:.\herkulex2.c **** }*/
  73:.\herkulex2.c **** 
  74:.\herkulex2.c **** void sendData( uint8 * buffer , uint8 length )
  75:.\herkulex2.c **** {
 150              		.loc 1 75 0
 151              		.cfi_startproc
ARM GAS  C:\Users\EDTRIC~1\AppData\Local\Temp\ccXQQyjM.s 			page 5


 152              		@ args = 0, pretend = 0, frame = 0
 153              		@ frame_needed = 0, uses_anonymous_args = 0
 154              	.LVL11:
 155 0000 38B5     		push	{r3, r4, r5, lr}
 156              		.cfi_def_cfa_offset 16
 157              		.cfi_offset 3, -16
 158              		.cfi_offset 4, -12
 159              		.cfi_offset 5, -8
 160              		.cfi_offset 14, -4
 161 0002 0546     		mov	r5, r0
 162 0004 0C46     		mov	r4, r1
  76:.\herkulex2.c ****     clearBuffer();
 163              		.loc 1 76 0
 164 0006 FFF7FEFF 		bl	clearBuffer
 165              	.LVL12:
  77:.\herkulex2.c ****     UART_SRV_PutArray( buffer , length );
 166              		.loc 1 77 0
 167 000a 2846     		mov	r0, r5
 168 000c 2146     		mov	r1, r4
 169 000e FFF7FEFF 		bl	UART_SRV_PutArray
 170              	.LVL13:
  78:.\herkulex2.c ****     CyDelay(1);
 171              		.loc 1 78 0
 172 0012 0120     		movs	r0, #1
 173 0014 FFF7FEFF 		bl	CyDelay
 174              	.LVL14:
 175 0018 38BD     		pop	{r3, r4, r5, pc}
 176              		.cfi_endproc
 177              	.LFE66:
 178              		.size	sendData, .-sendData
 179 001a 00BF     		.section	.text.readData,"ax",%progbits
 180              		.align	2
 181              		.global	readData
 182              		.thumb
 183              		.thumb_func
 184              		.type	readData, %function
 185              	readData:
 186              	.LFB67:
  79:.\herkulex2.c **** }
  80:.\herkulex2.c **** 
  81:.\herkulex2.c **** void readData( uint8 size )
  82:.\herkulex2.c **** {
 187              		.loc 1 82 0
 188              		.cfi_startproc
 189              		@ args = 0, pretend = 0, frame = 0
 190              		@ frame_needed = 0, uses_anonymous_args = 0
 191              	.LVL15:
 192 0000 70B5     		push	{r4, r5, r6, lr}
 193              		.cfi_def_cfa_offset 16
 194              		.cfi_offset 4, -16
 195              		.cfi_offset 5, -12
 196              		.cfi_offset 6, -8
 197              		.cfi_offset 14, -4
 198 0002 0546     		mov	r5, r0
 199              	.LVL16:
  83:.\herkulex2.c ****     uint8 i = 0;
  84:.\herkulex2.c ****     uint8 beginsave = 0;
ARM GAS  C:\Users\EDTRIC~1\AppData\Local\Temp\ccXQQyjM.s 			page 6


  85:.\herkulex2.c ****     uint8 timeCounter = 0;
 200              		.loc 1 85 0
 201 0004 0024     		movs	r4, #0
  86:.\herkulex2.c ****     
  87:.\herkulex2.c ****     while( (UART_SRV_GetRxBufferSize() < size) & (timeCounter < TIMEOUT) )
 202              		.loc 1 87 0
 203 0006 04E0     		b	.L13
 204              	.LVL17:
 205              	.L14:
  88:.\herkulex2.c ****     {
  89:.\herkulex2.c ****         timeCounter++;
 206              		.loc 1 89 0
 207 0008 0134     		adds	r4, r4, #1
 208              	.LVL18:
 209 000a E4B2     		uxtb	r4, r4
 210              	.LVL19:
  90:.\herkulex2.c ****         CyDelay(1);
 211              		.loc 1 90 0
 212 000c 0120     		movs	r0, #1
 213 000e FFF7FEFF 		bl	CyDelay
 214              	.LVL20:
 215              	.L13:
  87:.\herkulex2.c ****     {
 216              		.loc 1 87 0
 217 0012 FFF7FEFF 		bl	UART_SRV_GetRxBufferSize
 218              	.LVL21:
 219 0016 042C     		cmp	r4, #4
 220 0018 98BF     		it	ls
 221 001a A842     		cmpls	r0, r5
 222 001c F4D3     		bcc	.L14
 223 001e 0024     		movs	r4, #0
 224              	.LVL22:
 225 0020 2646     		mov	r6, r4
 226 0022 0DE0     		b	.L15
 227              	.LVL23:
 228              	.L18:
 229              	.LBB2:
  91:.\herkulex2.c ****     }
  92:.\herkulex2.c ****     while( (UART_SRV_GetRxBufferSize() > 0) )
  93:.\herkulex2.c ****     {
  94:.\herkulex2.c ****         uint8 recByte = UART_SRV_GetByte();
 230              		.loc 1 94 0
 231 0024 FFF7FEFF 		bl	UART_SRV_GetByte
 232              	.LVL24:
 233 0028 C0B2     		uxtb	r0, r0
 234              	.LVL25:
  95:.\herkulex2.c ****         if( recByte == 0xFF )
 235              		.loc 1 95 0
 236 002a FF28     		cmp	r0, #255
 237 002c 01D1     		bne	.L16
  96:.\herkulex2.c ****         {
  97:.\herkulex2.c ****             beginsave = 1;
 238              		.loc 1 97 0
 239 002e 0124     		movs	r4, #1
 240              	.LVL26:
  98:.\herkulex2.c ****             i = 0;
 241              		.loc 1 98 0
ARM GAS  C:\Users\EDTRIC~1\AppData\Local\Temp\ccXQQyjM.s 			page 7


 242 0030 0026     		movs	r6, #0
 243              	.LVL27:
 244              	.L16:
  99:.\herkulex2.c ****         }
 100:.\herkulex2.c ****         if( beginsave == 1 && i < size )
 245              		.loc 1 100 0
 246 0032 2CB1     		cbz	r4, .L15
 247              		.loc 1 100 0 is_stmt 0 discriminator 1
 248 0034 AE42     		cmp	r6, r5
 249 0036 03D2     		bcs	.L15
 101:.\herkulex2.c ****         {
 102:.\herkulex2.c ****             dataEx[i] = recByte;
 250              		.loc 1 102 0 is_stmt 1
 251 0038 054B     		ldr	r3, .L21
 252 003a 9855     		strb	r0, [r3, r6]
 103:.\herkulex2.c ****             i++;
 253              		.loc 1 103 0
 254 003c 0136     		adds	r6, r6, #1
 255              	.LVL28:
 256 003e F6B2     		uxtb	r6, r6
 257              	.LVL29:
 258              	.L15:
 259              	.LBE2:
  92:.\herkulex2.c ****     {
 260              		.loc 1 92 0
 261 0040 FFF7FEFF 		bl	UART_SRV_GetRxBufferSize
 262              	.LVL30:
 263 0044 0028     		cmp	r0, #0
 264 0046 EDD1     		bne	.L18
 104:.\herkulex2.c ****         }
 105:.\herkulex2.c ****     }
 106:.\herkulex2.c ****     clearBuffer();
 265              		.loc 1 106 0
 266 0048 FFF7FEFF 		bl	clearBuffer
 267              	.LVL31:
 268 004c 70BD     		pop	{r4, r5, r6, pc}
 269              	.LVL32:
 270              	.L22:
 271 004e 00BF     		.align	2
 272              	.L21:
 273 0050 00000000 		.word	dataEx
 274              		.cfi_endproc
 275              	.LFE67:
 276              		.size	readData, .-readData
 277              		.section	.text.addData,"ax",%progbits
 278              		.align	2
 279              		.global	addData
 280              		.thumb
 281              		.thumb_func
 282              		.type	addData, %function
 283              	addData:
 284              	.LFB68:
 107:.\herkulex2.c **** }
 108:.\herkulex2.c **** 
 109:.\herkulex2.c **** void addData( int goalLSB , int goalMSB , uint8 set , uint8 servoID )
 110:.\herkulex2.c **** {
 285              		.loc 1 110 0
ARM GAS  C:\Users\EDTRIC~1\AppData\Local\Temp\ccXQQyjM.s 			page 8


 286              		.cfi_startproc
 287              		@ args = 0, pretend = 0, frame = 0
 288              		@ frame_needed = 0, uses_anonymous_args = 0
 289              		@ link register save eliminated.
 290              	.LVL33:
 291 0000 F0B4     		push	{r4, r5, r6, r7}
 292              		.cfi_def_cfa_offset 16
 293              		.cfi_offset 4, -16
 294              		.cfi_offset 5, -12
 295              		.cfi_offset 6, -8
 296              		.cfi_offset 7, -4
 111:.\herkulex2.c ****     moveData[conta++] = goalLSB;
 297              		.loc 1 111 0
 298 0002 084E     		ldr	r6, .L25
 299 0004 3778     		ldrb	r7, [r6]	@ zero_extendqisi2
 300 0006 7D1C     		adds	r5, r7, #1
 301 0008 EDB2     		uxtb	r5, r5
 302 000a 074C     		ldr	r4, .L25+4
 303 000c E055     		strb	r0, [r4, r7]
 112:.\herkulex2.c ****     moveData[conta++] = goalMSB;
 304              		.loc 1 112 0
 305 000e 681C     		adds	r0, r5, #1
 306              	.LVL34:
 307 0010 C0B2     		uxtb	r0, r0
 308 0012 6155     		strb	r1, [r4, r5]
 113:.\herkulex2.c ****     moveData[conta++] = set;
 309              		.loc 1 113 0
 310 0014 411C     		adds	r1, r0, #1
 311              	.LVL35:
 312 0016 C9B2     		uxtb	r1, r1
 313 0018 2254     		strb	r2, [r4, r0]
 114:.\herkulex2.c ****     moveData[conta++] = servoID;
 314              		.loc 1 114 0
 315 001a 4A1C     		adds	r2, r1, #1
 316              	.LVL36:
 317 001c 3270     		strb	r2, [r6]
 318 001e 6354     		strb	r3, [r4, r1]
 319              	.LVL37:
 115:.\herkulex2.c **** }
 320              		.loc 1 115 0
 321 0020 F0BC     		pop	{r4, r5, r6, r7}
 322              		.cfi_restore 7
 323              		.cfi_restore 6
 324              		.cfi_restore 5
 325              		.cfi_restore 4
 326              		.cfi_def_cfa_offset 0
 327 0022 7047     		bx	lr
 328              	.L26:
 329              		.align	2
 330              	.L25:
 331 0024 00000000 		.word	conta
 332 0028 00000000 		.word	moveData
 333              		.cfi_endproc
 334              	.LFE68:
 335              		.size	addData, .-addData
 336              		.section	.text.Servo_status,"ax",%progbits
 337              		.align	2
ARM GAS  C:\Users\EDTRIC~1\AppData\Local\Temp\ccXQQyjM.s 			page 9


 338              		.global	Servo_status
 339              		.thumb
 340              		.thumb_func
 341              		.type	Servo_status, %function
 342              	Servo_status:
 343              	.LFB70:
 116:.\herkulex2.c **** 
 117:.\herkulex2.c **** void Servo_Start( void )
 118:.\herkulex2.c **** {
 119:.\herkulex2.c ****     conta = 0;
 120:.\herkulex2.c ****     lengthString = 0;
 121:.\herkulex2.c ****     CyDelay(100);
 122:.\herkulex2.c ****     Servo_clearError(PIDALL);
 123:.\herkulex2.c ****     CyDelay(10);
 124:.\herkulex2.c ****     Servo_ACK(1);
 125:.\herkulex2.c ****     CyDelay(10);
 126:.\herkulex2.c ****     Servo_torqueON(PIDALL);
 127:.\herkulex2.c ****     CyDelay(10);
 128:.\herkulex2.c ****     
 129:.\herkulex2.c ****     Servo_moveOneAngle( PIDALL , 0 , 1000 , LED_RED );
 130:.\herkulex2.c ****     CyDelay(1200);
 131:.\herkulex2.c ****     Servo_setLED( PIDALL , LED_GREEN );
 132:.\herkulex2.c ****     CyDelay(100);
 133:.\herkulex2.c ****     Servo_setLED( PIDALL , 0 );
 134:.\herkulex2.c ****     CyDelay(500);
 135:.\herkulex2.c **** }
 136:.\herkulex2.c **** 
 137:.\herkulex2.c **** uint8 Servo_status( uint8 servoID )
 138:.\herkulex2.c **** {
 344              		.loc 1 138 0
 345              		.cfi_startproc
 346              		@ args = 0, pretend = 0, frame = 0
 347              		@ frame_needed = 0, uses_anonymous_args = 0
 348              	.LVL38:
 349 0000 2DE9F843 		push	{r3, r4, r5, r6, r7, r8, r9, lr}
 350              		.cfi_def_cfa_offset 32
 351              		.cfi_offset 3, -32
 352              		.cfi_offset 4, -28
 353              		.cfi_offset 5, -24
 354              		.cfi_offset 6, -20
 355              		.cfi_offset 7, -16
 356              		.cfi_offset 8, -12
 357              		.cfi_offset 9, -8
 358              		.cfi_offset 14, -4
 139:.\herkulex2.c ****     pSize = 0x07;
 359              		.loc 1 139 0
 360 0004 DFF8B890 		ldr	r9, .L31+24
 361 0008 0721     		movs	r1, #7
 362 000a 89F80010 		strb	r1, [r9]
 140:.\herkulex2.c ****     pID = servoID;
 363              		.loc 1 140 0
 364 000e 264C     		ldr	r4, .L31
 365 0010 2070     		strb	r0, [r4]
 141:.\herkulex2.c ****     cmd = STAT;
 366              		.loc 1 141 0
 367 0012 264E     		ldr	r6, .L31+4
 368 0014 3170     		strb	r1, [r6]
ARM GAS  C:\Users\EDTRIC~1\AppData\Local\Temp\ccXQQyjM.s 			page 10


 142:.\herkulex2.c ****     
 143:.\herkulex2.c ****     ck1 = ( pSize ^ pID ^ cmd) & 0xFE;
 369              		.loc 1 143 0
 370 0016 00F0FE02 		and	r2, r0, #254
 371 001a DFF8A880 		ldr	r8, .L31+28
 372 001e 88F80020 		strb	r2, [r8]
 144:.\herkulex2.c ****     ck2 = ( ~( pSize ^ pID ^ cmd ) ) & 0xFE;
 373              		.loc 1 144 0
 374 0022 C343     		mvns	r3, r0
 375 0024 03F0FE03 		and	r3, r3, #254
 376 0028 214F     		ldr	r7, .L31+8
 377 002a 3B70     		strb	r3, [r7]
 145:.\herkulex2.c ****     
 146:.\herkulex2.c ****     dataEx[0] = HEADER;
 378              		.loc 1 146 0
 379 002c 214D     		ldr	r5, .L31+12
 380 002e 4FF0FF0E 		mov	lr, #255
 381 0032 85F800E0 		strb	lr, [r5]
 147:.\herkulex2.c ****     dataEx[1] = HEADER;
 382              		.loc 1 147 0
 383 0036 85F801E0 		strb	lr, [r5, #1]
 148:.\herkulex2.c ****     dataEx[2] = pSize;
 384              		.loc 1 148 0
 385 003a A970     		strb	r1, [r5, #2]
 149:.\herkulex2.c ****     dataEx[3] = pID;
 386              		.loc 1 149 0
 387 003c E870     		strb	r0, [r5, #3]
 150:.\herkulex2.c ****     dataEx[4] = cmd;
 388              		.loc 1 150 0
 389 003e 2971     		strb	r1, [r5, #4]
 151:.\herkulex2.c ****     dataEx[5] = ck1;
 390              		.loc 1 151 0
 391 0040 6A71     		strb	r2, [r5, #5]
 152:.\herkulex2.c ****     dataEx[6] = ck2;
 392              		.loc 1 152 0
 393 0042 AB71     		strb	r3, [r5, #6]
 153:.\herkulex2.c ****     
 154:.\herkulex2.c ****     sendData( dataEx , pSize );
 394              		.loc 1 154 0
 395 0044 2846     		mov	r0, r5
 396              	.LVL39:
 397 0046 FFF7FEFF 		bl	sendData
 398              	.LVL40:
 155:.\herkulex2.c ****     CyDelay(5);
 399              		.loc 1 155 0
 400 004a 0520     		movs	r0, #5
 401 004c FFF7FEFF 		bl	CyDelay
 402              	.LVL41:
 156:.\herkulex2.c ****     readData(9);
 403              		.loc 1 156 0
 404 0050 0920     		movs	r0, #9
 405 0052 FFF7FEFF 		bl	readData
 406              	.LVL42:
 157:.\herkulex2.c ****     
 158:.\herkulex2.c ****     pSize = dataEx[2];
 407              		.loc 1 158 0
 408 0056 A878     		ldrb	r0, [r5, #2]	@ zero_extendqisi2
ARM GAS  C:\Users\EDTRIC~1\AppData\Local\Temp\ccXQQyjM.s 			page 11


 409 0058 89F80000 		strb	r0, [r9]
 159:.\herkulex2.c ****     pID = dataEx[3];
 410              		.loc 1 159 0
 411 005c EB78     		ldrb	r3, [r5, #3]	@ zero_extendqisi2
 412 005e 2370     		strb	r3, [r4]
 160:.\herkulex2.c ****     cmd = dataEx[4];
 413              		.loc 1 160 0
 414 0060 2979     		ldrb	r1, [r5, #4]	@ zero_extendqisi2
 415 0062 3170     		strb	r1, [r6]
 161:.\herkulex2.c ****     data[0] = data[7];
 416              		.loc 1 161 0
 417 0064 144A     		ldr	r2, .L31+16
 418 0066 D479     		ldrb	r4, [r2, #7]	@ zero_extendqisi2
 419 0068 1470     		strb	r4, [r2]
 162:.\herkulex2.c ****     data[1] = data[8];
 420              		.loc 1 162 0
 421 006a 147A     		ldrb	r4, [r2, #8]	@ zero_extendqisi2
 422 006c 5470     		strb	r4, [r2, #1]
 163:.\herkulex2.c ****     lengthString = 2;
 423              		.loc 1 163 0
 424 006e 0224     		movs	r4, #2
 425 0070 124A     		ldr	r2, .L31+20
 426 0072 1470     		strb	r4, [r2]
 164:.\herkulex2.c ****     
 165:.\herkulex2.c ****     ck1 = ( dataEx[2] ^ dataEx[3] ^ dataEx[4] ^ dataEx[7] ^ dataEx[8] ) & 0xFE;
 427              		.loc 1 165 0
 428 0074 EE79     		ldrb	r6, [r5, #7]	@ zero_extendqisi2
 429 0076 2C7A     		ldrb	r4, [r5, #8]	@ zero_extendqisi2
 430 0078 4340     		eors	r3, r3, r0
 431 007a 4B40     		eors	r3, r3, r1
 432 007c 7340     		eors	r3, r3, r6
 433 007e 5C40     		eors	r4, r4, r3
 434 0080 04F0FE04 		and	r4, r4, #254
 435 0084 88F80040 		strb	r4, [r8]
 166:.\herkulex2.c ****     ck2 = checksum2(ck1);
 436              		.loc 1 166 0
 437 0088 2046     		mov	r0, r4
 438 008a FFF7FEFF 		bl	checksum2
 439              	.LVL43:
 440 008e 3870     		strb	r0, [r7]
 167:.\herkulex2.c ****     
 168:.\herkulex2.c ****     if( ck1 != dataEx[5] ) return -1;
 441              		.loc 1 168 0
 442 0090 6B79     		ldrb	r3, [r5, #5]	@ zero_extendqisi2
 443 0092 9C42     		cmp	r4, r3
 444 0094 04D1     		bne	.L29
 169:.\herkulex2.c ****     if( ck2 != dataEx[6] ) return -2;
 445              		.loc 1 169 0
 446 0096 AB79     		ldrb	r3, [r5, #6]	@ zero_extendqisi2
 447 0098 9842     		cmp	r0, r3
 448 009a 02D0     		beq	.L28
 449 009c FE26     		movs	r6, #254
 450 009e 00E0     		b	.L28
 451              	.L29:
 168:.\herkulex2.c ****     if( ck2 != dataEx[6] ) return -2;
 452              		.loc 1 168 0
 453 00a0 FF26     		movs	r6, #255
ARM GAS  C:\Users\EDTRIC~1\AppData\Local\Temp\ccXQQyjM.s 			page 12


 454              	.L28:
 170:.\herkulex2.c ****     
 171:.\herkulex2.c ****     return dataEx[7];
 172:.\herkulex2.c **** }
 455              		.loc 1 172 0
 456 00a2 3046     		mov	r0, r6
 457 00a4 BDE8F883 		pop	{r3, r4, r5, r6, r7, r8, r9, pc}
 458              	.L32:
 459              		.align	2
 460              	.L31:
 461 00a8 00000000 		.word	pID
 462 00ac 00000000 		.word	cmd
 463 00b0 00000000 		.word	ck2
 464 00b4 00000000 		.word	dataEx
 465 00b8 00000000 		.word	data
 466 00bc 00000000 		.word	lengthString
 467 00c0 00000000 		.word	pSize
 468 00c4 00000000 		.word	ck1
 469              		.cfi_endproc
 470              	.LFE70:
 471              		.size	Servo_status, .-Servo_status
 472              		.section	.text.Servo_torqueON,"ax",%progbits
 473              		.align	2
 474              		.global	Servo_torqueON
 475              		.thumb
 476              		.thumb_func
 477              		.type	Servo_torqueON, %function
 478              	Servo_torqueON:
 479              	.LFB71:
 173:.\herkulex2.c **** 
 174:.\herkulex2.c **** void Servo_torqueON( uint8 servoID )
 175:.\herkulex2.c **** {
 480              		.loc 1 175 0
 481              		.cfi_startproc
 482              		@ args = 0, pretend = 0, frame = 0
 483              		@ frame_needed = 0, uses_anonymous_args = 0
 484              	.LVL44:
 485 0000 2DE9F041 		push	{r4, r5, r6, r7, r8, lr}
 486              		.cfi_def_cfa_offset 24
 487              		.cfi_offset 4, -24
 488              		.cfi_offset 5, -20
 489              		.cfi_offset 6, -16
 490              		.cfi_offset 7, -12
 491              		.cfi_offset 8, -8
 492              		.cfi_offset 14, -4
 176:.\herkulex2.c ****     pSize = 0x0A;
 493              		.loc 1 176 0
 494 0004 DFF88480 		ldr	r8, .L35+28
 495 0008 0A23     		movs	r3, #10
 496 000a 88F80030 		strb	r3, [r8]
 177:.\herkulex2.c ****     pID = servoID;
 497              		.loc 1 177 0
 498 000e 184F     		ldr	r7, .L35
 499 0010 3870     		strb	r0, [r7]
 178:.\herkulex2.c ****     cmd = RAM_WRITE;
 500              		.loc 1 178 0
 501 0012 184E     		ldr	r6, .L35+4
ARM GAS  C:\Users\EDTRIC~1\AppData\Local\Temp\ccXQQyjM.s 			page 13


 502 0014 0321     		movs	r1, #3
 503 0016 3170     		strb	r1, [r6]
 179:.\herkulex2.c ****     data[0] = 0x34;
 504              		.loc 1 179 0
 505 0018 174C     		ldr	r4, .L35+8
 506 001a 3423     		movs	r3, #52
 507 001c 2370     		strb	r3, [r4]
 180:.\herkulex2.c ****     data[1] = 0x01;
 508              		.loc 1 180 0
 509 001e 0123     		movs	r3, #1
 510 0020 6370     		strb	r3, [r4, #1]
 181:.\herkulex2.c ****     data[2] = 0x60;
 511              		.loc 1 181 0
 512 0022 6023     		movs	r3, #96
 513 0024 A370     		strb	r3, [r4, #2]
 182:.\herkulex2.c ****     lengthString = 3;
 514              		.loc 1 182 0
 515 0026 154B     		ldr	r3, .L35+12
 516 0028 1970     		strb	r1, [r3]
 183:.\herkulex2.c ****     
 184:.\herkulex2.c ****     ck1 = checksum1( data , lengthString );
 517              		.loc 1 184 0
 518 002a 2046     		mov	r0, r4
 519              	.LVL45:
 520 002c FFF7FEFF 		bl	checksum1
 521              	.LVL46:
 522 0030 0546     		mov	r5, r0
 523 0032 134B     		ldr	r3, .L35+16
 524 0034 1870     		strb	r0, [r3]
 185:.\herkulex2.c ****     ck2 = checksum2( ck1 );
 525              		.loc 1 185 0
 526 0036 FFF7FEFF 		bl	checksum2
 527              	.LVL47:
 528 003a 124B     		ldr	r3, .L35+20
 529 003c 1870     		strb	r0, [r3]
 186:.\herkulex2.c ****     
 187:.\herkulex2.c ****     dataEx[0] = HEADER;
 530              		.loc 1 187 0
 531 003e 124B     		ldr	r3, .L35+24
 532 0040 FF22     		movs	r2, #255
 533 0042 1A70     		strb	r2, [r3]
 188:.\herkulex2.c ****     dataEx[1] = HEADER;
 534              		.loc 1 188 0
 535 0044 5A70     		strb	r2, [r3, #1]
 189:.\herkulex2.c ****     dataEx[2] = pSize;
 536              		.loc 1 189 0
 537 0046 98F80010 		ldrb	r1, [r8]	@ zero_extendqisi2
 538 004a 9970     		strb	r1, [r3, #2]
 190:.\herkulex2.c ****     dataEx[3] = pID;
 539              		.loc 1 190 0
 540 004c 3A78     		ldrb	r2, [r7]	@ zero_extendqisi2
 541 004e DA70     		strb	r2, [r3, #3]
 191:.\herkulex2.c ****     dataEx[4] = cmd;
 542              		.loc 1 191 0
 543 0050 3278     		ldrb	r2, [r6]	@ zero_extendqisi2
 544 0052 1A71     		strb	r2, [r3, #4]
 192:.\herkulex2.c ****     dataEx[5] = ck1;
ARM GAS  C:\Users\EDTRIC~1\AppData\Local\Temp\ccXQQyjM.s 			page 14


 545              		.loc 1 192 0
 546 0054 5D71     		strb	r5, [r3, #5]
 193:.\herkulex2.c ****     dataEx[6] = ck2;
 547              		.loc 1 193 0
 548 0056 9871     		strb	r0, [r3, #6]
 194:.\herkulex2.c ****     dataEx[7] = data[0];
 549              		.loc 1 194 0
 550 0058 2278     		ldrb	r2, [r4]	@ zero_extendqisi2
 551 005a DA71     		strb	r2, [r3, #7]
 195:.\herkulex2.c ****     dataEx[8] = data[1];
 552              		.loc 1 195 0
 553 005c 6278     		ldrb	r2, [r4, #1]	@ zero_extendqisi2
 554 005e 1A72     		strb	r2, [r3, #8]
 196:.\herkulex2.c ****     dataEx[9] = data[2];
 555              		.loc 1 196 0
 556 0060 A278     		ldrb	r2, [r4, #2]	@ zero_extendqisi2
 557 0062 5A72     		strb	r2, [r3, #9]
 197:.\herkulex2.c ****     
 198:.\herkulex2.c ****     sendData( dataEx , pSize );
 558              		.loc 1 198 0
 559 0064 1846     		mov	r0, r3
 560 0066 FFF7FEFF 		bl	sendData
 561              	.LVL48:
 562 006a BDE8F081 		pop	{r4, r5, r6, r7, r8, pc}
 563              	.L36:
 564 006e 00BF     		.align	2
 565              	.L35:
 566 0070 00000000 		.word	pID
 567 0074 00000000 		.word	cmd
 568 0078 00000000 		.word	data
 569 007c 00000000 		.word	lengthString
 570 0080 00000000 		.word	ck1
 571 0084 00000000 		.word	ck2
 572 0088 00000000 		.word	dataEx
 573 008c 00000000 		.word	pSize
 574              		.cfi_endproc
 575              	.LFE71:
 576              		.size	Servo_torqueON, .-Servo_torqueON
 577              		.section	.text.Servo_torqueOFF,"ax",%progbits
 578              		.align	2
 579              		.global	Servo_torqueOFF
 580              		.thumb
 581              		.thumb_func
 582              		.type	Servo_torqueOFF, %function
 583              	Servo_torqueOFF:
 584              	.LFB72:
 199:.\herkulex2.c **** }
 200:.\herkulex2.c **** 
 201:.\herkulex2.c **** void Servo_torqueOFF( uint8 servoID )
 202:.\herkulex2.c **** {
 585              		.loc 1 202 0
 586              		.cfi_startproc
 587              		@ args = 0, pretend = 0, frame = 0
 588              		@ frame_needed = 0, uses_anonymous_args = 0
 589              	.LVL49:
 590 0000 2DE9F041 		push	{r4, r5, r6, r7, r8, lr}
 591              		.cfi_def_cfa_offset 24
ARM GAS  C:\Users\EDTRIC~1\AppData\Local\Temp\ccXQQyjM.s 			page 15


 592              		.cfi_offset 4, -24
 593              		.cfi_offset 5, -20
 594              		.cfi_offset 6, -16
 595              		.cfi_offset 7, -12
 596              		.cfi_offset 8, -8
 597              		.cfi_offset 14, -4
 203:.\herkulex2.c ****     pSize = 0x0A;
 598              		.loc 1 203 0
 599 0004 DFF88480 		ldr	r8, .L39+28
 600 0008 0A23     		movs	r3, #10
 601 000a 88F80030 		strb	r3, [r8]
 204:.\herkulex2.c ****     pID = servoID;
 602              		.loc 1 204 0
 603 000e 184F     		ldr	r7, .L39
 604 0010 3870     		strb	r0, [r7]
 205:.\herkulex2.c ****     cmd = RAM_WRITE;
 605              		.loc 1 205 0
 606 0012 184E     		ldr	r6, .L39+4
 607 0014 0321     		movs	r1, #3
 608 0016 3170     		strb	r1, [r6]
 206:.\herkulex2.c ****     data[0] = 0x34;
 609              		.loc 1 206 0
 610 0018 174C     		ldr	r4, .L39+8
 611 001a 3423     		movs	r3, #52
 612 001c 2370     		strb	r3, [r4]
 207:.\herkulex2.c ****     data[1] = 0x01;
 613              		.loc 1 207 0
 614 001e 0123     		movs	r3, #1
 615 0020 6370     		strb	r3, [r4, #1]
 208:.\herkulex2.c ****     data[2] = 0x00;
 616              		.loc 1 208 0
 617 0022 0023     		movs	r3, #0
 618 0024 A370     		strb	r3, [r4, #2]
 209:.\herkulex2.c ****     lengthString = 3;
 619              		.loc 1 209 0
 620 0026 154B     		ldr	r3, .L39+12
 621 0028 1970     		strb	r1, [r3]
 210:.\herkulex2.c ****     
 211:.\herkulex2.c ****     ck1 = checksum1( data , lengthString );
 622              		.loc 1 211 0
 623 002a 2046     		mov	r0, r4
 624              	.LVL50:
 625 002c FFF7FEFF 		bl	checksum1
 626              	.LVL51:
 627 0030 0546     		mov	r5, r0
 628 0032 134B     		ldr	r3, .L39+16
 629 0034 1870     		strb	r0, [r3]
 212:.\herkulex2.c ****     ck2 = checksum2( ck1 );
 630              		.loc 1 212 0
 631 0036 FFF7FEFF 		bl	checksum2
 632              	.LVL52:
 633 003a 124B     		ldr	r3, .L39+20
 634 003c 1870     		strb	r0, [r3]
 213:.\herkulex2.c ****     
 214:.\herkulex2.c ****     dataEx[0] = HEADER;
 635              		.loc 1 214 0
 636 003e 124B     		ldr	r3, .L39+24
ARM GAS  C:\Users\EDTRIC~1\AppData\Local\Temp\ccXQQyjM.s 			page 16


 637 0040 FF22     		movs	r2, #255
 638 0042 1A70     		strb	r2, [r3]
 215:.\herkulex2.c ****     dataEx[1] = HEADER;
 639              		.loc 1 215 0
 640 0044 5A70     		strb	r2, [r3, #1]
 216:.\herkulex2.c ****     dataEx[2] = pSize;
 641              		.loc 1 216 0
 642 0046 98F80010 		ldrb	r1, [r8]	@ zero_extendqisi2
 643 004a 9970     		strb	r1, [r3, #2]
 217:.\herkulex2.c ****     dataEx[3] = pID;
 644              		.loc 1 217 0
 645 004c 3A78     		ldrb	r2, [r7]	@ zero_extendqisi2
 646 004e DA70     		strb	r2, [r3, #3]
 218:.\herkulex2.c ****     dataEx[4] = cmd;
 647              		.loc 1 218 0
 648 0050 3278     		ldrb	r2, [r6]	@ zero_extendqisi2
 649 0052 1A71     		strb	r2, [r3, #4]
 219:.\herkulex2.c ****     dataEx[5] = ck1;
 650              		.loc 1 219 0
 651 0054 5D71     		strb	r5, [r3, #5]
 220:.\herkulex2.c ****     dataEx[6] = ck2;
 652              		.loc 1 220 0
 653 0056 9871     		strb	r0, [r3, #6]
 221:.\herkulex2.c ****     dataEx[7] = data[0];
 654              		.loc 1 221 0
 655 0058 2278     		ldrb	r2, [r4]	@ zero_extendqisi2
 656 005a DA71     		strb	r2, [r3, #7]
 222:.\herkulex2.c ****     dataEx[8] = data[1];
 657              		.loc 1 222 0
 658 005c 6278     		ldrb	r2, [r4, #1]	@ zero_extendqisi2
 659 005e 1A72     		strb	r2, [r3, #8]
 223:.\herkulex2.c ****     dataEx[9] = data[2];
 660              		.loc 1 223 0
 661 0060 A278     		ldrb	r2, [r4, #2]	@ zero_extendqisi2
 662 0062 5A72     		strb	r2, [r3, #9]
 224:.\herkulex2.c ****     
 225:.\herkulex2.c ****     sendData( dataEx , pSize );
 663              		.loc 1 225 0
 664 0064 1846     		mov	r0, r3
 665 0066 FFF7FEFF 		bl	sendData
 666              	.LVL53:
 667 006a BDE8F081 		pop	{r4, r5, r6, r7, r8, pc}
 668              	.L40:
 669 006e 00BF     		.align	2
 670              	.L39:
 671 0070 00000000 		.word	pID
 672 0074 00000000 		.word	cmd
 673 0078 00000000 		.word	data
 674 007c 00000000 		.word	lengthString
 675 0080 00000000 		.word	ck1
 676 0084 00000000 		.word	ck2
 677 0088 00000000 		.word	dataEx
 678 008c 00000000 		.word	pSize
 679              		.cfi_endproc
 680              	.LFE72:
 681              		.size	Servo_torqueOFF, .-Servo_torqueOFF
 682              		.section	.text.Servo_ACK,"ax",%progbits
ARM GAS  C:\Users\EDTRIC~1\AppData\Local\Temp\ccXQQyjM.s 			page 17


 683              		.align	2
 684              		.global	Servo_ACK
 685              		.thumb
 686              		.thumb_func
 687              		.type	Servo_ACK, %function
 688              	Servo_ACK:
 689              	.LFB73:
 226:.\herkulex2.c **** }
 227:.\herkulex2.c **** 
 228:.\herkulex2.c **** void Servo_ACK( uint8 valueACK )
 229:.\herkulex2.c **** {
 690              		.loc 1 229 0
 691              		.cfi_startproc
 692              		@ args = 0, pretend = 0, frame = 0
 693              		@ frame_needed = 0, uses_anonymous_args = 0
 694              	.LVL54:
 695 0000 2DE9F041 		push	{r4, r5, r6, r7, r8, lr}
 696              		.cfi_def_cfa_offset 24
 697              		.cfi_offset 4, -24
 698              		.cfi_offset 5, -20
 699              		.cfi_offset 6, -16
 700              		.cfi_offset 7, -12
 701              		.cfi_offset 8, -8
 702              		.cfi_offset 14, -4
 230:.\herkulex2.c ****     pSize = 0x0A;
 703              		.loc 1 230 0
 704 0004 DFF88480 		ldr	r8, .L43+28
 705 0008 0A23     		movs	r3, #10
 706 000a 88F80030 		strb	r3, [r8]
 231:.\herkulex2.c ****     pID = PIDALL;
 707              		.loc 1 231 0
 708 000e 184F     		ldr	r7, .L43
 709 0010 FE23     		movs	r3, #254
 710 0012 3B70     		strb	r3, [r7]
 232:.\herkulex2.c ****     cmd = RAM_WRITE;
 711              		.loc 1 232 0
 712 0014 174E     		ldr	r6, .L43+4
 713 0016 0321     		movs	r1, #3
 714 0018 3170     		strb	r1, [r6]
 233:.\herkulex2.c ****     data[0] = 0x34;
 715              		.loc 1 233 0
 716 001a 174C     		ldr	r4, .L43+8
 717 001c 3423     		movs	r3, #52
 718 001e 2370     		strb	r3, [r4]
 234:.\herkulex2.c ****     data[1] = 0x01;
 719              		.loc 1 234 0
 720 0020 0123     		movs	r3, #1
 721 0022 6370     		strb	r3, [r4, #1]
 235:.\herkulex2.c ****     data[2] = valueACK;
 722              		.loc 1 235 0
 723 0024 A070     		strb	r0, [r4, #2]
 236:.\herkulex2.c ****     lengthString = 3;
 724              		.loc 1 236 0
 725 0026 154B     		ldr	r3, .L43+12
 726 0028 1970     		strb	r1, [r3]
 237:.\herkulex2.c ****     
 238:.\herkulex2.c ****     ck1 = checksum1( data , lengthString );
ARM GAS  C:\Users\EDTRIC~1\AppData\Local\Temp\ccXQQyjM.s 			page 18


 727              		.loc 1 238 0
 728 002a 2046     		mov	r0, r4
 729              	.LVL55:
 730 002c FFF7FEFF 		bl	checksum1
 731              	.LVL56:
 732 0030 0546     		mov	r5, r0
 733 0032 134B     		ldr	r3, .L43+16
 734 0034 1870     		strb	r0, [r3]
 239:.\herkulex2.c ****     ck2 = checksum2( ck1 );
 735              		.loc 1 239 0
 736 0036 FFF7FEFF 		bl	checksum2
 737              	.LVL57:
 738 003a 124B     		ldr	r3, .L43+20
 739 003c 1870     		strb	r0, [r3]
 240:.\herkulex2.c ****     
 241:.\herkulex2.c ****     dataEx[0] = HEADER;
 740              		.loc 1 241 0
 741 003e 124B     		ldr	r3, .L43+24
 742 0040 FF22     		movs	r2, #255
 743 0042 1A70     		strb	r2, [r3]
 242:.\herkulex2.c ****     dataEx[1] = HEADER;
 744              		.loc 1 242 0
 745 0044 5A70     		strb	r2, [r3, #1]
 243:.\herkulex2.c ****     dataEx[2] = pSize;
 746              		.loc 1 243 0
 747 0046 98F80010 		ldrb	r1, [r8]	@ zero_extendqisi2
 748 004a 9970     		strb	r1, [r3, #2]
 244:.\herkulex2.c ****     dataEx[3] = pID;
 749              		.loc 1 244 0
 750 004c 3A78     		ldrb	r2, [r7]	@ zero_extendqisi2
 751 004e DA70     		strb	r2, [r3, #3]
 245:.\herkulex2.c ****     dataEx[4] = cmd;
 752              		.loc 1 245 0
 753 0050 3278     		ldrb	r2, [r6]	@ zero_extendqisi2
 754 0052 1A71     		strb	r2, [r3, #4]
 246:.\herkulex2.c ****     dataEx[5] = ck1;
 755              		.loc 1 246 0
 756 0054 5D71     		strb	r5, [r3, #5]
 247:.\herkulex2.c ****     dataEx[6] = ck2;
 757              		.loc 1 247 0
 758 0056 9871     		strb	r0, [r3, #6]
 248:.\herkulex2.c ****     dataEx[7] = data[0];
 759              		.loc 1 248 0
 760 0058 2278     		ldrb	r2, [r4]	@ zero_extendqisi2
 761 005a DA71     		strb	r2, [r3, #7]
 249:.\herkulex2.c ****     dataEx[8] = data[1];
 762              		.loc 1 249 0
 763 005c 6278     		ldrb	r2, [r4, #1]	@ zero_extendqisi2
 764 005e 1A72     		strb	r2, [r3, #8]
 250:.\herkulex2.c ****     dataEx[9] = data[2];
 765              		.loc 1 250 0
 766 0060 A278     		ldrb	r2, [r4, #2]	@ zero_extendqisi2
 767 0062 5A72     		strb	r2, [r3, #9]
 251:.\herkulex2.c ****     
 252:.\herkulex2.c ****     sendData( dataEx , pSize );    
 768              		.loc 1 252 0
 769 0064 1846     		mov	r0, r3
ARM GAS  C:\Users\EDTRIC~1\AppData\Local\Temp\ccXQQyjM.s 			page 19


 770 0066 FFF7FEFF 		bl	sendData
 771              	.LVL58:
 772 006a BDE8F081 		pop	{r4, r5, r6, r7, r8, pc}
 773              	.L44:
 774 006e 00BF     		.align	2
 775              	.L43:
 776 0070 00000000 		.word	pID
 777 0074 00000000 		.word	cmd
 778 0078 00000000 		.word	data
 779 007c 00000000 		.word	lengthString
 780 0080 00000000 		.word	ck1
 781 0084 00000000 		.word	ck2
 782 0088 00000000 		.word	dataEx
 783 008c 00000000 		.word	pSize
 784              		.cfi_endproc
 785              	.LFE73:
 786              		.size	Servo_ACK, .-Servo_ACK
 787              		.section	.text.Servo_model,"ax",%progbits
 788              		.align	2
 789              		.global	Servo_model
 790              		.thumb
 791              		.thumb_func
 792              		.type	Servo_model, %function
 793              	Servo_model:
 794              	.LFB74:
 253:.\herkulex2.c **** }
 254:.\herkulex2.c **** 
 255:.\herkulex2.c **** uint8 Servo_model( void )
 256:.\herkulex2.c **** {
 795              		.loc 1 256 0
 796              		.cfi_startproc
 797              		@ args = 0, pretend = 0, frame = 8
 798              		@ frame_needed = 0, uses_anonymous_args = 0
 799 0000 2DE9F04F 		push	{r4, r5, r6, r7, r8, r9, r10, fp, lr}
 800              		.cfi_def_cfa_offset 36
 801              		.cfi_offset 4, -36
 802              		.cfi_offset 5, -32
 803              		.cfi_offset 6, -28
 804              		.cfi_offset 7, -24
 805              		.cfi_offset 8, -20
 806              		.cfi_offset 9, -16
 807              		.cfi_offset 10, -12
 808              		.cfi_offset 11, -8
 809              		.cfi_offset 14, -4
 810 0004 83B0     		sub	sp, sp, #12
 811              		.cfi_def_cfa_offset 48
 257:.\herkulex2.c ****     pSize = 0x09;
 812              		.loc 1 257 0
 813 0006 DFF8D890 		ldr	r9, .L50+16
 814 000a 0923     		movs	r3, #9
 815 000c 89F80030 		strb	r3, [r9]
 258:.\herkulex2.c ****     pID = PIDALL;
 816              		.loc 1 258 0
 817 0010 DFF8D080 		ldr	r8, .L50+20
 818 0014 FE23     		movs	r3, #254
 819 0016 88F80030 		strb	r3, [r8]
 259:.\herkulex2.c ****     cmd = EEP_READ;
ARM GAS  C:\Users\EDTRIC~1\AppData\Local\Temp\ccXQQyjM.s 			page 20


 820              		.loc 1 259 0
 821 001a 2D4F     		ldr	r7, .L50
 822 001c 0221     		movs	r1, #2
 823 001e 3970     		strb	r1, [r7]
 260:.\herkulex2.c ****     data[0] = 0x00;
 824              		.loc 1 260 0
 825 0020 2C4D     		ldr	r5, .L50+4
 826 0022 0023     		movs	r3, #0
 827 0024 2B70     		strb	r3, [r5]
 261:.\herkulex2.c ****     data[1] = 0x01;
 828              		.loc 1 261 0
 829 0026 0126     		movs	r6, #1
 830 0028 6E70     		strb	r6, [r5, #1]
 262:.\herkulex2.c ****     lengthString = 2;
 831              		.loc 1 262 0
 832 002a DFF8BCB0 		ldr	fp, .L50+24
 833 002e 8BF80010 		strb	r1, [fp]
 263:.\herkulex2.c ****     
 264:.\herkulex2.c ****     ck1 = checksum1( data , lengthString );
 834              		.loc 1 264 0
 835 0032 2846     		mov	r0, r5
 836 0034 FFF7FEFF 		bl	checksum1
 837              	.LVL59:
 838 0038 DFF8B0A0 		ldr	r10, .L50+28
 839 003c 0190     		str	r0, [sp, #4]
 840 003e 8AF80000 		strb	r0, [r10]
 265:.\herkulex2.c ****     ck2 = checksum2( ck1 );
 841              		.loc 1 265 0
 842 0042 FFF7FEFF 		bl	checksum2
 843              	.LVL60:
 844 0046 244B     		ldr	r3, .L50+8
 845 0048 1870     		strb	r0, [r3]
 266:.\herkulex2.c ****     
 267:.\herkulex2.c ****     dataEx[0] = HEADER;
 846              		.loc 1 267 0
 847 004a 244C     		ldr	r4, .L50+12
 848 004c FF23     		movs	r3, #255
 849 004e 2370     		strb	r3, [r4]
 268:.\herkulex2.c ****     dataEx[1] = HEADER;
 850              		.loc 1 268 0
 851 0050 6370     		strb	r3, [r4, #1]
 269:.\herkulex2.c ****     dataEx[2] = pSize;
 852              		.loc 1 269 0
 853 0052 99F80010 		ldrb	r1, [r9]	@ zero_extendqisi2
 854 0056 A170     		strb	r1, [r4, #2]
 270:.\herkulex2.c ****     dataEx[3] = pID;
 855              		.loc 1 270 0
 856 0058 98F80030 		ldrb	r3, [r8]	@ zero_extendqisi2
 857 005c E370     		strb	r3, [r4, #3]
 271:.\herkulex2.c ****     dataEx[4] = cmd;
 858              		.loc 1 271 0
 859 005e 3B78     		ldrb	r3, [r7]	@ zero_extendqisi2
 860 0060 2371     		strb	r3, [r4, #4]
 272:.\herkulex2.c ****     dataEx[5] = ck1;
 861              		.loc 1 272 0
 862 0062 9DF80430 		ldrb	r3, [sp, #4]	@ zero_extendqisi2
 863 0066 6371     		strb	r3, [r4, #5]
ARM GAS  C:\Users\EDTRIC~1\AppData\Local\Temp\ccXQQyjM.s 			page 21


 273:.\herkulex2.c ****     dataEx[6] = ck2;
 864              		.loc 1 273 0
 865 0068 A071     		strb	r0, [r4, #6]
 274:.\herkulex2.c ****     dataEx[7] = data[0];
 866              		.loc 1 274 0
 867 006a 2B78     		ldrb	r3, [r5]	@ zero_extendqisi2
 868 006c E371     		strb	r3, [r4, #7]
 275:.\herkulex2.c ****     dataEx[8] = data[1];
 869              		.loc 1 275 0
 870 006e 6B78     		ldrb	r3, [r5, #1]	@ zero_extendqisi2
 871 0070 2372     		strb	r3, [r4, #8]
 276:.\herkulex2.c ****     
 277:.\herkulex2.c ****     sendData( dataEx , pSize );
 872              		.loc 1 277 0
 873 0072 2046     		mov	r0, r4
 874 0074 FFF7FEFF 		bl	sendData
 875              	.LVL61:
 278:.\herkulex2.c ****     CyDelay(5);
 876              		.loc 1 278 0
 877 0078 0520     		movs	r0, #5
 878 007a FFF7FEFF 		bl	CyDelay
 879              	.LVL62:
 279:.\herkulex2.c ****     readData(9);
 880              		.loc 1 279 0
 881 007e 0920     		movs	r0, #9
 882 0080 FFF7FEFF 		bl	readData
 883              	.LVL63:
 280:.\herkulex2.c ****     
 281:.\herkulex2.c ****     pSize = dataEx[2];
 884              		.loc 1 281 0
 885 0084 A378     		ldrb	r3, [r4, #2]	@ zero_extendqisi2
 886 0086 89F80030 		strb	r3, [r9]
 282:.\herkulex2.c ****     pID = dataEx[3];
 887              		.loc 1 282 0
 888 008a E378     		ldrb	r3, [r4, #3]	@ zero_extendqisi2
 889 008c 88F80030 		strb	r3, [r8]
 283:.\herkulex2.c ****     cmd = dataEx[4];
 890              		.loc 1 283 0
 891 0090 2379     		ldrb	r3, [r4, #4]	@ zero_extendqisi2
 892 0092 3B70     		strb	r3, [r7]
 284:.\herkulex2.c ****     data[0] = data[7];
 893              		.loc 1 284 0
 894 0094 EB79     		ldrb	r3, [r5, #7]	@ zero_extendqisi2
 895 0096 2B70     		strb	r3, [r5]
 285:.\herkulex2.c ****     lengthString = 1;
 896              		.loc 1 285 0
 897 0098 8BF80060 		strb	r6, [fp]
 286:.\herkulex2.c ****     
 287:.\herkulex2.c ****     ck1 = checksum1( data , lengthString );
 898              		.loc 1 287 0
 899 009c 2846     		mov	r0, r5
 900 009e 3146     		mov	r1, r6
 901 00a0 FFF7FEFF 		bl	checksum1
 902              	.LVL64:
 903 00a4 0546     		mov	r5, r0
 904 00a6 8AF80000 		strb	r0, [r10]
 288:.\herkulex2.c ****     ck2 = checksum2( ck1 );
ARM GAS  C:\Users\EDTRIC~1\AppData\Local\Temp\ccXQQyjM.s 			page 22


 905              		.loc 1 288 0
 906 00aa FFF7FEFF 		bl	checksum2
 907              	.LVL65:
 908 00ae 0A4B     		ldr	r3, .L50+8
 909 00b0 1870     		strb	r0, [r3]
 289:.\herkulex2.c ****     
 290:.\herkulex2.c ****     if( ck1 != dataEx[5] ) return -1;
 910              		.loc 1 290 0
 911 00b2 6379     		ldrb	r3, [r4, #5]	@ zero_extendqisi2
 912 00b4 9D42     		cmp	r5, r3
 913 00b6 04D1     		bne	.L47
 291:.\herkulex2.c ****     if( ck2 != dataEx[6] ) return -2;
 914              		.loc 1 291 0
 915 00b8 A379     		ldrb	r3, [r4, #6]	@ zero_extendqisi2
 916 00ba 9842     		cmp	r0, r3
 917 00bc 03D1     		bne	.L48
 292:.\herkulex2.c ****     
 293:.\herkulex2.c ****     return dataEx[7];
 918              		.loc 1 293 0
 919 00be E079     		ldrb	r0, [r4, #7]	@ zero_extendqisi2
 920 00c0 02E0     		b	.L46
 921              	.L47:
 290:.\herkulex2.c ****     if( ck2 != dataEx[6] ) return -2;
 922              		.loc 1 290 0
 923 00c2 FF20     		movs	r0, #255
 924 00c4 00E0     		b	.L46
 925              	.L48:
 291:.\herkulex2.c ****     if( ck2 != dataEx[6] ) return -2;
 926              		.loc 1 291 0
 927 00c6 FE20     		movs	r0, #254
 928              	.L46:
 294:.\herkulex2.c **** }
 929              		.loc 1 294 0
 930 00c8 03B0     		add	sp, sp, #12
 931              		.cfi_def_cfa_offset 36
 932              		@ sp needed
 933 00ca BDE8F08F 		pop	{r4, r5, r6, r7, r8, r9, r10, fp, pc}
 934              	.L51:
 935 00ce 00BF     		.align	2
 936              	.L50:
 937 00d0 00000000 		.word	cmd
 938 00d4 00000000 		.word	data
 939 00d8 00000000 		.word	ck2
 940 00dc 00000000 		.word	dataEx
 941 00e0 00000000 		.word	pSize
 942 00e4 00000000 		.word	pID
 943 00e8 00000000 		.word	lengthString
 944 00ec 00000000 		.word	ck1
 945              		.cfi_endproc
 946              	.LFE74:
 947              		.size	Servo_model, .-Servo_model
 948              		.section	.text.Servo_setID,"ax",%progbits
 949              		.align	2
 950              		.global	Servo_setID
 951              		.thumb
 952              		.thumb_func
 953              		.type	Servo_setID, %function
ARM GAS  C:\Users\EDTRIC~1\AppData\Local\Temp\ccXQQyjM.s 			page 23


 954              	Servo_setID:
 955              	.LFB75:
 295:.\herkulex2.c **** 
 296:.\herkulex2.c **** void Servo_setID( uint8 oldID , uint8 newID )
 297:.\herkulex2.c **** {
 956              		.loc 1 297 0
 957              		.cfi_startproc
 958              		@ args = 0, pretend = 0, frame = 0
 959              		@ frame_needed = 0, uses_anonymous_args = 0
 960              	.LVL66:
 961 0000 2DE9F041 		push	{r4, r5, r6, r7, r8, lr}
 962              		.cfi_def_cfa_offset 24
 963              		.cfi_offset 4, -24
 964              		.cfi_offset 5, -20
 965              		.cfi_offset 6, -16
 966              		.cfi_offset 7, -12
 967              		.cfi_offset 8, -8
 968              		.cfi_offset 14, -4
 298:.\herkulex2.c ****     pSize = 0x0A;
 969              		.loc 1 298 0
 970 0004 DFF88080 		ldr	r8, .L54+28
 971 0008 0A23     		movs	r3, #10
 972 000a 88F80030 		strb	r3, [r8]
 299:.\herkulex2.c ****     pID = oldID;
 973              		.loc 1 299 0
 974 000e 174F     		ldr	r7, .L54
 975 0010 3870     		strb	r0, [r7]
 300:.\herkulex2.c ****     cmd = EEP_WRITE;
 976              		.loc 1 300 0
 977 0012 174E     		ldr	r6, .L54+4
 978 0014 0123     		movs	r3, #1
 979 0016 3370     		strb	r3, [r6]
 301:.\herkulex2.c ****     data[0] = 0x06;
 980              		.loc 1 301 0
 981 0018 164C     		ldr	r4, .L54+8
 982 001a 0622     		movs	r2, #6
 983 001c 2270     		strb	r2, [r4]
 302:.\herkulex2.c ****     data[1] = 0x01;
 984              		.loc 1 302 0
 985 001e 6370     		strb	r3, [r4, #1]
 303:.\herkulex2.c ****     data[2] = newID;
 986              		.loc 1 303 0
 987 0020 A170     		strb	r1, [r4, #2]
 304:.\herkulex2.c ****     lengthString = 3;
 988              		.loc 1 304 0
 989 0022 0321     		movs	r1, #3
 990              	.LVL67:
 991 0024 144B     		ldr	r3, .L54+12
 992 0026 1970     		strb	r1, [r3]
 305:.\herkulex2.c ****     
 306:.\herkulex2.c ****     ck1 = checksum1( data , lengthString );
 993              		.loc 1 306 0
 994 0028 2046     		mov	r0, r4
 995              	.LVL68:
 996 002a FFF7FEFF 		bl	checksum1
 997              	.LVL69:
 998 002e 0546     		mov	r5, r0
ARM GAS  C:\Users\EDTRIC~1\AppData\Local\Temp\ccXQQyjM.s 			page 24


 999 0030 124B     		ldr	r3, .L54+16
 1000 0032 1870     		strb	r0, [r3]
 307:.\herkulex2.c ****     ck2 = checksum2( ck1 );
 1001              		.loc 1 307 0
 1002 0034 FFF7FEFF 		bl	checksum2
 1003              	.LVL70:
 1004 0038 114B     		ldr	r3, .L54+20
 1005 003a 1870     		strb	r0, [r3]
 308:.\herkulex2.c ****     
 309:.\herkulex2.c ****     dataEx[0] = HEADER;
 1006              		.loc 1 309 0
 1007 003c 114B     		ldr	r3, .L54+24
 1008 003e FF22     		movs	r2, #255
 1009 0040 1A70     		strb	r2, [r3]
 310:.\herkulex2.c ****     dataEx[1] = HEADER;
 1010              		.loc 1 310 0
 1011 0042 5A70     		strb	r2, [r3, #1]
 311:.\herkulex2.c ****     dataEx[2] = pSize;
 1012              		.loc 1 311 0
 1013 0044 98F80010 		ldrb	r1, [r8]	@ zero_extendqisi2
 1014 0048 9970     		strb	r1, [r3, #2]
 312:.\herkulex2.c ****     dataEx[3] = pID;
 1015              		.loc 1 312 0
 1016 004a 3A78     		ldrb	r2, [r7]	@ zero_extendqisi2
 1017 004c DA70     		strb	r2, [r3, #3]
 313:.\herkulex2.c ****     dataEx[4] = cmd;
 1018              		.loc 1 313 0
 1019 004e 3278     		ldrb	r2, [r6]	@ zero_extendqisi2
 1020 0050 1A71     		strb	r2, [r3, #4]
 314:.\herkulex2.c ****     dataEx[5] = ck1;
 1021              		.loc 1 314 0
 1022 0052 5D71     		strb	r5, [r3, #5]
 315:.\herkulex2.c ****     dataEx[6] = ck2;
 1023              		.loc 1 315 0
 1024 0054 9871     		strb	r0, [r3, #6]
 316:.\herkulex2.c ****     dataEx[7] = data[0];
 1025              		.loc 1 316 0
 1026 0056 2278     		ldrb	r2, [r4]	@ zero_extendqisi2
 1027 0058 DA71     		strb	r2, [r3, #7]
 317:.\herkulex2.c ****     dataEx[8] = data[1];
 1028              		.loc 1 317 0
 1029 005a 6278     		ldrb	r2, [r4, #1]	@ zero_extendqisi2
 1030 005c 1A72     		strb	r2, [r3, #8]
 318:.\herkulex2.c ****     dataEx[9] = data[2];
 1031              		.loc 1 318 0
 1032 005e A278     		ldrb	r2, [r4, #2]	@ zero_extendqisi2
 1033 0060 5A72     		strb	r2, [r3, #9]
 319:.\herkulex2.c ****     
 320:.\herkulex2.c ****     sendData( dataEx , pSize );
 1034              		.loc 1 320 0
 1035 0062 1846     		mov	r0, r3
 1036 0064 FFF7FEFF 		bl	sendData
 1037              	.LVL71:
 1038 0068 BDE8F081 		pop	{r4, r5, r6, r7, r8, pc}
 1039              	.L55:
 1040              		.align	2
 1041              	.L54:
ARM GAS  C:\Users\EDTRIC~1\AppData\Local\Temp\ccXQQyjM.s 			page 25


 1042 006c 00000000 		.word	pID
 1043 0070 00000000 		.word	cmd
 1044 0074 00000000 		.word	data
 1045 0078 00000000 		.word	lengthString
 1046 007c 00000000 		.word	ck1
 1047 0080 00000000 		.word	ck2
 1048 0084 00000000 		.word	dataEx
 1049 0088 00000000 		.word	pSize
 1050              		.cfi_endproc
 1051              	.LFE75:
 1052              		.size	Servo_setID, .-Servo_setID
 1053              		.section	.text.Servo_resetID,"ax",%progbits
 1054              		.align	2
 1055              		.global	Servo_resetID
 1056              		.thumb
 1057              		.thumb_func
 1058              		.type	Servo_resetID, %function
 1059              	Servo_resetID:
 1060              	.LFB76:
 321:.\herkulex2.c **** }
 322:.\herkulex2.c **** 
 323:.\herkulex2.c **** void Servo_resetID( void )
 324:.\herkulex2.c **** {
 1061              		.loc 1 324 0
 1062              		.cfi_startproc
 1063              		@ args = 0, pretend = 0, frame = 0
 1064              		@ frame_needed = 0, uses_anonymous_args = 0
 1065 0000 2DE9F041 		push	{r4, r5, r6, r7, r8, lr}
 1066              		.cfi_def_cfa_offset 24
 1067              		.cfi_offset 4, -24
 1068              		.cfi_offset 5, -20
 1069              		.cfi_offset 6, -16
 1070              		.cfi_offset 7, -12
 1071              		.cfi_offset 8, -8
 1072              		.cfi_offset 14, -4
 325:.\herkulex2.c ****     uint8 i;
 326:.\herkulex2.c ****     pSize = 0x09;
 1073              		.loc 1 326 0
 1074 0004 0922     		movs	r2, #9
 1075 0006 234B     		ldr	r3, .L60
 1076 0008 1A70     		strb	r2, [r3]
 327:.\herkulex2.c ****     cmd = EEP_READ;
 1077              		.loc 1 327 0
 1078 000a 0223     		movs	r3, #2
 1079 000c 224A     		ldr	r2, .L60+4
 1080 000e 1370     		strb	r3, [r2]
 328:.\herkulex2.c ****     data[0] = 0x06;
 1081              		.loc 1 328 0
 1082 0010 224A     		ldr	r2, .L60+8
 1083 0012 0621     		movs	r1, #6
 1084 0014 1170     		strb	r1, [r2]
 329:.\herkulex2.c ****     data[1] = 0x01;
 1085              		.loc 1 329 0
 1086 0016 0125     		movs	r5, #1
 1087 0018 5570     		strb	r5, [r2, #1]
 330:.\herkulex2.c ****     
 331:.\herkulex2.c ****     lengthString = 2u;
ARM GAS  C:\Users\EDTRIC~1\AppData\Local\Temp\ccXQQyjM.s 			page 26


 1088              		.loc 1 331 0
 1089 001a 214A     		ldr	r2, .L60+12
 1090 001c 1370     		strb	r3, [r2]
 1091              	.LVL72:
 332:.\herkulex2.c ****     
 333:.\herkulex2.c ****     for ( i = 1 ; i <= 253 ; i++ )
 1092              		.loc 1 333 0
 1093 001e 35E0     		b	.L57
 1094              	.LVL73:
 1095              	.L58:
 334:.\herkulex2.c ****     {
 335:.\herkulex2.c ****         pID = i;
 1096              		.loc 1 335 0 discriminator 3
 1097 0020 DFF88C80 		ldr	r8, .L60+28
 1098 0024 88F80050 		strb	r5, [r8]
 336:.\herkulex2.c ****         ck1 = checksum1( data , lengthString );
 1099              		.loc 1 336 0 discriminator 3
 1100 0028 1C4E     		ldr	r6, .L60+8
 1101 002a 3046     		mov	r0, r6
 1102 002c 1C4B     		ldr	r3, .L60+12
 1103 002e 1978     		ldrb	r1, [r3]	@ zero_extendqisi2
 1104 0030 FFF7FEFF 		bl	checksum1
 1105              	.LVL74:
 1106 0034 0746     		mov	r7, r0
 1107 0036 1B4B     		ldr	r3, .L60+16
 1108 0038 1870     		strb	r0, [r3]
 337:.\herkulex2.c ****         ck2 = checksum2( ck1 );
 1109              		.loc 1 337 0 discriminator 3
 1110 003a FFF7FEFF 		bl	checksum2
 1111              	.LVL75:
 1112 003e 1A4B     		ldr	r3, .L60+20
 1113 0040 1870     		strb	r0, [r3]
 338:.\herkulex2.c ****         
 339:.\herkulex2.c ****         dataEx[0] = HEADER;
 1114              		.loc 1 339 0 discriminator 3
 1115 0042 1A4C     		ldr	r4, .L60+24
 1116 0044 FF23     		movs	r3, #255
 1117 0046 2370     		strb	r3, [r4]
 340:.\herkulex2.c ****         dataEx[1] = HEADER;
 1118              		.loc 1 340 0 discriminator 3
 1119 0048 6370     		strb	r3, [r4, #1]
 341:.\herkulex2.c ****         dataEx[2] = pSize;
 1120              		.loc 1 341 0 discriminator 3
 1121 004a 124B     		ldr	r3, .L60
 1122 004c 1978     		ldrb	r1, [r3]	@ zero_extendqisi2
 1123 004e A170     		strb	r1, [r4, #2]
 342:.\herkulex2.c ****         dataEx[3] = pID;
 1124              		.loc 1 342 0 discriminator 3
 1125 0050 98F80030 		ldrb	r3, [r8]	@ zero_extendqisi2
 1126 0054 E370     		strb	r3, [r4, #3]
 343:.\herkulex2.c ****         dataEx[4] = cmd;
 1127              		.loc 1 343 0 discriminator 3
 1128 0056 104B     		ldr	r3, .L60+4
 1129 0058 1B78     		ldrb	r3, [r3]	@ zero_extendqisi2
 1130 005a 2371     		strb	r3, [r4, #4]
 344:.\herkulex2.c ****         dataEx[5] = ck1;
 1131              		.loc 1 344 0 discriminator 3
ARM GAS  C:\Users\EDTRIC~1\AppData\Local\Temp\ccXQQyjM.s 			page 27


 1132 005c 6771     		strb	r7, [r4, #5]
 345:.\herkulex2.c ****         dataEx[6] = ck2;
 1133              		.loc 1 345 0 discriminator 3
 1134 005e A071     		strb	r0, [r4, #6]
 346:.\herkulex2.c ****         dataEx[7] = data[0];
 1135              		.loc 1 346 0 discriminator 3
 1136 0060 3378     		ldrb	r3, [r6]	@ zero_extendqisi2
 1137 0062 E371     		strb	r3, [r4, #7]
 347:.\herkulex2.c ****         dataEx[8] = data[1];
 1138              		.loc 1 347 0 discriminator 3
 1139 0064 7378     		ldrb	r3, [r6, #1]	@ zero_extendqisi2
 1140 0066 2372     		strb	r3, [r4, #8]
 348:.\herkulex2.c ****         
 349:.\herkulex2.c ****         sendData( dataEx , pSize );
 1141              		.loc 1 349 0 discriminator 3
 1142 0068 2046     		mov	r0, r4
 1143 006a FFF7FEFF 		bl	sendData
 1144              	.LVL76:
 350:.\herkulex2.c ****         CyDelay(5);
 1145              		.loc 1 350 0 discriminator 3
 1146 006e 0520     		movs	r0, #5
 1147 0070 FFF7FEFF 		bl	CyDelay
 1148              	.LVL77:
 351:.\herkulex2.c ****         readData( 15 );
 1149              		.loc 1 351 0 discriminator 3
 1150 0074 0F20     		movs	r0, #15
 1151 0076 FFF7FEFF 		bl	readData
 1152              	.LVL78:
 352:.\herkulex2.c ****         CyDelay(10);
 1153              		.loc 1 352 0 discriminator 3
 1154 007a 0A20     		movs	r0, #10
 1155 007c FFF7FEFF 		bl	CyDelay
 1156              	.LVL79:
 353:.\herkulex2.c ****         Servo_setID( dataEx[3] , 253 );        
 1157              		.loc 1 353 0 discriminator 3
 1158 0080 E078     		ldrb	r0, [r4, #3]	@ zero_extendqisi2
 1159 0082 FD21     		movs	r1, #253
 1160 0084 FFF7FEFF 		bl	Servo_setID
 1161              	.LVL80:
 333:.\herkulex2.c ****     {
 1162              		.loc 1 333 0 discriminator 3
 1163 0088 0135     		adds	r5, r5, #1
 1164              	.LVL81:
 1165 008a EDB2     		uxtb	r5, r5
 1166              	.LVL82:
 1167              	.L57:
 333:.\herkulex2.c ****     {
 1168              		.loc 1 333 0 is_stmt 0 discriminator 1
 1169 008c FD2D     		cmp	r5, #253
 1170 008e C7D9     		bls	.L58
 354:.\herkulex2.c ****     }
 355:.\herkulex2.c **** }
 1171              		.loc 1 355 0 is_stmt 1
 1172 0090 BDE8F081 		pop	{r4, r5, r6, r7, r8, pc}
 1173              	.LVL83:
 1174              	.L61:
 1175              		.align	2
ARM GAS  C:\Users\EDTRIC~1\AppData\Local\Temp\ccXQQyjM.s 			page 28


 1176              	.L60:
 1177 0094 00000000 		.word	pSize
 1178 0098 00000000 		.word	cmd
 1179 009c 00000000 		.word	data
 1180 00a0 00000000 		.word	lengthString
 1181 00a4 00000000 		.word	ck1
 1182 00a8 00000000 		.word	ck2
 1183 00ac 00000000 		.word	dataEx
 1184 00b0 00000000 		.word	pID
 1185              		.cfi_endproc
 1186              	.LFE76:
 1187              		.size	Servo_resetID, .-Servo_resetID
 1188              		.section	.text.Servo_clearError,"ax",%progbits
 1189              		.align	2
 1190              		.global	Servo_clearError
 1191              		.thumb
 1192              		.thumb_func
 1193              		.type	Servo_clearError, %function
 1194              	Servo_clearError:
 1195              	.LFB77:
 356:.\herkulex2.c **** 
 357:.\herkulex2.c **** void Servo_clearError( uint8 servoID )
 358:.\herkulex2.c **** {
 1196              		.loc 1 358 0
 1197              		.cfi_startproc
 1198              		@ args = 0, pretend = 0, frame = 0
 1199              		@ frame_needed = 0, uses_anonymous_args = 0
 1200              	.LVL84:
 1201 0000 2DE9F041 		push	{r4, r5, r6, r7, r8, lr}
 1202              		.cfi_def_cfa_offset 24
 1203              		.cfi_offset 4, -24
 1204              		.cfi_offset 5, -20
 1205              		.cfi_offset 6, -16
 1206              		.cfi_offset 7, -12
 1207              		.cfi_offset 8, -8
 1208              		.cfi_offset 14, -4
 359:.\herkulex2.c ****     pSize = 0x0B;
 1209              		.loc 1 359 0
 1210 0004 DFF88C80 		ldr	r8, .L64+28
 1211 0008 0B23     		movs	r3, #11
 1212 000a 88F80030 		strb	r3, [r8]
 360:.\herkulex2.c ****     pID = servoID;
 1213              		.loc 1 360 0
 1214 000e 1A4F     		ldr	r7, .L64
 1215 0010 3870     		strb	r0, [r7]
 361:.\herkulex2.c ****     cmd = RAM_WRITE;
 1216              		.loc 1 361 0
 1217 0012 1A4E     		ldr	r6, .L64+4
 1218 0014 0323     		movs	r3, #3
 1219 0016 3370     		strb	r3, [r6]
 362:.\herkulex2.c ****     data[0] = 0x30;
 1220              		.loc 1 362 0
 1221 0018 194C     		ldr	r4, .L64+8
 1222 001a 3023     		movs	r3, #48
 1223 001c 2370     		strb	r3, [r4]
 363:.\herkulex2.c ****     data[1] = 0x02;
 1224              		.loc 1 363 0
ARM GAS  C:\Users\EDTRIC~1\AppData\Local\Temp\ccXQQyjM.s 			page 29


 1225 001e 0223     		movs	r3, #2
 1226 0020 6370     		strb	r3, [r4, #1]
 364:.\herkulex2.c ****     data[2] = 0x00;
 1227              		.loc 1 364 0
 1228 0022 0023     		movs	r3, #0
 1229 0024 A370     		strb	r3, [r4, #2]
 365:.\herkulex2.c ****     data[3] = 0x00;
 1230              		.loc 1 365 0
 1231 0026 E370     		strb	r3, [r4, #3]
 366:.\herkulex2.c ****     lengthString = 4;
 1232              		.loc 1 366 0
 1233 0028 0421     		movs	r1, #4
 1234 002a 164B     		ldr	r3, .L64+12
 1235 002c 1970     		strb	r1, [r3]
 367:.\herkulex2.c ****     
 368:.\herkulex2.c ****     ck1 = checksum1( data , lengthString );
 1236              		.loc 1 368 0
 1237 002e 2046     		mov	r0, r4
 1238              	.LVL85:
 1239 0030 FFF7FEFF 		bl	checksum1
 1240              	.LVL86:
 1241 0034 0546     		mov	r5, r0
 1242 0036 144B     		ldr	r3, .L64+16
 1243 0038 1870     		strb	r0, [r3]
 369:.\herkulex2.c ****     ck2 = checksum2( ck1 );
 1244              		.loc 1 369 0
 1245 003a FFF7FEFF 		bl	checksum2
 1246              	.LVL87:
 1247 003e 134B     		ldr	r3, .L64+20
 1248 0040 1870     		strb	r0, [r3]
 370:.\herkulex2.c ****     
 371:.\herkulex2.c ****     dataEx[0] = HEADER;
 1249              		.loc 1 371 0
 1250 0042 134B     		ldr	r3, .L64+24
 1251 0044 FF22     		movs	r2, #255
 1252 0046 1A70     		strb	r2, [r3]
 372:.\herkulex2.c ****     dataEx[1] = HEADER;
 1253              		.loc 1 372 0
 1254 0048 5A70     		strb	r2, [r3, #1]
 373:.\herkulex2.c ****     dataEx[2] = pSize;
 1255              		.loc 1 373 0
 1256 004a 98F80010 		ldrb	r1, [r8]	@ zero_extendqisi2
 1257 004e 9970     		strb	r1, [r3, #2]
 374:.\herkulex2.c ****     dataEx[3] = pID;
 1258              		.loc 1 374 0
 1259 0050 3A78     		ldrb	r2, [r7]	@ zero_extendqisi2
 1260 0052 DA70     		strb	r2, [r3, #3]
 375:.\herkulex2.c ****     dataEx[4] = cmd;
 1261              		.loc 1 375 0
 1262 0054 3278     		ldrb	r2, [r6]	@ zero_extendqisi2
 1263 0056 1A71     		strb	r2, [r3, #4]
 376:.\herkulex2.c ****     dataEx[5] = ck1;
 1264              		.loc 1 376 0
 1265 0058 5D71     		strb	r5, [r3, #5]
 377:.\herkulex2.c ****     dataEx[6] = ck2;
 1266              		.loc 1 377 0
 1267 005a 9871     		strb	r0, [r3, #6]
ARM GAS  C:\Users\EDTRIC~1\AppData\Local\Temp\ccXQQyjM.s 			page 30


 378:.\herkulex2.c ****     dataEx[7] = data[0];
 1268              		.loc 1 378 0
 1269 005c 2278     		ldrb	r2, [r4]	@ zero_extendqisi2
 1270 005e DA71     		strb	r2, [r3, #7]
 379:.\herkulex2.c ****     dataEx[8] = data[1];
 1271              		.loc 1 379 0
 1272 0060 6278     		ldrb	r2, [r4, #1]	@ zero_extendqisi2
 1273 0062 1A72     		strb	r2, [r3, #8]
 380:.\herkulex2.c ****     dataEx[9] = data[2];
 1274              		.loc 1 380 0
 1275 0064 A278     		ldrb	r2, [r4, #2]	@ zero_extendqisi2
 1276 0066 5A72     		strb	r2, [r3, #9]
 381:.\herkulex2.c ****     dataEx[10] = data[3];
 1277              		.loc 1 381 0
 1278 0068 E278     		ldrb	r2, [r4, #3]	@ zero_extendqisi2
 1279 006a 9A72     		strb	r2, [r3, #10]
 382:.\herkulex2.c ****     
 383:.\herkulex2.c ****     sendData( dataEx , pSize );
 1280              		.loc 1 383 0
 1281 006c 1846     		mov	r0, r3
 1282 006e FFF7FEFF 		bl	sendData
 1283              	.LVL88:
 1284 0072 BDE8F081 		pop	{r4, r5, r6, r7, r8, pc}
 1285              	.L65:
 1286 0076 00BF     		.align	2
 1287              	.L64:
 1288 0078 00000000 		.word	pID
 1289 007c 00000000 		.word	cmd
 1290 0080 00000000 		.word	data
 1291 0084 00000000 		.word	lengthString
 1292 0088 00000000 		.word	ck1
 1293 008c 00000000 		.word	ck2
 1294 0090 00000000 		.word	dataEx
 1295 0094 00000000 		.word	pSize
 1296              		.cfi_endproc
 1297              	.LFE77:
 1298              		.size	Servo_clearError, .-Servo_clearError
 1299              		.section	.text.Servo_moveAll,"ax",%progbits
 1300              		.align	2
 1301              		.global	Servo_moveAll
 1302              		.thumb
 1303              		.thumb_func
 1304              		.type	Servo_moveAll, %function
 1305              	Servo_moveAll:
 1306              	.LFB78:
 384:.\herkulex2.c **** }
 385:.\herkulex2.c **** 
 386:.\herkulex2.c **** void Servo_moveAll( uint8 servoID , int goal , uint8 LED )
 387:.\herkulex2.c **** {
 1307              		.loc 1 387 0
 1308              		.cfi_startproc
 1309              		@ args = 0, pretend = 0, frame = 0
 1310              		@ frame_needed = 0, uses_anonymous_args = 0
 1311              	.LVL89:
 388:.\herkulex2.c ****     if( goal > 1023 || goal < 0 ) return;
 1312              		.loc 1 388 0
 1313 0000 B1F5806F 		cmp	r1, #1024
ARM GAS  C:\Users\EDTRIC~1\AppData\Local\Temp\ccXQQyjM.s 			page 31


 1314 0004 23D2     		bcs	.L74
 387:.\herkulex2.c ****     if( goal > 1023 || goal < 0 ) return;
 1315              		.loc 1 387 0
 1316 0006 38B5     		push	{r3, r4, r5, lr}
 1317              		.cfi_def_cfa_offset 16
 1318              		.cfi_offset 3, -16
 1319              		.cfi_offset 4, -12
 1320              		.cfi_offset 5, -8
 1321              		.cfi_offset 14, -4
 1322 0008 0346     		mov	r3, r0
 1323              	.LVL90:
 389:.\herkulex2.c ****     
 390:.\herkulex2.c ****     uint8 mode = 0;
 391:.\herkulex2.c ****     uint8 stop = 0;
 392:.\herkulex2.c ****     
 393:.\herkulex2.c ****     int posLSB = goal & 0x00FF;
 1324              		.loc 1 393 0
 1325 000a C8B2     		uxtb	r0, r1
 1326              	.LVL91:
 394:.\herkulex2.c ****     int posMSB = ( goal & 0xFF00 ) >> 8;
 1327              		.loc 1 394 0
 1328 000c C1F30721 		ubfx	r1, r1, #8, #8
 1329              	.LVL92:
 395:.\herkulex2.c ****     
 396:.\herkulex2.c ****     uint8 blue = 0;
 397:.\herkulex2.c ****     uint8 green = 0;
 398:.\herkulex2.c ****     uint8 red = 0;
 399:.\herkulex2.c ****     
 400:.\herkulex2.c ****     switch( LED )
 1330              		.loc 1 400 0
 1331 0010 022A     		cmp	r2, #2
 1332 0012 07D0     		beq	.L69
 1333 0014 042A     		cmp	r2, #4
 1334 0016 09D0     		beq	.L70
 1335 0018 012A     		cmp	r2, #1
 1336 001a 0BD0     		beq	.L72
 398:.\herkulex2.c ****     
 1337              		.loc 1 398 0
 1338 001c 0025     		movs	r5, #0
 397:.\herkulex2.c ****     uint8 red = 0;
 1339              		.loc 1 397 0
 1340 001e 2A46     		mov	r2, r5
 1341              	.LVL93:
 396:.\herkulex2.c ****     uint8 green = 0;
 1342              		.loc 1 396 0
 1343 0020 2C46     		mov	r4, r5
 1344 0022 0AE0     		b	.L71
 1345              	.LVL94:
 1346              	.L69:
 398:.\herkulex2.c ****     
 1347              		.loc 1 398 0
 1348 0024 0025     		movs	r5, #0
 397:.\herkulex2.c ****     uint8 red = 0;
 1349              		.loc 1 397 0
 1350 0026 2A46     		mov	r2, r5
 1351              	.LVL95:
 401:.\herkulex2.c ****     {
ARM GAS  C:\Users\EDTRIC~1\AppData\Local\Temp\ccXQQyjM.s 			page 32


 402:.\herkulex2.c ****         case 1:
 403:.\herkulex2.c ****             green = 1;
 404:.\herkulex2.c ****             break;
 405:.\herkulex2.c ****         case 2:
 406:.\herkulex2.c ****             blue = 1;
 1352              		.loc 1 406 0
 1353 0028 0124     		movs	r4, #1
 407:.\herkulex2.c ****             break;
 1354              		.loc 1 407 0
 1355 002a 06E0     		b	.L71
 1356              	.LVL96:
 1357              	.L70:
 408:.\herkulex2.c ****         case 4:
 409:.\herkulex2.c ****             red = 1;
 1358              		.loc 1 409 0
 1359 002c 0125     		movs	r5, #1
 397:.\herkulex2.c ****     uint8 red = 0;
 1360              		.loc 1 397 0
 1361 002e 0022     		movs	r2, #0
 1362              	.LVL97:
 396:.\herkulex2.c ****     uint8 green = 0;
 1363              		.loc 1 396 0
 1364 0030 1446     		mov	r4, r2
 410:.\herkulex2.c ****             break;
 1365              		.loc 1 410 0
 1366 0032 02E0     		b	.L71
 1367              	.LVL98:
 1368              	.L72:
 398:.\herkulex2.c ****     
 1369              		.loc 1 398 0
 1370 0034 0025     		movs	r5, #0
 403:.\herkulex2.c ****             break;
 1371              		.loc 1 403 0
 1372 0036 0122     		movs	r2, #1
 1373              	.LVL99:
 396:.\herkulex2.c ****     uint8 green = 0;
 1374              		.loc 1 396 0
 1375 0038 2C46     		mov	r4, r5
 1376              	.LVL100:
 1377              	.L71:
 411:.\herkulex2.c ****     }
 412:.\herkulex2.c ****     
 413:.\herkulex2.c ****     int setValue = stop + mode * 2 + green * 4 + blue * 8 + red * 16;
 1378              		.loc 1 413 0
 1379 003a E400     		lsls	r4, r4, #3
 1380              	.LVL101:
 1381 003c 04EB8204 		add	r4, r4, r2, lsl #2
 1382 0040 04EB0512 		add	r2, r4, r5, lsl #4
 1383              	.LVL102:
 414:.\herkulex2.c ****     
 415:.\herkulex2.c ****     addData( posLSB , posMSB , setValue , servoID );
 1384              		.loc 1 415 0
 1385 0044 02F0FC02 		and	r2, r2, #252
 1386              	.LVL103:
 1387 0048 FFF7FEFF 		bl	addData
 1388              	.LVL104:
 1389 004c 38BD     		pop	{r3, r4, r5, pc}
ARM GAS  C:\Users\EDTRIC~1\AppData\Local\Temp\ccXQQyjM.s 			page 33


 1390              	.LVL105:
 1391              	.L74:
 1392              		.cfi_def_cfa_offset 0
 1393              		.cfi_restore 3
 1394              		.cfi_restore 4
 1395              		.cfi_restore 5
 1396              		.cfi_restore 14
 1397 004e 7047     		bx	lr
 1398              		.cfi_endproc
 1399              	.LFE78:
 1400              		.size	Servo_moveAll, .-Servo_moveAll
 1401              		.global	__aeabi_fcmpgt
 1402              		.global	__aeabi_fcmplt
 1403              		.global	__aeabi_f2d
 1404              		.global	__aeabi_ddiv
 1405              		.global	__aeabi_d2iz
 1406              		.section	.text.Servo_moveAllAngle,"ax",%progbits
 1407              		.align	2
 1408              		.global	Servo_moveAllAngle
 1409              		.thumb
 1410              		.thumb_func
 1411              		.type	Servo_moveAllAngle, %function
 1412              	Servo_moveAllAngle:
 1413              	.LFB79:
 416:.\herkulex2.c **** }
 417:.\herkulex2.c **** 
 418:.\herkulex2.c **** void Servo_moveAllAngle( uint8 servoID , float angle , uint8 LED )
 419:.\herkulex2.c **** {
 1414              		.loc 1 419 0
 1415              		.cfi_startproc
 1416              		@ args = 0, pretend = 0, frame = 0
 1417              		@ frame_needed = 0, uses_anonymous_args = 0
 1418              	.LVL106:
 1419 0000 70B5     		push	{r4, r5, r6, lr}
 1420              		.cfi_def_cfa_offset 16
 1421              		.cfi_offset 4, -16
 1422              		.cfi_offset 5, -12
 1423              		.cfi_offset 6, -8
 1424              		.cfi_offset 14, -4
 1425 0002 0646     		mov	r6, r0
 1426 0004 0C46     		mov	r4, r1
 1427 0006 1546     		mov	r5, r2
 420:.\herkulex2.c ****     if( angle > 160.0 || angle < -160.0 ) return;
 1428              		.loc 1 420 0
 1429 0008 0846     		mov	r0, r1
 1430              	.LVL107:
 1431 000a 0F49     		ldr	r1, .L78+8
 1432              	.LVL108:
 1433 000c FFF7FEFF 		bl	__aeabi_fcmpgt
 1434              	.LVL109:
 1435 0010 A0B9     		cbnz	r0, .L75
 1436              		.loc 1 420 0 is_stmt 0 discriminator 1
 1437 0012 2046     		mov	r0, r4
 1438 0014 0D49     		ldr	r1, .L78+12
 1439 0016 FFF7FEFF 		bl	__aeabi_fcmplt
 1440              	.LVL110:
 1441 001a 78B9     		cbnz	r0, .L75
ARM GAS  C:\Users\EDTRIC~1\AppData\Local\Temp\ccXQQyjM.s 			page 34


 421:.\herkulex2.c ****     int position = (int)(angle/0.325) + 512;
 1442              		.loc 1 421 0 is_stmt 1
 1443 001c 2046     		mov	r0, r4
 1444 001e FFF7FEFF 		bl	__aeabi_f2d
 1445              	.LVL111:
 1446 0022 07A3     		adr	r3, .L78
 1447 0024 D3E90023 		ldrd	r2, [r3]
 1448 0028 FFF7FEFF 		bl	__aeabi_ddiv
 1449              	.LVL112:
 1450 002c FFF7FEFF 		bl	__aeabi_d2iz
 1451              	.LVL113:
 1452 0030 00F50071 		add	r1, r0, #512
 1453              	.LVL114:
 422:.\herkulex2.c ****     Servo_moveAll( servoID , position , LED );
 1454              		.loc 1 422 0
 1455 0034 3046     		mov	r0, r6
 1456 0036 2A46     		mov	r2, r5
 1457 0038 FFF7FEFF 		bl	Servo_moveAll
 1458              	.LVL115:
 1459              	.L75:
 1460 003c 70BD     		pop	{r4, r5, r6, pc}
 1461              	.LVL116:
 1462              	.L79:
 1463 003e 00BF     		.align	3
 1464              	.L78:
 1465 0040 CDCCCCCC 		.word	-858993459
 1466 0044 CCCCD43F 		.word	1070910668
 1467 0048 00002043 		.word	1126170624
 1468 004c 000020C3 		.word	-1021313024
 1469              		.cfi_endproc
 1470              	.LFE79:
 1471              		.size	Servo_moveAllAngle, .-Servo_moveAllAngle
 1472              		.section	.text.Servo_moveSpeedAll,"ax",%progbits
 1473              		.align	2
 1474              		.global	Servo_moveSpeedAll
 1475              		.thumb
 1476              		.thumb_func
 1477              		.type	Servo_moveSpeedAll, %function
 1478              	Servo_moveSpeedAll:
 1479              	.LFB80:
 423:.\herkulex2.c **** }
 424:.\herkulex2.c **** 
 425:.\herkulex2.c **** void Servo_moveSpeedAll( uint8 servoID , int goal , uint8 LED )
 426:.\herkulex2.c **** {
 1480              		.loc 1 426 0
 1481              		.cfi_startproc
 1482              		@ args = 0, pretend = 0, frame = 0
 1483              		@ frame_needed = 0, uses_anonymous_args = 0
 1484              	.LVL117:
 1485 0000 38B5     		push	{r3, r4, r5, lr}
 1486              		.cfi_def_cfa_offset 16
 1487              		.cfi_offset 3, -16
 1488              		.cfi_offset 4, -12
 1489              		.cfi_offset 5, -8
 1490              		.cfi_offset 14, -4
 1491 0002 0346     		mov	r3, r0
 427:.\herkulex2.c ****     if( goal > 1023 || goal < -1023 ) return;
ARM GAS  C:\Users\EDTRIC~1\AppData\Local\Temp\ccXQQyjM.s 			page 35


 1492              		.loc 1 427 0
 1493 0004 01F2FF34 		addw	r4, r1, #1023
 1494 0008 40F2FE70 		movw	r0, #2046
 1495              	.LVL118:
 1496 000c 8442     		cmp	r4, r0
 1497 000e 26D8     		bhi	.L80
 1498              	.LVL119:
 428:.\herkulex2.c ****     
 429:.\herkulex2.c ****     uint8 mode = 1;
 430:.\herkulex2.c ****     uint8 stop = 0;
 431:.\herkulex2.c ****     
 432:.\herkulex2.c ****     int goalSpeedSign;
 433:.\herkulex2.c ****     if ( goal < 0 ) 
 1499              		.loc 1 433 0
 1500 0010 0029     		cmp	r1, #0
 1501 0012 02DA     		bge	.L82
 434:.\herkulex2.c ****     {
 435:.\herkulex2.c ****         goalSpeedSign = (-1) * goal;
 1502              		.loc 1 435 0
 1503 0014 4942     		negs	r1, r1
 1504              	.LVL120:
 436:.\herkulex2.c ****         goalSpeedSign |= 0x4000;
 1505              		.loc 1 436 0
 1506 0016 41F48041 		orr	r1, r1, #16384
 1507              	.LVL121:
 1508              	.L82:
 437:.\herkulex2.c ****     }
 438:.\herkulex2.c ****     else 
 439:.\herkulex2.c ****     {
 440:.\herkulex2.c ****         goalSpeedSign = goal;
 441:.\herkulex2.c ****     }
 442:.\herkulex2.c ****     
 443:.\herkulex2.c ****     int speedGoalLSB = goalSpeedSign & 0X00FF;
 1509              		.loc 1 443 0
 1510 001a C8B2     		uxtb	r0, r1
 1511              	.LVL122:
 444:.\herkulex2.c ****     int speedGoalMSB = ( goalSpeedSign & 0xFF00 ) >> 8;
 1512              		.loc 1 444 0
 1513 001c C1F30721 		ubfx	r1, r1, #8, #8
 1514              	.LVL123:
 445:.\herkulex2.c **** 
 446:.\herkulex2.c ****     int blue = 0;
 447:.\herkulex2.c ****     int green = 0;
 448:.\herkulex2.c ****     int red = 0;
 449:.\herkulex2.c ****     switch (LED) 
 1515              		.loc 1 449 0
 1516 0020 022A     		cmp	r2, #2
 1517 0022 07D0     		beq	.L84
 1518 0024 042A     		cmp	r2, #4
 1519 0026 09D0     		beq	.L85
 1520 0028 012A     		cmp	r2, #1
 1521 002a 0BD0     		beq	.L87
 448:.\herkulex2.c ****     switch (LED) 
 1522              		.loc 1 448 0
 1523 002c 0025     		movs	r5, #0
 447:.\herkulex2.c ****     int red = 0;
 1524              		.loc 1 447 0
ARM GAS  C:\Users\EDTRIC~1\AppData\Local\Temp\ccXQQyjM.s 			page 36


 1525 002e 2C46     		mov	r4, r5
 1526              	.LVL124:
 446:.\herkulex2.c ****     int green = 0;
 1527              		.loc 1 446 0
 1528 0030 2A46     		mov	r2, r5
 1529              	.LVL125:
 1530 0032 0AE0     		b	.L86
 1531              	.LVL126:
 1532              	.L84:
 448:.\herkulex2.c ****     switch (LED) 
 1533              		.loc 1 448 0
 1534 0034 0025     		movs	r5, #0
 447:.\herkulex2.c ****     int red = 0;
 1535              		.loc 1 447 0
 1536 0036 2C46     		mov	r4, r5
 450:.\herkulex2.c ****     {
 451:.\herkulex2.c ****         case 1:
 452:.\herkulex2.c ****             green = 1;
 453:.\herkulex2.c ****             break;
 454:.\herkulex2.c ****         case 2:
 455:.\herkulex2.c ****             blue = 1;
 1537              		.loc 1 455 0
 1538 0038 0122     		movs	r2, #1
 1539              	.LVL127:
 456:.\herkulex2.c ****             break;
 1540              		.loc 1 456 0
 1541 003a 06E0     		b	.L86
 1542              	.LVL128:
 1543              	.L85:
 457:.\herkulex2.c ****         case 4:
 458:.\herkulex2.c ****             red = 1;
 1544              		.loc 1 458 0
 1545 003c 0125     		movs	r5, #1
 447:.\herkulex2.c ****     int red = 0;
 1546              		.loc 1 447 0
 1547 003e 0024     		movs	r4, #0
 446:.\herkulex2.c ****     int green = 0;
 1548              		.loc 1 446 0
 1549 0040 2246     		mov	r2, r4
 1550              	.LVL129:
 459:.\herkulex2.c ****             break;
 1551              		.loc 1 459 0
 1552 0042 02E0     		b	.L86
 1553              	.LVL130:
 1554              	.L87:
 448:.\herkulex2.c ****     switch (LED) 
 1555              		.loc 1 448 0
 1556 0044 0025     		movs	r5, #0
 452:.\herkulex2.c ****             break;
 1557              		.loc 1 452 0
 1558 0046 0124     		movs	r4, #1
 446:.\herkulex2.c ****     int green = 0;
 1559              		.loc 1 446 0
 1560 0048 2A46     		mov	r2, r5
 1561              	.LVL131:
 1562              	.L86:
 460:.\herkulex2.c ****     }
ARM GAS  C:\Users\EDTRIC~1\AppData\Local\Temp\ccXQQyjM.s 			page 37


 461:.\herkulex2.c ****     
 462:.\herkulex2.c ****     int setValue = stop + mode * 2 + green * 4 + blue * 8 + red * 16;
 1563              		.loc 1 462 0
 1564 004a A400     		lsls	r4, r4, #2
 1565              	.LVL132:
 1566 004c 0234     		adds	r4, r4, #2
 1567 004e 04EBC204 		add	r4, r4, r2, lsl #3
 1568 0052 04EB0512 		add	r2, r4, r5, lsl #4
 1569              	.LVL133:
 463:.\herkulex2.c ****     
 464:.\herkulex2.c ****     addData( speedGoalLSB , speedGoalMSB , setValue , servoID );
 1570              		.loc 1 464 0
 1571 0056 02F0FE02 		and	r2, r2, #254
 1572              	.LVL134:
 1573 005a FFF7FEFF 		bl	addData
 1574              	.LVL135:
 1575              	.L80:
 1576 005e 38BD     		pop	{r3, r4, r5, pc}
 1577              		.cfi_endproc
 1578              	.LFE80:
 1579              		.size	Servo_moveSpeedAll, .-Servo_moveSpeedAll
 1580              		.global	__aeabi_i2f
 1581              		.section	.text.Servo_actionAll,"ax",%progbits
 1582              		.align	2
 1583              		.global	Servo_actionAll
 1584              		.thumb
 1585              		.thumb_func
 1586              		.type	Servo_actionAll, %function
 1587              	Servo_actionAll:
 1588              	.LFB81:
 465:.\herkulex2.c **** }
 466:.\herkulex2.c **** 
 467:.\herkulex2.c **** void Servo_actionAll( int time )
 468:.\herkulex2.c **** {
 1589              		.loc 1 468 0
 1590              		.cfi_startproc
 1591              		@ args = 0, pretend = 0, frame = 0
 1592              		@ frame_needed = 0, uses_anonymous_args = 0
 1593              	.LVL136:
 1594 0000 2DE9F843 		push	{r3, r4, r5, r6, r7, r8, r9, lr}
 1595              		.cfi_def_cfa_offset 32
 1596              		.cfi_offset 3, -32
 1597              		.cfi_offset 4, -28
 1598              		.cfi_offset 5, -24
 1599              		.cfi_offset 6, -20
 1600              		.cfi_offset 7, -16
 1601              		.cfi_offset 8, -12
 1602              		.cfi_offset 9, -8
 1603              		.cfi_offset 14, -4
 469:.\herkulex2.c ****     uint8 i;
 470:.\herkulex2.c ****     
 471:.\herkulex2.c ****     if( time < 0 || time > 2856 ) return;
 1604              		.loc 1 471 0
 1605 0004 40F62833 		movw	r3, #2856
 1606 0008 9842     		cmp	r0, r3
 1607 000a 4BD8     		bhi	.L89
 472:.\herkulex2.c ****     
ARM GAS  C:\Users\EDTRIC~1\AppData\Local\Temp\ccXQQyjM.s 			page 38


 473:.\herkulex2.c ****     pSize = 0x08 + conta;
 1608              		.loc 1 473 0
 1609 000c 264B     		ldr	r3, .L94
 1610 000e 93F80080 		ldrb	r8, [r3]	@ zero_extendqisi2
 1611 0012 264F     		ldr	r7, .L94+4
 1612 0014 08F10803 		add	r3, r8, #8
 1613 0018 3B70     		strb	r3, [r7]
 474:.\herkulex2.c ****     cmd = S_JOG;
 1614              		.loc 1 474 0
 1615 001a 254D     		ldr	r5, .L94+8
 1616 001c 0623     		movs	r3, #6
 1617 001e 2B70     		strb	r3, [r5]
 475:.\herkulex2.c ****     playTime = (int)((float)time/11.2);
 1618              		.loc 1 475 0
 1619 0020 FFF7FEFF 		bl	__aeabi_i2f
 1620              	.LVL137:
 1621 0024 FFF7FEFF 		bl	__aeabi_f2d
 1622              	.LVL138:
 1623 0028 4FF06632 		mov	r2, #1717986918
 1624 002c 214B     		ldr	r3, .L94+12
 1625 002e FFF7FEFF 		bl	__aeabi_ddiv
 1626              	.LVL139:
 1627 0032 FFF7FEFF 		bl	__aeabi_d2iz
 1628              	.LVL140:
 1629 0036 204C     		ldr	r4, .L94+16
 1630 0038 2060     		str	r0, [r4]
 476:.\herkulex2.c ****     
 477:.\herkulex2.c ****     pID = PIDALL ^ playTime;
 1631              		.loc 1 477 0
 1632 003a DFF89090 		ldr	r9, .L94+36
 1633 003e FE26     		movs	r6, #254
 1634 0040 7040     		eors	r0, r0, r6
 1635 0042 89F80000 		strb	r0, [r9]
 478:.\herkulex2.c ****     
 479:.\herkulex2.c ****     ck1 = checksum1 ( moveData , conta );
 1636              		.loc 1 479 0
 1637 0046 1D48     		ldr	r0, .L94+20
 1638 0048 4146     		mov	r1, r8
 1639 004a FFF7FEFF 		bl	checksum1
 1640              	.LVL141:
 1641 004e 8046     		mov	r8, r0
 1642 0050 1B4B     		ldr	r3, .L94+24
 1643 0052 1870     		strb	r0, [r3]
 480:.\herkulex2.c ****     ck2 = checksum2 ( ck1 );
 1644              		.loc 1 480 0
 1645 0054 FFF7FEFF 		bl	checksum2
 1646              	.LVL142:
 1647 0058 1A4B     		ldr	r3, .L94+28
 1648 005a 1870     		strb	r0, [r3]
 481:.\herkulex2.c ****     
 482:.\herkulex2.c ****     pID = PIDALL;
 1649              		.loc 1 482 0
 1650 005c 89F80060 		strb	r6, [r9]
 483:.\herkulex2.c ****     
 484:.\herkulex2.c ****     dataEx[0] = HEADER;
 1651              		.loc 1 484 0
 1652 0060 194B     		ldr	r3, .L94+32
ARM GAS  C:\Users\EDTRIC~1\AppData\Local\Temp\ccXQQyjM.s 			page 39


 1653 0062 FF22     		movs	r2, #255
 1654 0064 1A70     		strb	r2, [r3]
 485:.\herkulex2.c ****     dataEx[1] = HEADER;
 1655              		.loc 1 485 0
 1656 0066 5A70     		strb	r2, [r3, #1]
 486:.\herkulex2.c ****     dataEx[2] = pSize;
 1657              		.loc 1 486 0
 1658 0068 3978     		ldrb	r1, [r7]	@ zero_extendqisi2
 1659 006a 9970     		strb	r1, [r3, #2]
 487:.\herkulex2.c ****     dataEx[3] = pID;
 1660              		.loc 1 487 0
 1661 006c DE70     		strb	r6, [r3, #3]
 488:.\herkulex2.c ****     dataEx[4] = cmd;
 1662              		.loc 1 488 0
 1663 006e 2A78     		ldrb	r2, [r5]	@ zero_extendqisi2
 1664 0070 1A71     		strb	r2, [r3, #4]
 489:.\herkulex2.c ****     dataEx[5] = ck1;
 1665              		.loc 1 489 0
 1666 0072 83F80580 		strb	r8, [r3, #5]
 490:.\herkulex2.c ****     dataEx[6] = ck2;
 1667              		.loc 1 490 0
 1668 0076 9871     		strb	r0, [r3, #6]
 491:.\herkulex2.c ****     dataEx[7] = playTime;
 1669              		.loc 1 491 0
 1670 0078 2268     		ldr	r2, [r4]
 1671 007a DA71     		strb	r2, [r3, #7]
 1672              	.LVL143:
 492:.\herkulex2.c ****     
 493:.\herkulex2.c ****     for ( i = 0; i < conta; i++ )
 1673              		.loc 1 493 0
 1674 007c 0023     		movs	r3, #0
 1675 007e 07E0     		b	.L91
 1676              	.LVL144:
 1677              	.L92:
 494:.\herkulex2.c ****     {
 495:.\herkulex2.c ****         dataEx[i+8] = moveData[i];
 1678              		.loc 1 495 0 discriminator 3
 1679 0080 03F10802 		add	r2, r3, #8
 1680 0084 0D48     		ldr	r0, .L94+20
 1681 0086 C45C     		ldrb	r4, [r0, r3]	@ zero_extendqisi2
 1682 0088 0F48     		ldr	r0, .L94+32
 1683 008a 8454     		strb	r4, [r0, r2]
 493:.\herkulex2.c ****     {
 1684              		.loc 1 493 0 discriminator 3
 1685 008c 0133     		adds	r3, r3, #1
 1686              	.LVL145:
 1687 008e DBB2     		uxtb	r3, r3
 1688              	.LVL146:
 1689              	.L91:
 493:.\herkulex2.c ****     {
 1690              		.loc 1 493 0 is_stmt 0 discriminator 1
 1691 0090 054A     		ldr	r2, .L94
 1692 0092 1278     		ldrb	r2, [r2]	@ zero_extendqisi2
 1693 0094 9342     		cmp	r3, r2
 1694 0096 F3D3     		bcc	.L92
 496:.\herkulex2.c ****     }
 497:.\herkulex2.c ****     
ARM GAS  C:\Users\EDTRIC~1\AppData\Local\Temp\ccXQQyjM.s 			page 40


 498:.\herkulex2.c ****     sendData( dataEx , pSize );
 1695              		.loc 1 498 0 is_stmt 1
 1696 0098 0B48     		ldr	r0, .L94+32
 1697 009a FFF7FEFF 		bl	sendData
 1698              	.LVL147:
 499:.\herkulex2.c ****     
 500:.\herkulex2.c ****     conta = 0;
 1699              		.loc 1 500 0
 1700 009e 0022     		movs	r2, #0
 1701 00a0 014B     		ldr	r3, .L94
 1702 00a2 1A70     		strb	r2, [r3]
 1703              	.L89:
 1704 00a4 BDE8F883 		pop	{r3, r4, r5, r6, r7, r8, r9, pc}
 1705              	.L95:
 1706              		.align	2
 1707              	.L94:
 1708 00a8 00000000 		.word	conta
 1709 00ac 00000000 		.word	pSize
 1710 00b0 00000000 		.word	cmd
 1711 00b4 66662640 		.word	1076258406
 1712 00b8 00000000 		.word	playTime
 1713 00bc 00000000 		.word	moveData
 1714 00c0 00000000 		.word	ck1
 1715 00c4 00000000 		.word	ck2
 1716 00c8 00000000 		.word	dataEx
 1717 00cc 00000000 		.word	pID
 1718              		.cfi_endproc
 1719              	.LFE81:
 1720              		.size	Servo_actionAll, .-Servo_actionAll
 1721              		.section	.text.Servo_getPosition,"ax",%progbits
 1722              		.align	2
 1723              		.global	Servo_getPosition
 1724              		.thumb
 1725              		.thumb_func
 1726              		.type	Servo_getPosition, %function
 1727              	Servo_getPosition:
 1728              	.LFB82:
 501:.\herkulex2.c **** }
 502:.\herkulex2.c **** 
 503:.\herkulex2.c **** int Servo_getPosition( uint8 servoID )
 504:.\herkulex2.c **** {
 1729              		.loc 1 504 0
 1730              		.cfi_startproc
 1731              		@ args = 0, pretend = 0, frame = 8
 1732              		@ frame_needed = 0, uses_anonymous_args = 0
 1733              	.LVL148:
 1734 0000 2DE9F04F 		push	{r4, r5, r6, r7, r8, r9, r10, fp, lr}
 1735              		.cfi_def_cfa_offset 36
 1736              		.cfi_offset 4, -36
 1737              		.cfi_offset 5, -32
 1738              		.cfi_offset 6, -28
 1739              		.cfi_offset 7, -24
 1740              		.cfi_offset 8, -20
 1741              		.cfi_offset 9, -16
 1742              		.cfi_offset 10, -12
 1743              		.cfi_offset 11, -8
 1744              		.cfi_offset 14, -4
ARM GAS  C:\Users\EDTRIC~1\AppData\Local\Temp\ccXQQyjM.s 			page 41


 1745 0004 83B0     		sub	sp, sp, #12
 1746              		.cfi_def_cfa_offset 48
 1747              	.LVL149:
 505:.\herkulex2.c ****     int position = 0;
 506:.\herkulex2.c ****     
 507:.\herkulex2.c ****     pSize = 0x09;
 1748              		.loc 1 507 0
 1749 0006 DFF8F480 		ldr	r8, .L101+16
 1750 000a 0923     		movs	r3, #9
 1751 000c 88F80030 		strb	r3, [r8]
 508:.\herkulex2.c ****     pID = servoID;
 1752              		.loc 1 508 0
 1753 0010 364F     		ldr	r7, .L101
 1754 0012 3870     		strb	r0, [r7]
 509:.\herkulex2.c ****     cmd = RAM_READ;
 1755              		.loc 1 509 0
 1756 0014 364E     		ldr	r6, .L101+4
 1757 0016 0423     		movs	r3, #4
 1758 0018 3370     		strb	r3, [r6]
 510:.\herkulex2.c ****     data[0] = 0x3A;
 1759              		.loc 1 510 0
 1760 001a 364C     		ldr	r4, .L101+8
 1761 001c 3A23     		movs	r3, #58
 1762 001e 2370     		strb	r3, [r4]
 511:.\herkulex2.c ****     data[1] = 0x02;
 1763              		.loc 1 511 0
 1764 0020 0221     		movs	r1, #2
 1765 0022 6170     		strb	r1, [r4, #1]
 512:.\herkulex2.c ****     lengthString = 2;
 1766              		.loc 1 512 0
 1767 0024 DFF8D8B0 		ldr	fp, .L101+20
 1768 0028 8BF80010 		strb	r1, [fp]
 513:.\herkulex2.c ****     
 514:.\herkulex2.c ****     ck1 = checksum1( data , lengthString );
 1769              		.loc 1 514 0
 1770 002c 2046     		mov	r0, r4
 1771              	.LVL150:
 1772 002e FFF7FEFF 		bl	checksum1
 1773              	.LVL151:
 1774 0032 DFF8D0A0 		ldr	r10, .L101+24
 1775 0036 0190     		str	r0, [sp, #4]
 1776 0038 8AF80000 		strb	r0, [r10]
 515:.\herkulex2.c ****     ck2 = checksum2( ck1 );
 1777              		.loc 1 515 0
 1778 003c FFF7FEFF 		bl	checksum2
 1779              	.LVL152:
 1780 0040 DFF8C490 		ldr	r9, .L101+28
 1781 0044 89F80000 		strb	r0, [r9]
 516:.\herkulex2.c ****     
 517:.\herkulex2.c ****     dataEx[0] = HEADER;
 1782              		.loc 1 517 0
 1783 0048 2B4D     		ldr	r5, .L101+12
 1784 004a FF23     		movs	r3, #255
 1785 004c 2B70     		strb	r3, [r5]
 518:.\herkulex2.c ****     dataEx[1] = HEADER;
 1786              		.loc 1 518 0
 1787 004e 6B70     		strb	r3, [r5, #1]
ARM GAS  C:\Users\EDTRIC~1\AppData\Local\Temp\ccXQQyjM.s 			page 42


 519:.\herkulex2.c ****     dataEx[2] = pSize;
 1788              		.loc 1 519 0
 1789 0050 98F80010 		ldrb	r1, [r8]	@ zero_extendqisi2
 1790 0054 A970     		strb	r1, [r5, #2]
 520:.\herkulex2.c ****     dataEx[3] = pID;
 1791              		.loc 1 520 0
 1792 0056 3B78     		ldrb	r3, [r7]	@ zero_extendqisi2
 1793 0058 EB70     		strb	r3, [r5, #3]
 521:.\herkulex2.c ****     dataEx[4] = cmd;
 1794              		.loc 1 521 0
 1795 005a 3378     		ldrb	r3, [r6]	@ zero_extendqisi2
 1796 005c 2B71     		strb	r3, [r5, #4]
 522:.\herkulex2.c ****     dataEx[5] = ck1;
 1797              		.loc 1 522 0
 1798 005e 9DF80430 		ldrb	r3, [sp, #4]	@ zero_extendqisi2
 1799 0062 6B71     		strb	r3, [r5, #5]
 523:.\herkulex2.c ****     dataEx[6] = ck2;
 1800              		.loc 1 523 0
 1801 0064 A871     		strb	r0, [r5, #6]
 524:.\herkulex2.c ****     dataEx[7] = data[0];
 1802              		.loc 1 524 0
 1803 0066 2378     		ldrb	r3, [r4]	@ zero_extendqisi2
 1804 0068 EB71     		strb	r3, [r5, #7]
 525:.\herkulex2.c ****     dataEx[8] = data[1];
 1805              		.loc 1 525 0
 1806 006a 6378     		ldrb	r3, [r4, #1]	@ zero_extendqisi2
 1807 006c 2B72     		strb	r3, [r5, #8]
 526:.\herkulex2.c ****     
 527:.\herkulex2.c ****     sendData( dataEx , pSize );
 1808              		.loc 1 527 0
 1809 006e 2846     		mov	r0, r5
 1810 0070 FFF7FEFF 		bl	sendData
 1811              	.LVL153:
 528:.\herkulex2.c ****     CyDelay(5);
 1812              		.loc 1 528 0
 1813 0074 0520     		movs	r0, #5
 1814 0076 FFF7FEFF 		bl	CyDelay
 1815              	.LVL154:
 529:.\herkulex2.c ****     readData(13);
 1816              		.loc 1 529 0
 1817 007a 0D20     		movs	r0, #13
 1818 007c FFF7FEFF 		bl	readData
 1819              	.LVL155:
 530:.\herkulex2.c ****     
 531:.\herkulex2.c ****     pSize = dataEx[2];
 1820              		.loc 1 531 0
 1821 0080 AB78     		ldrb	r3, [r5, #2]	@ zero_extendqisi2
 1822 0082 88F80030 		strb	r3, [r8]
 532:.\herkulex2.c ****     pID = dataEx[3];
 1823              		.loc 1 532 0
 1824 0086 EB78     		ldrb	r3, [r5, #3]	@ zero_extendqisi2
 1825 0088 3B70     		strb	r3, [r7]
 533:.\herkulex2.c ****     cmd = dataEx[4];
 1826              		.loc 1 533 0
 1827 008a 2B79     		ldrb	r3, [r5, #4]	@ zero_extendqisi2
 1828 008c 3370     		strb	r3, [r6]
 534:.\herkulex2.c ****     data[0] = data[7];
ARM GAS  C:\Users\EDTRIC~1\AppData\Local\Temp\ccXQQyjM.s 			page 43


 1829              		.loc 1 534 0
 1830 008e E379     		ldrb	r3, [r4, #7]	@ zero_extendqisi2
 1831 0090 2370     		strb	r3, [r4]
 535:.\herkulex2.c ****     data[1] = data[8];
 1832              		.loc 1 535 0
 1833 0092 237A     		ldrb	r3, [r4, #8]	@ zero_extendqisi2
 1834 0094 6370     		strb	r3, [r4, #1]
 536:.\herkulex2.c ****     data[2] = data[9];
 1835              		.loc 1 536 0
 1836 0096 637A     		ldrb	r3, [r4, #9]	@ zero_extendqisi2
 1837 0098 A370     		strb	r3, [r4, #2]
 537:.\herkulex2.c ****     data[3] = data[10];
 1838              		.loc 1 537 0
 1839 009a A37A     		ldrb	r3, [r4, #10]	@ zero_extendqisi2
 1840 009c E370     		strb	r3, [r4, #3]
 538:.\herkulex2.c ****     data[4] = data[11];
 1841              		.loc 1 538 0
 1842 009e E37A     		ldrb	r3, [r4, #11]	@ zero_extendqisi2
 1843 00a0 2371     		strb	r3, [r4, #4]
 539:.\herkulex2.c ****     data[5] = data[12];
 1844              		.loc 1 539 0
 1845 00a2 237B     		ldrb	r3, [r4, #12]	@ zero_extendqisi2
 1846 00a4 6371     		strb	r3, [r4, #5]
 540:.\herkulex2.c ****     lengthString = 6;
 1847              		.loc 1 540 0
 1848 00a6 0621     		movs	r1, #6
 1849 00a8 8BF80010 		strb	r1, [fp]
 541:.\herkulex2.c ****     
 542:.\herkulex2.c ****     ck1 = checksum1( data , lengthString );
 1850              		.loc 1 542 0
 1851 00ac 2046     		mov	r0, r4
 1852 00ae FFF7FEFF 		bl	checksum1
 1853              	.LVL156:
 1854 00b2 0446     		mov	r4, r0
 1855 00b4 8AF80000 		strb	r0, [r10]
 543:.\herkulex2.c ****     ck2 = checksum2( ck1 );
 1856              		.loc 1 543 0
 1857 00b8 FFF7FEFF 		bl	checksum2
 1858              	.LVL157:
 1859 00bc 89F80000 		strb	r0, [r9]
 544:.\herkulex2.c ****     
 545:.\herkulex2.c ****     if( ck1 != dataEx[5] ) return -1;
 1860              		.loc 1 545 0
 1861 00c0 6B79     		ldrb	r3, [r5, #5]	@ zero_extendqisi2
 1862 00c2 9C42     		cmp	r4, r3
 1863 00c4 09D1     		bne	.L98
 546:.\herkulex2.c ****     if( ck2 != dataEx[6] ) return -1;
 1864              		.loc 1 546 0
 1865 00c6 AB79     		ldrb	r3, [r5, #6]	@ zero_extendqisi2
 1866 00c8 9842     		cmp	r0, r3
 1867 00ca 09D1     		bne	.L99
 547:.\herkulex2.c ****     
 548:.\herkulex2.c ****     position = ( (dataEx[10] & 0x03) << 8 ) | dataEx[9];
 1868              		.loc 1 548 0
 1869 00cc A87A     		ldrb	r0, [r5, #10]	@ zero_extendqisi2
 1870 00ce 00F00300 		and	r0, r0, #3
 1871 00d2 6B7A     		ldrb	r3, [r5, #9]	@ zero_extendqisi2
ARM GAS  C:\Users\EDTRIC~1\AppData\Local\Temp\ccXQQyjM.s 			page 44


 1872 00d4 43EA0020 		orr	r0, r3, r0, lsl #8
 1873              	.LVL158:
 549:.\herkulex2.c ****     return position;
 1874              		.loc 1 549 0
 1875 00d8 04E0     		b	.L97
 1876              	.LVL159:
 1877              	.L98:
 545:.\herkulex2.c ****     if( ck2 != dataEx[6] ) return -1;
 1878              		.loc 1 545 0
 1879 00da 4FF0FF30 		mov	r0, #-1
 1880 00de 01E0     		b	.L97
 1881              	.L99:
 546:.\herkulex2.c ****     
 1882              		.loc 1 546 0
 1883 00e0 4FF0FF30 		mov	r0, #-1
 1884              	.LVL160:
 1885              	.L97:
 550:.\herkulex2.c **** }
 1886              		.loc 1 550 0
 1887 00e4 03B0     		add	sp, sp, #12
 1888              		.cfi_def_cfa_offset 36
 1889              		@ sp needed
 1890 00e6 BDE8F08F 		pop	{r4, r5, r6, r7, r8, r9, r10, fp, pc}
 1891              	.L102:
 1892 00ea 00BF     		.align	2
 1893              	.L101:
 1894 00ec 00000000 		.word	pID
 1895 00f0 00000000 		.word	cmd
 1896 00f4 00000000 		.word	data
 1897 00f8 00000000 		.word	dataEx
 1898 00fc 00000000 		.word	pSize
 1899 0100 00000000 		.word	lengthString
 1900 0104 00000000 		.word	ck1
 1901 0108 00000000 		.word	ck2
 1902              		.cfi_endproc
 1903              	.LFE82:
 1904              		.size	Servo_getPosition, .-Servo_getPosition
 1905              		.global	__aeabi_i2d
 1906              		.global	__aeabi_dmul
 1907              		.global	__aeabi_d2f
 1908              		.section	.text.Servo_getAngle,"ax",%progbits
 1909              		.align	2
 1910              		.global	Servo_getAngle
 1911              		.thumb
 1912              		.thumb_func
 1913              		.type	Servo_getAngle, %function
 1914              	Servo_getAngle:
 1915              	.LFB83:
 551:.\herkulex2.c **** 
 552:.\herkulex2.c **** float Servo_getAngle( uint8 servoID )
 553:.\herkulex2.c **** {
 1916              		.loc 1 553 0
 1917              		.cfi_startproc
 1918              		@ args = 0, pretend = 0, frame = 0
 1919              		@ frame_needed = 0, uses_anonymous_args = 0
 1920              	.LVL161:
 1921 0000 08B5     		push	{r3, lr}
ARM GAS  C:\Users\EDTRIC~1\AppData\Local\Temp\ccXQQyjM.s 			page 45


 1922              		.cfi_def_cfa_offset 8
 1923              		.cfi_offset 3, -8
 1924              		.cfi_offset 14, -4
 554:.\herkulex2.c ****     int pos = (int)Servo_getPosition(servoID);
 1925              		.loc 1 554 0
 1926 0002 FFF7FEFF 		bl	Servo_getPosition
 1927              	.LVL162:
 555:.\herkulex2.c ****     return ( pos - 512 ) * 0.325;
 1928              		.loc 1 555 0
 1929 0006 A0F50070 		sub	r0, r0, #512
 1930              	.LVL163:
 1931 000a FFF7FEFF 		bl	__aeabi_i2d
 1932              	.LVL164:
 1933 000e 04A3     		adr	r3, .L105
 1934 0010 D3E90023 		ldrd	r2, [r3]
 1935 0014 FFF7FEFF 		bl	__aeabi_dmul
 1936              	.LVL165:
 1937 0018 FFF7FEFF 		bl	__aeabi_d2f
 1938              	.LVL166:
 556:.\herkulex2.c **** }
 1939              		.loc 1 556 0
 1940 001c 08BD     		pop	{r3, pc}
 1941              	.L106:
 1942 001e 00BF     		.align	3
 1943              	.L105:
 1944 0020 CDCCCCCC 		.word	-858993459
 1945 0024 CCCCD43F 		.word	1070910668
 1946              		.cfi_endproc
 1947              	.LFE83:
 1948              		.size	Servo_getAngle, .-Servo_getAngle
 1949              		.section	.text.Servo_getSpeed,"ax",%progbits
 1950              		.align	2
 1951              		.global	Servo_getSpeed
 1952              		.thumb
 1953              		.thumb_func
 1954              		.type	Servo_getSpeed, %function
 1955              	Servo_getSpeed:
 1956              	.LFB84:
 557:.\herkulex2.c **** 
 558:.\herkulex2.c **** int Servo_getSpeed( uint8 servoID )
 559:.\herkulex2.c **** {
 1957              		.loc 1 559 0
 1958              		.cfi_startproc
 1959              		@ args = 0, pretend = 0, frame = 8
 1960              		@ frame_needed = 0, uses_anonymous_args = 0
 1961              	.LVL167:
 1962 0000 2DE9F04F 		push	{r4, r5, r6, r7, r8, r9, r10, fp, lr}
 1963              		.cfi_def_cfa_offset 36
 1964              		.cfi_offset 4, -36
 1965              		.cfi_offset 5, -32
 1966              		.cfi_offset 6, -28
 1967              		.cfi_offset 7, -24
 1968              		.cfi_offset 8, -20
 1969              		.cfi_offset 9, -16
 1970              		.cfi_offset 10, -12
 1971              		.cfi_offset 11, -8
 1972              		.cfi_offset 14, -4
ARM GAS  C:\Users\EDTRIC~1\AppData\Local\Temp\ccXQQyjM.s 			page 46


 1973 0004 83B0     		sub	sp, sp, #12
 1974              		.cfi_def_cfa_offset 48
 1975              	.LVL168:
 560:.\herkulex2.c ****     int speed = 0;
 561:.\herkulex2.c ****     
 562:.\herkulex2.c ****     pSize = 0x09;
 1976              		.loc 1 562 0
 1977 0006 DFF8F080 		ldr	r8, .L112+16
 1978 000a 0923     		movs	r3, #9
 1979 000c 88F80030 		strb	r3, [r8]
 563:.\herkulex2.c ****     pID = servoID;
 1980              		.loc 1 563 0
 1981 0010 354F     		ldr	r7, .L112
 1982 0012 3870     		strb	r0, [r7]
 564:.\herkulex2.c ****     cmd = RAM_READ;
 1983              		.loc 1 564 0
 1984 0014 354E     		ldr	r6, .L112+4
 1985 0016 0423     		movs	r3, #4
 1986 0018 3370     		strb	r3, [r6]
 565:.\herkulex2.c ****     data[0] = 0x40;
 1987              		.loc 1 565 0
 1988 001a 354C     		ldr	r4, .L112+8
 1989 001c 4023     		movs	r3, #64
 1990 001e 2370     		strb	r3, [r4]
 566:.\herkulex2.c ****     data[1] = 0x02;
 1991              		.loc 1 566 0
 1992 0020 0221     		movs	r1, #2
 1993 0022 6170     		strb	r1, [r4, #1]
 567:.\herkulex2.c ****     lengthString = 2;
 1994              		.loc 1 567 0
 1995 0024 DFF8D4B0 		ldr	fp, .L112+20
 1996 0028 8BF80010 		strb	r1, [fp]
 568:.\herkulex2.c ****     
 569:.\herkulex2.c ****     ck1 = checksum1( data , lengthString );
 1997              		.loc 1 569 0
 1998 002c 2046     		mov	r0, r4
 1999              	.LVL169:
 2000 002e FFF7FEFF 		bl	checksum1
 2001              	.LVL170:
 2002 0032 DFF8CCA0 		ldr	r10, .L112+24
 2003 0036 0190     		str	r0, [sp, #4]
 2004 0038 8AF80000 		strb	r0, [r10]
 570:.\herkulex2.c ****     ck2 = checksum2( ck1 );
 2005              		.loc 1 570 0
 2006 003c FFF7FEFF 		bl	checksum2
 2007              	.LVL171:
 2008 0040 DFF8C090 		ldr	r9, .L112+28
 2009 0044 89F80000 		strb	r0, [r9]
 571:.\herkulex2.c ****     
 572:.\herkulex2.c ****     dataEx[0] = HEADER;
 2010              		.loc 1 572 0
 2011 0048 2A4D     		ldr	r5, .L112+12
 2012 004a FF23     		movs	r3, #255
 2013 004c 2B70     		strb	r3, [r5]
 573:.\herkulex2.c ****     dataEx[1] = HEADER;
 2014              		.loc 1 573 0
 2015 004e 6B70     		strb	r3, [r5, #1]
ARM GAS  C:\Users\EDTRIC~1\AppData\Local\Temp\ccXQQyjM.s 			page 47


 574:.\herkulex2.c ****     dataEx[2] = pSize;
 2016              		.loc 1 574 0
 2017 0050 98F80010 		ldrb	r1, [r8]	@ zero_extendqisi2
 2018 0054 A970     		strb	r1, [r5, #2]
 575:.\herkulex2.c ****     dataEx[3] = pID;
 2019              		.loc 1 575 0
 2020 0056 3B78     		ldrb	r3, [r7]	@ zero_extendqisi2
 2021 0058 EB70     		strb	r3, [r5, #3]
 576:.\herkulex2.c ****     dataEx[4] = cmd;
 2022              		.loc 1 576 0
 2023 005a 3378     		ldrb	r3, [r6]	@ zero_extendqisi2
 2024 005c 2B71     		strb	r3, [r5, #4]
 577:.\herkulex2.c ****     dataEx[5] = ck1;
 2025              		.loc 1 577 0
 2026 005e 9DF80430 		ldrb	r3, [sp, #4]	@ zero_extendqisi2
 2027 0062 6B71     		strb	r3, [r5, #5]
 578:.\herkulex2.c ****     dataEx[6] = ck2;
 2028              		.loc 1 578 0
 2029 0064 A871     		strb	r0, [r5, #6]
 579:.\herkulex2.c ****     dataEx[7] = data[0];
 2030              		.loc 1 579 0
 2031 0066 2378     		ldrb	r3, [r4]	@ zero_extendqisi2
 2032 0068 EB71     		strb	r3, [r5, #7]
 580:.\herkulex2.c ****     dataEx[8] = data[1];
 2033              		.loc 1 580 0
 2034 006a 6378     		ldrb	r3, [r4, #1]	@ zero_extendqisi2
 2035 006c 2B72     		strb	r3, [r5, #8]
 581:.\herkulex2.c ****     
 582:.\herkulex2.c ****     sendData( dataEx , pSize );
 2036              		.loc 1 582 0
 2037 006e 2846     		mov	r0, r5
 2038 0070 FFF7FEFF 		bl	sendData
 2039              	.LVL172:
 583:.\herkulex2.c ****     CyDelay(5);
 2040              		.loc 1 583 0
 2041 0074 0520     		movs	r0, #5
 2042 0076 FFF7FEFF 		bl	CyDelay
 2043              	.LVL173:
 584:.\herkulex2.c ****     readData(13);
 2044              		.loc 1 584 0
 2045 007a 0D20     		movs	r0, #13
 2046 007c FFF7FEFF 		bl	readData
 2047              	.LVL174:
 585:.\herkulex2.c ****     
 586:.\herkulex2.c ****     pSize = dataEx[2];
 2048              		.loc 1 586 0
 2049 0080 AB78     		ldrb	r3, [r5, #2]	@ zero_extendqisi2
 2050 0082 88F80030 		strb	r3, [r8]
 587:.\herkulex2.c ****     pID = dataEx[3];
 2051              		.loc 1 587 0
 2052 0086 EB78     		ldrb	r3, [r5, #3]	@ zero_extendqisi2
 2053 0088 3B70     		strb	r3, [r7]
 588:.\herkulex2.c ****     cmd = dataEx[4];
 2054              		.loc 1 588 0
 2055 008a 2B79     		ldrb	r3, [r5, #4]	@ zero_extendqisi2
 2056 008c 3370     		strb	r3, [r6]
 589:.\herkulex2.c ****     data[0] = data[7];
ARM GAS  C:\Users\EDTRIC~1\AppData\Local\Temp\ccXQQyjM.s 			page 48


 2057              		.loc 1 589 0
 2058 008e E379     		ldrb	r3, [r4, #7]	@ zero_extendqisi2
 2059 0090 2370     		strb	r3, [r4]
 590:.\herkulex2.c ****     data[1] = data[8];
 2060              		.loc 1 590 0
 2061 0092 237A     		ldrb	r3, [r4, #8]	@ zero_extendqisi2
 2062 0094 6370     		strb	r3, [r4, #1]
 591:.\herkulex2.c ****     data[2] = data[9];
 2063              		.loc 1 591 0
 2064 0096 637A     		ldrb	r3, [r4, #9]	@ zero_extendqisi2
 2065 0098 A370     		strb	r3, [r4, #2]
 592:.\herkulex2.c ****     data[3] = data[10];
 2066              		.loc 1 592 0
 2067 009a A37A     		ldrb	r3, [r4, #10]	@ zero_extendqisi2
 2068 009c E370     		strb	r3, [r4, #3]
 593:.\herkulex2.c ****     data[4] = data[11];
 2069              		.loc 1 593 0
 2070 009e E37A     		ldrb	r3, [r4, #11]	@ zero_extendqisi2
 2071 00a0 2371     		strb	r3, [r4, #4]
 594:.\herkulex2.c ****     data[5] = data[12];
 2072              		.loc 1 594 0
 2073 00a2 237B     		ldrb	r3, [r4, #12]	@ zero_extendqisi2
 2074 00a4 6371     		strb	r3, [r4, #5]
 595:.\herkulex2.c ****     lengthString = 6;
 2075              		.loc 1 595 0
 2076 00a6 0621     		movs	r1, #6
 2077 00a8 8BF80010 		strb	r1, [fp]
 596:.\herkulex2.c ****     
 597:.\herkulex2.c ****     ck1 = checksum1( data , lengthString );
 2078              		.loc 1 597 0
 2079 00ac 2046     		mov	r0, r4
 2080 00ae FFF7FEFF 		bl	checksum1
 2081              	.LVL175:
 2082 00b2 0446     		mov	r4, r0
 2083 00b4 8AF80000 		strb	r0, [r10]
 598:.\herkulex2.c ****     ck2 = checksum2( ck1 );
 2084              		.loc 1 598 0
 2085 00b8 FFF7FEFF 		bl	checksum2
 2086              	.LVL176:
 2087 00bc 89F80000 		strb	r0, [r9]
 599:.\herkulex2.c ****     
 600:.\herkulex2.c ****     if( ck1 != dataEx[5] ) return -1;
 2088              		.loc 1 600 0
 2089 00c0 6B79     		ldrb	r3, [r5, #5]	@ zero_extendqisi2
 2090 00c2 9C42     		cmp	r4, r3
 2091 00c4 07D1     		bne	.L109
 601:.\herkulex2.c ****     if( ck2 != dataEx[6] ) return -1;
 2092              		.loc 1 601 0
 2093 00c6 AB79     		ldrb	r3, [r5, #6]	@ zero_extendqisi2
 2094 00c8 9842     		cmp	r0, r3
 2095 00ca 07D1     		bne	.L110
 602:.\herkulex2.c ****     
 603:.\herkulex2.c ****     speed = ( (dataEx[10] & 0xFF) << 8 ) | dataEx[9];
 2096              		.loc 1 603 0
 2097 00cc A87A     		ldrb	r0, [r5, #10]	@ zero_extendqisi2
 2098 00ce 6B7A     		ldrb	r3, [r5, #9]	@ zero_extendqisi2
 2099 00d0 43EA0020 		orr	r0, r3, r0, lsl #8
ARM GAS  C:\Users\EDTRIC~1\AppData\Local\Temp\ccXQQyjM.s 			page 49


 2100              	.LVL177:
 604:.\herkulex2.c ****     return speed;
 2101              		.loc 1 604 0
 2102 00d4 04E0     		b	.L108
 2103              	.LVL178:
 2104              	.L109:
 600:.\herkulex2.c ****     if( ck2 != dataEx[6] ) return -1;
 2105              		.loc 1 600 0
 2106 00d6 4FF0FF30 		mov	r0, #-1
 2107 00da 01E0     		b	.L108
 2108              	.L110:
 601:.\herkulex2.c ****     
 2109              		.loc 1 601 0
 2110 00dc 4FF0FF30 		mov	r0, #-1
 2111              	.LVL179:
 2112              	.L108:
 605:.\herkulex2.c **** }
 2113              		.loc 1 605 0
 2114 00e0 03B0     		add	sp, sp, #12
 2115              		.cfi_def_cfa_offset 36
 2116              		@ sp needed
 2117 00e2 BDE8F08F 		pop	{r4, r5, r6, r7, r8, r9, r10, fp, pc}
 2118              	.L113:
 2119 00e6 00BF     		.align	2
 2120              	.L112:
 2121 00e8 00000000 		.word	pID
 2122 00ec 00000000 		.word	cmd
 2123 00f0 00000000 		.word	data
 2124 00f4 00000000 		.word	dataEx
 2125 00f8 00000000 		.word	pSize
 2126 00fc 00000000 		.word	lengthString
 2127 0100 00000000 		.word	ck1
 2128 0104 00000000 		.word	ck2
 2129              		.cfi_endproc
 2130              	.LFE84:
 2131              		.size	Servo_getSpeed, .-Servo_getSpeed
 2132              		.section	.text.Servo_reboot,"ax",%progbits
 2133              		.align	2
 2134              		.global	Servo_reboot
 2135              		.thumb
 2136              		.thumb_func
 2137              		.type	Servo_reboot, %function
 2138              	Servo_reboot:
 2139              	.LFB85:
 606:.\herkulex2.c **** 
 607:.\herkulex2.c **** void Servo_reboot( uint8 servoID )
 608:.\herkulex2.c **** {
 2140              		.loc 1 608 0
 2141              		.cfi_startproc
 2142              		@ args = 0, pretend = 0, frame = 0
 2143              		@ frame_needed = 0, uses_anonymous_args = 0
 2144              	.LVL180:
 2145 0000 70B5     		push	{r4, r5, r6, lr}
 2146              		.cfi_def_cfa_offset 16
 2147              		.cfi_offset 4, -16
 2148              		.cfi_offset 5, -12
 2149              		.cfi_offset 6, -8
ARM GAS  C:\Users\EDTRIC~1\AppData\Local\Temp\ccXQQyjM.s 			page 50


 2150              		.cfi_offset 14, -4
 609:.\herkulex2.c ****     pSize = 0x07;
 2151              		.loc 1 609 0
 2152 0002 0721     		movs	r1, #7
 2153 0004 0F4B     		ldr	r3, .L116
 2154 0006 1970     		strb	r1, [r3]
 610:.\herkulex2.c ****     pID = servoID;
 2155              		.loc 1 610 0
 2156 0008 0F4B     		ldr	r3, .L116+4
 2157 000a 1870     		strb	r0, [r3]
 611:.\herkulex2.c ****     cmd = REBOOT;
 2158              		.loc 1 611 0
 2159 000c 0925     		movs	r5, #9
 2160 000e 0F4B     		ldr	r3, .L116+8
 2161 0010 1D70     		strb	r5, [r3]
 612:.\herkulex2.c ****     
 613:.\herkulex2.c ****     ck1 = ( pSize ^ pID ^ cmd) & 0xFE;
 2162              		.loc 1 613 0
 2163 0012 80F00E02 		eor	r2, r0, #14
 2164 0016 02F0FE04 		and	r4, r2, #254
 2165 001a 0D4B     		ldr	r3, .L116+12
 2166 001c 1C70     		strb	r4, [r3]
 614:.\herkulex2.c ****     ck2 = ( ~( pSize ^ pID ^ cmd ) ) & 0xFE;
 2167              		.loc 1 614 0
 2168 001e D243     		mvns	r2, r2
 2169 0020 02F0FE02 		and	r2, r2, #254
 2170 0024 0B4B     		ldr	r3, .L116+16
 2171 0026 1A70     		strb	r2, [r3]
 615:.\herkulex2.c ****     
 616:.\herkulex2.c ****     dataEx[0] = HEADER;
 2172              		.loc 1 616 0
 2173 0028 0B4B     		ldr	r3, .L116+20
 2174 002a FF26     		movs	r6, #255
 2175 002c 1E70     		strb	r6, [r3]
 617:.\herkulex2.c ****     dataEx[1] = HEADER;
 2176              		.loc 1 617 0
 2177 002e 5E70     		strb	r6, [r3, #1]
 618:.\herkulex2.c ****     dataEx[2] = pSize;
 2178              		.loc 1 618 0
 2179 0030 9970     		strb	r1, [r3, #2]
 619:.\herkulex2.c ****     dataEx[3] = pID;
 2180              		.loc 1 619 0
 2181 0032 D870     		strb	r0, [r3, #3]
 620:.\herkulex2.c ****     dataEx[4] = cmd;
 2182              		.loc 1 620 0
 2183 0034 1D71     		strb	r5, [r3, #4]
 621:.\herkulex2.c ****     dataEx[5] = ck1;
 2184              		.loc 1 621 0
 2185 0036 5C71     		strb	r4, [r3, #5]
 622:.\herkulex2.c ****     dataEx[6] = ck2;
 2186              		.loc 1 622 0
 2187 0038 9A71     		strb	r2, [r3, #6]
 623:.\herkulex2.c ****     
 624:.\herkulex2.c ****     sendData( dataEx , pSize );
 2188              		.loc 1 624 0
 2189 003a 1846     		mov	r0, r3
 2190              	.LVL181:
ARM GAS  C:\Users\EDTRIC~1\AppData\Local\Temp\ccXQQyjM.s 			page 51


 2191 003c FFF7FEFF 		bl	sendData
 2192              	.LVL182:
 2193 0040 70BD     		pop	{r4, r5, r6, pc}
 2194              	.L117:
 2195 0042 00BF     		.align	2
 2196              	.L116:
 2197 0044 00000000 		.word	pSize
 2198 0048 00000000 		.word	pID
 2199 004c 00000000 		.word	cmd
 2200 0050 00000000 		.word	ck1
 2201 0054 00000000 		.word	ck2
 2202 0058 00000000 		.word	dataEx
 2203              		.cfi_endproc
 2204              	.LFE85:
 2205              		.size	Servo_reboot, .-Servo_reboot
 2206              		.section	.text.Servo_setLED,"ax",%progbits
 2207              		.align	2
 2208              		.global	Servo_setLED
 2209              		.thumb
 2210              		.thumb_func
 2211              		.type	Servo_setLED, %function
 2212              	Servo_setLED:
 2213              	.LFB86:
 625:.\herkulex2.c **** }
 626:.\herkulex2.c **** 
 627:.\herkulex2.c **** void Servo_setLED( uint8 servoID , uint8 LED_Value )
 628:.\herkulex2.c **** {
 2214              		.loc 1 628 0
 2215              		.cfi_startproc
 2216              		@ args = 0, pretend = 0, frame = 0
 2217              		@ frame_needed = 0, uses_anonymous_args = 0
 2218              	.LVL183:
 2219 0000 2DE9F041 		push	{r4, r5, r6, r7, r8, lr}
 2220              		.cfi_def_cfa_offset 24
 2221              		.cfi_offset 4, -24
 2222              		.cfi_offset 5, -20
 2223              		.cfi_offset 6, -16
 2224              		.cfi_offset 7, -12
 2225              		.cfi_offset 8, -8
 2226              		.cfi_offset 14, -4
 629:.\herkulex2.c ****     pSize = 0x0A;
 2227              		.loc 1 629 0
 2228 0004 DFF88480 		ldr	r8, .L120+28
 2229 0008 0A23     		movs	r3, #10
 2230 000a 88F80030 		strb	r3, [r8]
 630:.\herkulex2.c ****     pID = servoID;
 2231              		.loc 1 630 0
 2232 000e 184F     		ldr	r7, .L120
 2233 0010 3870     		strb	r0, [r7]
 631:.\herkulex2.c ****     cmd = RAM_WRITE;
 2234              		.loc 1 631 0
 2235 0012 184E     		ldr	r6, .L120+4
 2236 0014 0323     		movs	r3, #3
 2237 0016 3370     		strb	r3, [r6]
 632:.\herkulex2.c ****     data[0] = 0x35;
 2238              		.loc 1 632 0
 2239 0018 174C     		ldr	r4, .L120+8
ARM GAS  C:\Users\EDTRIC~1\AppData\Local\Temp\ccXQQyjM.s 			page 52


 2240 001a 3522     		movs	r2, #53
 2241 001c 2270     		strb	r2, [r4]
 633:.\herkulex2.c ****     data[1] = 0x01;
 2242              		.loc 1 633 0
 2243 001e 0122     		movs	r2, #1
 2244 0020 6270     		strb	r2, [r4, #1]
 634:.\herkulex2.c ****     data[2] = LED_Value;
 2245              		.loc 1 634 0
 2246 0022 A170     		strb	r1, [r4, #2]
 635:.\herkulex2.c ****     lengthString = 3;
 2247              		.loc 1 635 0
 2248 0024 154A     		ldr	r2, .L120+12
 2249 0026 1370     		strb	r3, [r2]
 636:.\herkulex2.c ****     
 637:.\herkulex2.c ****     ck1 = checksum1( data , lengthString );
 2250              		.loc 1 637 0
 2251 0028 2046     		mov	r0, r4
 2252              	.LVL184:
 2253 002a 1946     		mov	r1, r3
 2254              	.LVL185:
 2255 002c FFF7FEFF 		bl	checksum1
 2256              	.LVL186:
 2257 0030 0546     		mov	r5, r0
 2258 0032 134B     		ldr	r3, .L120+16
 2259 0034 1870     		strb	r0, [r3]
 638:.\herkulex2.c ****     ck2 = checksum2( ck1 );
 2260              		.loc 1 638 0
 2261 0036 FFF7FEFF 		bl	checksum2
 2262              	.LVL187:
 2263 003a 124B     		ldr	r3, .L120+20
 2264 003c 1870     		strb	r0, [r3]
 639:.\herkulex2.c ****     
 640:.\herkulex2.c ****     dataEx[0] = HEADER;
 2265              		.loc 1 640 0
 2266 003e 124B     		ldr	r3, .L120+24
 2267 0040 FF22     		movs	r2, #255
 2268 0042 1A70     		strb	r2, [r3]
 641:.\herkulex2.c ****     dataEx[1] = HEADER;
 2269              		.loc 1 641 0
 2270 0044 5A70     		strb	r2, [r3, #1]
 642:.\herkulex2.c ****     dataEx[2] = pSize;
 2271              		.loc 1 642 0
 2272 0046 98F80010 		ldrb	r1, [r8]	@ zero_extendqisi2
 2273 004a 9970     		strb	r1, [r3, #2]
 643:.\herkulex2.c ****     dataEx[3] = pID;
 2274              		.loc 1 643 0
 2275 004c 3A78     		ldrb	r2, [r7]	@ zero_extendqisi2
 2276 004e DA70     		strb	r2, [r3, #3]
 644:.\herkulex2.c ****     dataEx[4] = cmd;
 2277              		.loc 1 644 0
 2278 0050 3278     		ldrb	r2, [r6]	@ zero_extendqisi2
 2279 0052 1A71     		strb	r2, [r3, #4]
 645:.\herkulex2.c ****     dataEx[5] = ck1;
 2280              		.loc 1 645 0
 2281 0054 5D71     		strb	r5, [r3, #5]
 646:.\herkulex2.c ****     dataEx[6] = ck2;
 2282              		.loc 1 646 0
ARM GAS  C:\Users\EDTRIC~1\AppData\Local\Temp\ccXQQyjM.s 			page 53


 2283 0056 9871     		strb	r0, [r3, #6]
 647:.\herkulex2.c ****     dataEx[7] = data[0];
 2284              		.loc 1 647 0
 2285 0058 2278     		ldrb	r2, [r4]	@ zero_extendqisi2
 2286 005a DA71     		strb	r2, [r3, #7]
 648:.\herkulex2.c ****     dataEx[8] = data[1];
 2287              		.loc 1 648 0
 2288 005c 6278     		ldrb	r2, [r4, #1]	@ zero_extendqisi2
 2289 005e 1A72     		strb	r2, [r3, #8]
 649:.\herkulex2.c ****     dataEx[9] = data[2];
 2290              		.loc 1 649 0
 2291 0060 A278     		ldrb	r2, [r4, #2]	@ zero_extendqisi2
 2292 0062 5A72     		strb	r2, [r3, #9]
 650:.\herkulex2.c ****     
 651:.\herkulex2.c ****     sendData( dataEx , pSize );
 2293              		.loc 1 651 0
 2294 0064 1846     		mov	r0, r3
 2295 0066 FFF7FEFF 		bl	sendData
 2296              	.LVL188:
 2297 006a BDE8F081 		pop	{r4, r5, r6, r7, r8, pc}
 2298              	.L121:
 2299 006e 00BF     		.align	2
 2300              	.L120:
 2301 0070 00000000 		.word	pID
 2302 0074 00000000 		.word	cmd
 2303 0078 00000000 		.word	data
 2304 007c 00000000 		.word	lengthString
 2305 0080 00000000 		.word	ck1
 2306 0084 00000000 		.word	ck2
 2307 0088 00000000 		.word	dataEx
 2308 008c 00000000 		.word	pSize
 2309              		.cfi_endproc
 2310              	.LFE86:
 2311              		.size	Servo_setLED, .-Servo_setLED
 2312              		.section	.text.Servo_moveOne,"ax",%progbits
 2313              		.align	2
 2314              		.global	Servo_moveOne
 2315              		.thumb
 2316              		.thumb_func
 2317              		.type	Servo_moveOne, %function
 2318              	Servo_moveOne:
 2319              	.LFB87:
 652:.\herkulex2.c **** }
 653:.\herkulex2.c **** 
 654:.\herkulex2.c **** void Servo_moveOne( uint8 servoID , int goal , int time , uint8 LED )
 655:.\herkulex2.c **** {
 2320              		.loc 1 655 0
 2321              		.cfi_startproc
 2322              		@ args = 0, pretend = 0, frame = 0
 2323              		@ frame_needed = 0, uses_anonymous_args = 0
 2324              	.LVL189:
 2325 0000 2DE9F84F 		push	{r3, r4, r5, r6, r7, r8, r9, r10, fp, lr}
 2326              		.cfi_def_cfa_offset 40
 2327              		.cfi_offset 3, -40
 2328              		.cfi_offset 4, -36
 2329              		.cfi_offset 5, -32
 2330              		.cfi_offset 6, -28
ARM GAS  C:\Users\EDTRIC~1\AppData\Local\Temp\ccXQQyjM.s 			page 54


 2331              		.cfi_offset 7, -24
 2332              		.cfi_offset 8, -20
 2333              		.cfi_offset 9, -16
 2334              		.cfi_offset 10, -12
 2335              		.cfi_offset 11, -8
 2336              		.cfi_offset 14, -4
 2337 0004 0D46     		mov	r5, r1
 656:.\herkulex2.c ****     if( goal > 1023 || goal < 0 ) return;
 2338              		.loc 1 656 0
 2339 0006 B1F5806F 		cmp	r1, #1024
 2340 000a 70D2     		bcs	.L122
 2341 000c 0646     		mov	r6, r0
 657:.\herkulex2.c ****     if( time < 0 || time > 2856 ) return;
 2342              		.loc 1 657 0
 2343 000e 40F62831 		movw	r1, #2856
 2344              	.LVL190:
 2345 0012 8A42     		cmp	r2, r1
 2346 0014 6BD8     		bhi	.L122
 2347              	.LVL191:
 658:.\herkulex2.c ****     
 659:.\herkulex2.c ****     int posLSB = goal & 0X00FF;
 660:.\herkulex2.c ****     int posMSB = ( goal & 0xFF00 ) >> 8;
 2348              		.loc 1 660 0
 2349 0016 C5F3072A 		ubfx	r10, r5, #8, #8
 2350              	.LVL192:
 661:.\herkulex2.c **** 
 662:.\herkulex2.c ****     int blue = 0;
 663:.\herkulex2.c ****     int green = 0;
 664:.\herkulex2.c ****     int red = 0;
 665:.\herkulex2.c ****     switch (LED) 
 2351              		.loc 1 665 0
 2352 001a 022B     		cmp	r3, #2
 2353 001c 08D0     		beq	.L125
 2354 001e 042B     		cmp	r3, #4
 2355 0020 0BD0     		beq	.L126
 2356 0022 012B     		cmp	r3, #1
 2357 0024 0ED0     		beq	.L128
 664:.\herkulex2.c ****     switch (LED) 
 2358              		.loc 1 664 0
 2359 0026 4FF0000B 		mov	fp, #0
 663:.\herkulex2.c ****     int red = 0;
 2360              		.loc 1 663 0
 2361 002a 5B46     		mov	r3, fp
 2362              	.LVL193:
 662:.\herkulex2.c ****     int green = 0;
 2363              		.loc 1 662 0
 2364 002c 5946     		mov	r1, fp
 2365 002e 0DE0     		b	.L127
 2366              	.LVL194:
 2367              	.L125:
 664:.\herkulex2.c ****     switch (LED) 
 2368              		.loc 1 664 0
 2369 0030 4FF0000B 		mov	fp, #0
 663:.\herkulex2.c ****     int red = 0;
 2370              		.loc 1 663 0
 2371 0034 5B46     		mov	r3, fp
 2372              	.LVL195:
ARM GAS  C:\Users\EDTRIC~1\AppData\Local\Temp\ccXQQyjM.s 			page 55


 666:.\herkulex2.c ****     {
 667:.\herkulex2.c ****         case 1:
 668:.\herkulex2.c ****             green = 1;
 669:.\herkulex2.c ****             break;
 670:.\herkulex2.c ****         case 2:
 671:.\herkulex2.c ****             blue = 1;
 2373              		.loc 1 671 0
 2374 0036 0121     		movs	r1, #1
 672:.\herkulex2.c ****             break;
 2375              		.loc 1 672 0
 2376 0038 08E0     		b	.L127
 2377              	.LVL196:
 2378              	.L126:
 673:.\herkulex2.c ****         case 4:
 674:.\herkulex2.c ****             red = 1;
 2379              		.loc 1 674 0
 2380 003a 4FF0010B 		mov	fp, #1
 663:.\herkulex2.c ****     int red = 0;
 2381              		.loc 1 663 0
 2382 003e 0023     		movs	r3, #0
 2383              	.LVL197:
 662:.\herkulex2.c ****     int green = 0;
 2384              		.loc 1 662 0
 2385 0040 1946     		mov	r1, r3
 675:.\herkulex2.c ****             break;
 2386              		.loc 1 675 0
 2387 0042 03E0     		b	.L127
 2388              	.LVL198:
 2389              	.L128:
 664:.\herkulex2.c ****     switch (LED) 
 2390              		.loc 1 664 0
 2391 0044 4FF0000B 		mov	fp, #0
 668:.\herkulex2.c ****             break;
 2392              		.loc 1 668 0
 2393 0048 0123     		movs	r3, #1
 2394              	.LVL199:
 662:.\herkulex2.c ****     int green = 0;
 2395              		.loc 1 662 0
 2396 004a 5946     		mov	r1, fp
 2397              	.LVL200:
 2398              	.L127:
 676:.\herkulex2.c ****     }
 677:.\herkulex2.c ****     
 678:.\herkulex2.c ****     int setValue = green * 4 + blue * 8 + red * 16;
 2399              		.loc 1 678 0
 2400 004c 03EB4103 		add	r3, r3, r1, lsl #1
 2401              	.LVL201:
 2402 0050 03EB8B0B 		add	fp, r3, fp, lsl #2
 2403              	.LVL202:
 2404 0054 4FEA8B0B 		lsl	fp, fp, #2
 2405              	.LVL203:
 679:.\herkulex2.c ****     
 680:.\herkulex2.c ****     playTime = (int)((float)time/11.2);
 2406              		.loc 1 680 0
 2407 0058 1046     		mov	r0, r2
 2408              	.LVL204:
 2409 005a FFF7FEFF 		bl	__aeabi_i2f
ARM GAS  C:\Users\EDTRIC~1\AppData\Local\Temp\ccXQQyjM.s 			page 56


 2410              	.LVL205:
 2411 005e FFF7FEFF 		bl	__aeabi_f2d
 2412              	.LVL206:
 2413 0062 4FF06632 		mov	r2, #1717986918
 2414 0066 234B     		ldr	r3, .L130
 2415 0068 FFF7FEFF 		bl	__aeabi_ddiv
 2416              	.LVL207:
 2417 006c FFF7FEFF 		bl	__aeabi_d2iz
 2418              	.LVL208:
 2419 0070 214F     		ldr	r7, .L130+4
 2420 0072 3860     		str	r0, [r7]
 681:.\herkulex2.c ****     
 682:.\herkulex2.c ****     pSize = 0x0C;
 2421              		.loc 1 682 0
 2422 0074 DFF89C90 		ldr	r9, .L130+32
 2423 0078 0C23     		movs	r3, #12
 2424 007a 89F80030 		strb	r3, [r9]
 683:.\herkulex2.c ****     cmd = S_JOG;
 2425              		.loc 1 683 0
 2426 007e DFF89880 		ldr	r8, .L130+36
 2427 0082 0623     		movs	r3, #6
 2428 0084 88F80030 		strb	r3, [r8]
 684:.\herkulex2.c ****     
 685:.\herkulex2.c ****     data[0] = posLSB;
 2429              		.loc 1 685 0
 2430 0088 1C4C     		ldr	r4, .L130+8
 2431 008a 2570     		strb	r5, [r4]
 686:.\herkulex2.c ****     data[1] = posMSB;
 2432              		.loc 1 686 0
 2433 008c 84F801A0 		strb	r10, [r4, #1]
 687:.\herkulex2.c ****     data[2] = setValue;
 2434              		.loc 1 687 0
 2435 0090 84F802B0 		strb	fp, [r4, #2]
 688:.\herkulex2.c ****     data[3] = servoID;
 2436              		.loc 1 688 0
 2437 0094 E670     		strb	r6, [r4, #3]
 689:.\herkulex2.c ****     
 690:.\herkulex2.c ****     pID = servoID ^ playTime;
 2438              		.loc 1 690 0
 2439 0096 1A4D     		ldr	r5, .L130+12
 2440              	.LVL209:
 2441 0098 7040     		eors	r0, r0, r6
 2442 009a 2870     		strb	r0, [r5]
 691:.\herkulex2.c ****     lengthString = 4;
 2443              		.loc 1 691 0
 2444 009c 0421     		movs	r1, #4
 2445 009e 194B     		ldr	r3, .L130+16
 2446 00a0 1970     		strb	r1, [r3]
 692:.\herkulex2.c ****     
 693:.\herkulex2.c ****     ck1 = checksum1( data , lengthString );
 2447              		.loc 1 693 0
 2448 00a2 2046     		mov	r0, r4
 2449 00a4 FFF7FEFF 		bl	checksum1
 2450              	.LVL210:
 2451 00a8 8246     		mov	r10, r0
 2452              	.LVL211:
 2453 00aa 174B     		ldr	r3, .L130+20
ARM GAS  C:\Users\EDTRIC~1\AppData\Local\Temp\ccXQQyjM.s 			page 57


 2454 00ac 1870     		strb	r0, [r3]
 694:.\herkulex2.c ****     ck2 = checksum2( ck1 );
 2455              		.loc 1 694 0
 2456 00ae FFF7FEFF 		bl	checksum2
 2457              	.LVL212:
 2458 00b2 164B     		ldr	r3, .L130+24
 2459 00b4 1870     		strb	r0, [r3]
 695:.\herkulex2.c ****     
 696:.\herkulex2.c ****     pID = servoID;
 2460              		.loc 1 696 0
 2461 00b6 2E70     		strb	r6, [r5]
 697:.\herkulex2.c ****     
 698:.\herkulex2.c ****     dataEx[0] = HEADER;
 2462              		.loc 1 698 0
 2463 00b8 154B     		ldr	r3, .L130+28
 2464 00ba FF22     		movs	r2, #255
 2465 00bc 1A70     		strb	r2, [r3]
 699:.\herkulex2.c ****     dataEx[1] = HEADER;
 2466              		.loc 1 699 0
 2467 00be 5A70     		strb	r2, [r3, #1]
 700:.\herkulex2.c ****     dataEx[2] = pSize;
 2468              		.loc 1 700 0
 2469 00c0 99F80010 		ldrb	r1, [r9]	@ zero_extendqisi2
 2470 00c4 9970     		strb	r1, [r3, #2]
 701:.\herkulex2.c ****     dataEx[3] = pID;
 2471              		.loc 1 701 0
 2472 00c6 DE70     		strb	r6, [r3, #3]
 702:.\herkulex2.c ****     dataEx[4] = cmd;
 2473              		.loc 1 702 0
 2474 00c8 98F80020 		ldrb	r2, [r8]	@ zero_extendqisi2
 2475 00cc 1A71     		strb	r2, [r3, #4]
 703:.\herkulex2.c ****     dataEx[5] = ck1;
 2476              		.loc 1 703 0
 2477 00ce 83F805A0 		strb	r10, [r3, #5]
 704:.\herkulex2.c ****     dataEx[6] = ck2;
 2478              		.loc 1 704 0
 2479 00d2 9871     		strb	r0, [r3, #6]
 705:.\herkulex2.c ****     dataEx[7] = playTime;
 2480              		.loc 1 705 0
 2481 00d4 3A68     		ldr	r2, [r7]
 2482 00d6 DA71     		strb	r2, [r3, #7]
 706:.\herkulex2.c ****     dataEx[8] = data[0];
 2483              		.loc 1 706 0
 2484 00d8 2278     		ldrb	r2, [r4]	@ zero_extendqisi2
 2485 00da 1A72     		strb	r2, [r3, #8]
 707:.\herkulex2.c ****     dataEx[9] = data[1];
 2486              		.loc 1 707 0
 2487 00dc 6278     		ldrb	r2, [r4, #1]	@ zero_extendqisi2
 2488 00de 5A72     		strb	r2, [r3, #9]
 708:.\herkulex2.c ****     dataEx[10] = data[2];
 2489              		.loc 1 708 0
 2490 00e0 A278     		ldrb	r2, [r4, #2]	@ zero_extendqisi2
 2491 00e2 9A72     		strb	r2, [r3, #10]
 709:.\herkulex2.c ****     dataEx[11] = data[3];
 2492              		.loc 1 709 0
 2493 00e4 E278     		ldrb	r2, [r4, #3]	@ zero_extendqisi2
 2494 00e6 DA72     		strb	r2, [r3, #11]
ARM GAS  C:\Users\EDTRIC~1\AppData\Local\Temp\ccXQQyjM.s 			page 58


 710:.\herkulex2.c ****     
 711:.\herkulex2.c ****     sendData( dataEx , pSize );
 2495              		.loc 1 711 0
 2496 00e8 1846     		mov	r0, r3
 2497 00ea FFF7FEFF 		bl	sendData
 2498              	.LVL213:
 2499              	.L122:
 2500 00ee BDE8F88F 		pop	{r3, r4, r5, r6, r7, r8, r9, r10, fp, pc}
 2501              	.L131:
 2502 00f2 00BF     		.align	2
 2503              	.L130:
 2504 00f4 66662640 		.word	1076258406
 2505 00f8 00000000 		.word	playTime
 2506 00fc 00000000 		.word	data
 2507 0100 00000000 		.word	pID
 2508 0104 00000000 		.word	lengthString
 2509 0108 00000000 		.word	ck1
 2510 010c 00000000 		.word	ck2
 2511 0110 00000000 		.word	dataEx
 2512 0114 00000000 		.word	pSize
 2513 0118 00000000 		.word	cmd
 2514              		.cfi_endproc
 2515              	.LFE87:
 2516              		.size	Servo_moveOne, .-Servo_moveOne
 2517              		.section	.text.Servo_moveOneAngle,"ax",%progbits
 2518              		.align	2
 2519              		.global	Servo_moveOneAngle
 2520              		.thumb
 2521              		.thumb_func
 2522              		.type	Servo_moveOneAngle, %function
 2523              	Servo_moveOneAngle:
 2524              	.LFB88:
 712:.\herkulex2.c **** }
 713:.\herkulex2.c **** 
 714:.\herkulex2.c **** void Servo_moveOneAngle( uint8 servoID , float angle , int time , uint8 LED )
 715:.\herkulex2.c **** {
 2525              		.loc 1 715 0
 2526              		.cfi_startproc
 2527              		@ args = 0, pretend = 0, frame = 0
 2528              		@ frame_needed = 0, uses_anonymous_args = 0
 2529              	.LVL214:
 2530 0000 F8B5     		push	{r3, r4, r5, r6, r7, lr}
 2531              		.cfi_def_cfa_offset 24
 2532              		.cfi_offset 3, -24
 2533              		.cfi_offset 4, -20
 2534              		.cfi_offset 5, -16
 2535              		.cfi_offset 6, -12
 2536              		.cfi_offset 7, -8
 2537              		.cfi_offset 14, -4
 2538 0002 0746     		mov	r7, r0
 2539 0004 0C46     		mov	r4, r1
 2540 0006 1646     		mov	r6, r2
 2541 0008 1D46     		mov	r5, r3
 716:.\herkulex2.c ****     if( angle > 160.0 || angle < -160.0 ) return;
 2542              		.loc 1 716 0
 2543 000a 0846     		mov	r0, r1
 2544              	.LVL215:
ARM GAS  C:\Users\EDTRIC~1\AppData\Local\Temp\ccXQQyjM.s 			page 59


 2545 000c 1049     		ldr	r1, .L135+8
 2546              	.LVL216:
 2547 000e FFF7FEFF 		bl	__aeabi_fcmpgt
 2548              	.LVL217:
 2549 0012 A8B9     		cbnz	r0, .L132
 2550              		.loc 1 716 0 is_stmt 0 discriminator 1
 2551 0014 2046     		mov	r0, r4
 2552 0016 0F49     		ldr	r1, .L135+12
 2553 0018 FFF7FEFF 		bl	__aeabi_fcmplt
 2554              	.LVL218:
 2555 001c 80B9     		cbnz	r0, .L132
 717:.\herkulex2.c ****     int position = (int)(angle/0.325) + 512;
 2556              		.loc 1 717 0 is_stmt 1
 2557 001e 2046     		mov	r0, r4
 2558 0020 FFF7FEFF 		bl	__aeabi_f2d
 2559              	.LVL219:
 2560 0024 08A3     		adr	r3, .L135
 2561 0026 D3E90023 		ldrd	r2, [r3]
 2562 002a FFF7FEFF 		bl	__aeabi_ddiv
 2563              	.LVL220:
 2564 002e FFF7FEFF 		bl	__aeabi_d2iz
 2565              	.LVL221:
 2566 0032 00F50071 		add	r1, r0, #512
 2567              	.LVL222:
 718:.\herkulex2.c ****     Servo_moveOne( servoID , position , time , LED );
 2568              		.loc 1 718 0
 2569 0036 3846     		mov	r0, r7
 2570 0038 3246     		mov	r2, r6
 2571 003a 2B46     		mov	r3, r5
 2572 003c FFF7FEFF 		bl	Servo_moveOne
 2573              	.LVL223:
 2574              	.L132:
 2575 0040 F8BD     		pop	{r3, r4, r5, r6, r7, pc}
 2576              	.LVL224:
 2577              	.L136:
 2578 0042 00BFAFF3 		.align	3
 2578      0080
 2579              	.L135:
 2580 0048 CDCCCCCC 		.word	-858993459
 2581 004c CCCCD43F 		.word	1070910668
 2582 0050 00002043 		.word	1126170624
 2583 0054 000020C3 		.word	-1021313024
 2584              		.cfi_endproc
 2585              	.LFE88:
 2586              		.size	Servo_moveOneAngle, .-Servo_moveOneAngle
 2587              		.section	.text.Servo_Start,"ax",%progbits
 2588              		.align	2
 2589              		.global	Servo_Start
 2590              		.thumb
 2591              		.thumb_func
 2592              		.type	Servo_Start, %function
 2593              	Servo_Start:
 2594              	.LFB69:
 118:.\herkulex2.c ****     conta = 0;
 2595              		.loc 1 118 0
 2596              		.cfi_startproc
 2597              		@ args = 0, pretend = 0, frame = 0
ARM GAS  C:\Users\EDTRIC~1\AppData\Local\Temp\ccXQQyjM.s 			page 60


 2598              		@ frame_needed = 0, uses_anonymous_args = 0
 2599 0000 10B5     		push	{r4, lr}
 2600              		.cfi_def_cfa_offset 8
 2601              		.cfi_offset 4, -8
 2602              		.cfi_offset 14, -4
 119:.\herkulex2.c ****     lengthString = 0;
 2603              		.loc 1 119 0
 2604 0002 0024     		movs	r4, #0
 2605 0004 194B     		ldr	r3, .L139
 2606 0006 1C70     		strb	r4, [r3]
 120:.\herkulex2.c ****     CyDelay(100);
 2607              		.loc 1 120 0
 2608 0008 194B     		ldr	r3, .L139+4
 2609 000a 1C70     		strb	r4, [r3]
 121:.\herkulex2.c ****     Servo_clearError(PIDALL);
 2610              		.loc 1 121 0
 2611 000c 6420     		movs	r0, #100
 2612 000e FFF7FEFF 		bl	CyDelay
 2613              	.LVL225:
 122:.\herkulex2.c ****     CyDelay(10);
 2614              		.loc 1 122 0
 2615 0012 FE20     		movs	r0, #254
 2616 0014 FFF7FEFF 		bl	Servo_clearError
 2617              	.LVL226:
 123:.\herkulex2.c ****     Servo_ACK(1);
 2618              		.loc 1 123 0
 2619 0018 0A20     		movs	r0, #10
 2620 001a FFF7FEFF 		bl	CyDelay
 2621              	.LVL227:
 124:.\herkulex2.c ****     CyDelay(10);
 2622              		.loc 1 124 0
 2623 001e 0120     		movs	r0, #1
 2624 0020 FFF7FEFF 		bl	Servo_ACK
 2625              	.LVL228:
 125:.\herkulex2.c ****     Servo_torqueON(PIDALL);
 2626              		.loc 1 125 0
 2627 0024 0A20     		movs	r0, #10
 2628 0026 FFF7FEFF 		bl	CyDelay
 2629              	.LVL229:
 126:.\herkulex2.c ****     CyDelay(10);
 2630              		.loc 1 126 0
 2631 002a FE20     		movs	r0, #254
 2632 002c FFF7FEFF 		bl	Servo_torqueON
 2633              	.LVL230:
 127:.\herkulex2.c ****     
 2634              		.loc 1 127 0
 2635 0030 0A20     		movs	r0, #10
 2636 0032 FFF7FEFF 		bl	CyDelay
 2637              	.LVL231:
 129:.\herkulex2.c ****     CyDelay(1200);
 2638              		.loc 1 129 0
 2639 0036 FE20     		movs	r0, #254
 2640 0038 0021     		movs	r1, #0
 2641 003a 4FF47A72 		mov	r2, #1000
 2642 003e 0423     		movs	r3, #4
 2643 0040 FFF7FEFF 		bl	Servo_moveOneAngle
 2644              	.LVL232:
ARM GAS  C:\Users\EDTRIC~1\AppData\Local\Temp\ccXQQyjM.s 			page 61


 130:.\herkulex2.c ****     Servo_setLED( PIDALL , LED_GREEN );
 2645              		.loc 1 130 0
 2646 0044 4FF49660 		mov	r0, #1200
 2647 0048 FFF7FEFF 		bl	CyDelay
 2648              	.LVL233:
 131:.\herkulex2.c ****     CyDelay(100);
 2649              		.loc 1 131 0
 2650 004c FE20     		movs	r0, #254
 2651 004e 0121     		movs	r1, #1
 2652 0050 FFF7FEFF 		bl	Servo_setLED
 2653              	.LVL234:
 132:.\herkulex2.c ****     Servo_setLED( PIDALL , 0 );
 2654              		.loc 1 132 0
 2655 0054 6420     		movs	r0, #100
 2656 0056 FFF7FEFF 		bl	CyDelay
 2657              	.LVL235:
 133:.\herkulex2.c ****     CyDelay(500);
 2658              		.loc 1 133 0
 2659 005a FE20     		movs	r0, #254
 2660 005c 2146     		mov	r1, r4
 2661 005e FFF7FEFF 		bl	Servo_setLED
 2662              	.LVL236:
 134:.\herkulex2.c **** }
 2663              		.loc 1 134 0
 2664 0062 4FF4FA70 		mov	r0, #500
 2665 0066 FFF7FEFF 		bl	CyDelay
 2666              	.LVL237:
 2667 006a 10BD     		pop	{r4, pc}
 2668              	.L140:
 2669              		.align	2
 2670              	.L139:
 2671 006c 00000000 		.word	conta
 2672 0070 00000000 		.word	lengthString
 2673              		.cfi_endproc
 2674              	.LFE69:
 2675              		.size	Servo_Start, .-Servo_Start
 2676              		.section	.text.Servo_moveSpeedOne,"ax",%progbits
 2677              		.align	2
 2678              		.global	Servo_moveSpeedOne
 2679              		.thumb
 2680              		.thumb_func
 2681              		.type	Servo_moveSpeedOne, %function
 2682              	Servo_moveSpeedOne:
 2683              	.LFB89:
 719:.\herkulex2.c **** }
 720:.\herkulex2.c **** 
 721:.\herkulex2.c **** void Servo_moveSpeedOne( uint8 servoID , int goal , int time , uint8 LED )
 722:.\herkulex2.c **** {
 2684              		.loc 1 722 0
 2685              		.cfi_startproc
 2686              		@ args = 0, pretend = 0, frame = 0
 2687              		@ frame_needed = 0, uses_anonymous_args = 0
 2688              	.LVL238:
 2689 0000 2DE9F84F 		push	{r3, r4, r5, r6, r7, r8, r9, r10, fp, lr}
 2690              		.cfi_def_cfa_offset 40
 2691              		.cfi_offset 3, -40
 2692              		.cfi_offset 4, -36
ARM GAS  C:\Users\EDTRIC~1\AppData\Local\Temp\ccXQQyjM.s 			page 62


 2693              		.cfi_offset 5, -32
 2694              		.cfi_offset 6, -28
 2695              		.cfi_offset 7, -24
 2696              		.cfi_offset 8, -20
 2697              		.cfi_offset 9, -16
 2698              		.cfi_offset 10, -12
 2699              		.cfi_offset 11, -8
 2700              		.cfi_offset 14, -4
 2701 0004 0D46     		mov	r5, r1
 723:.\herkulex2.c ****     /*if ( goal > 1023 || goal < -1023 ) return;
 724:.\herkulex2.c ****     if ( time < 0 || time > 2856 ) return;
 725:.\herkulex2.c ****     
 726:.\herkulex2.c ****     int goalSpeedSign;
 727:.\herkulex2.c ****     if ( goal < 0 ) {
 728:.\herkulex2.c ****         goalSpeedSign = (-1) * goal;
 729:.\herkulex2.c ****         goalSpeedSign |= 0x4000;
 730:.\herkulex2.c ****     }
 731:.\herkulex2.c ****     else {
 732:.\herkulex2.c ****         goalSpeedSign = goal;
 733:.\herkulex2.c ****     }
 734:.\herkulex2.c ****     
 735:.\herkulex2.c ****     int speedGoalLSB = goalSpeedSign & 0X00FF;
 736:.\herkulex2.c ****     int speedGoalMSB = ( goalSpeedSign & 0xFF00 ) >> 8;
 737:.\herkulex2.c **** 
 738:.\herkulex2.c ****     int blue = 0;
 739:.\herkulex2.c ****     int green = 0;
 740:.\herkulex2.c ****     int red = 0;
 741:.\herkulex2.c ****     switch (LED) {
 742:.\herkulex2.c ****         
 743:.\herkulex2.c ****         case 1:
 744:.\herkulex2.c ****             green = 1;
 745:.\herkulex2.c ****             break;
 746:.\herkulex2.c ****         case 2:
 747:.\herkulex2.c ****             blue = 1;
 748:.\herkulex2.c ****             break;
 749:.\herkulex2.c ****         case 4:
 750:.\herkulex2.c ****             red = 1;
 751:.\herkulex2.c ****             break;
 752:.\herkulex2.c ****     }
 753:.\herkulex2.c ****     
 754:.\herkulex2.c ****     int setValue = 2 + green * 4 + blue * 8 + red * 16;
 755:.\herkulex2.c **** 
 756:.\herkulex2.c ****     playTime = (int)((float)time/11.2);
 757:.\herkulex2.c **** 
 758:.\herkulex2.c ****     pSize = 0x0C;
 759:.\herkulex2.c ****     cmd = S_JOG;
 760:.\herkulex2.c **** 
 761:.\herkulex2.c ****     data[0] = speedGoalLSB;
 762:.\herkulex2.c ****     data[1] = speedGoalMSB;
 763:.\herkulex2.c ****     data[2] = setValue;
 764:.\herkulex2.c ****     data[3] = servoID;
 765:.\herkulex2.c **** 
 766:.\herkulex2.c ****     pID = servoID ^ playTime;
 767:.\herkulex2.c **** 
 768:.\herkulex2.c ****     lengthString = 4;
 769:.\herkulex2.c **** 
 770:.\herkulex2.c ****     ck1 = checksum1 ( data , lengthString );
ARM GAS  C:\Users\EDTRIC~1\AppData\Local\Temp\ccXQQyjM.s 			page 63


 771:.\herkulex2.c ****     ck2 = checksum2 ( ck1 );
 772:.\herkulex2.c **** 
 773:.\herkulex2.c ****     pID = servoID;
 774:.\herkulex2.c **** 
 775:.\herkulex2.c ****     dataEx[0] = HEADER;
 776:.\herkulex2.c ****     dataEx[1] = HEADER;
 777:.\herkulex2.c ****     dataEx[2] = pSize;
 778:.\herkulex2.c ****     dataEx[3] = pID;
 779:.\herkulex2.c ****     dataEx[4] = cmd;
 780:.\herkulex2.c ****     dataEx[5] = ck1;
 781:.\herkulex2.c ****     dataEx[6] = ck2;
 782:.\herkulex2.c ****     dataEx[7] = playTime;
 783:.\herkulex2.c ****     dataEx[8] = data[0];
 784:.\herkulex2.c ****     dataEx[9] = data[1];
 785:.\herkulex2.c ****     dataEx[10] = data[2];
 786:.\herkulex2.c ****     dataEx[11] = data[3];
 787:.\herkulex2.c **** 
 788:.\herkulex2.c ****     sendData ( dataEx , pSize );*/
 789:.\herkulex2.c ****     if( goal > 1023 || goal < -1023 ) return;
 2702              		.loc 1 789 0
 2703 0006 01F2FF34 		addw	r4, r1, #1023
 2704 000a 40F2FE71 		movw	r1, #2046
 2705              	.LVL239:
 2706 000e 8C42     		cmp	r4, r1
 2707 0010 72D8     		bhi	.L141
 2708 0012 0646     		mov	r6, r0
 790:.\herkulex2.c ****     if( time < 0 || time > 2856 ) return;
 2709              		.loc 1 790 0
 2710 0014 40F62831 		movw	r1, #2856
 2711 0018 8A42     		cmp	r2, r1
 2712 001a 6DD8     		bhi	.L141
 791:.\herkulex2.c ****     
 792:.\herkulex2.c ****     int goalSpeedSign;
 793:.\herkulex2.c ****     if ( goal < 0 ) 
 2713              		.loc 1 793 0
 2714 001c 002D     		cmp	r5, #0
 2715 001e 02DA     		bge	.L143
 794:.\herkulex2.c ****     {
 795:.\herkulex2.c ****         goalSpeedSign = (-1) * goal;
 2716              		.loc 1 795 0
 2717 0020 6D42     		negs	r5, r5
 2718              	.LVL240:
 796:.\herkulex2.c ****         goalSpeedSign |= 0x4000;
 2719              		.loc 1 796 0
 2720 0022 45F48045 		orr	r5, r5, #16384
 2721              	.LVL241:
 2722              	.L143:
 797:.\herkulex2.c ****     }
 798:.\herkulex2.c ****     else 
 799:.\herkulex2.c ****     {
 800:.\herkulex2.c ****         goalSpeedSign = goal;
 801:.\herkulex2.c ****     }
 802:.\herkulex2.c ****     
 803:.\herkulex2.c ****     int speedGoalLSB = goalSpeedSign & 0x00FF;
 804:.\herkulex2.c ****     int speedGoalMSB = ( goalSpeedSign & 0xFF00 ) >> 8;
 2723              		.loc 1 804 0
 2724 0026 C5F3072A 		ubfx	r10, r5, #8, #8
ARM GAS  C:\Users\EDTRIC~1\AppData\Local\Temp\ccXQQyjM.s 			page 64


 2725              	.LVL242:
 805:.\herkulex2.c **** 
 806:.\herkulex2.c ****     int blue = 0;
 807:.\herkulex2.c ****     int green = 0;
 808:.\herkulex2.c ****     int red = 0;
 809:.\herkulex2.c ****     switch (LED) 
 2726              		.loc 1 809 0
 2727 002a 022B     		cmp	r3, #2
 2728 002c 07D0     		beq	.L145
 2729 002e 042B     		cmp	r3, #4
 2730 0030 0AD0     		beq	.L146
 2731 0032 012B     		cmp	r3, #1
 2732 0034 0CD0     		beq	.L148
 808:.\herkulex2.c ****     switch (LED) 
 2733              		.loc 1 808 0
 2734 0036 0021     		movs	r1, #0
 807:.\herkulex2.c ****     int red = 0;
 2735              		.loc 1 807 0
 2736 0038 0B46     		mov	r3, r1
 2737              	.LVL243:
 806:.\herkulex2.c ****     int green = 0;
 2738              		.loc 1 806 0
 2739 003a 8B46     		mov	fp, r1
 2740 003c 0BE0     		b	.L147
 2741              	.LVL244:
 2742              	.L145:
 808:.\herkulex2.c ****     switch (LED) 
 2743              		.loc 1 808 0
 2744 003e 0021     		movs	r1, #0
 807:.\herkulex2.c ****     int red = 0;
 2745              		.loc 1 807 0
 2746 0040 0B46     		mov	r3, r1
 2747              	.LVL245:
 810:.\herkulex2.c ****     {
 811:.\herkulex2.c ****         case 1:
 812:.\herkulex2.c ****             green = 1;
 813:.\herkulex2.c ****             break;
 814:.\herkulex2.c ****         case 2:
 815:.\herkulex2.c ****             blue = 1;
 2748              		.loc 1 815 0
 2749 0042 4FF0010B 		mov	fp, #1
 816:.\herkulex2.c ****             break;
 2750              		.loc 1 816 0
 2751 0046 06E0     		b	.L147
 2752              	.LVL246:
 2753              	.L146:
 817:.\herkulex2.c ****         case 4:
 818:.\herkulex2.c ****             red = 1;
 2754              		.loc 1 818 0
 2755 0048 0121     		movs	r1, #1
 807:.\herkulex2.c ****     int red = 0;
 2756              		.loc 1 807 0
 2757 004a 0023     		movs	r3, #0
 2758              	.LVL247:
 806:.\herkulex2.c ****     int green = 0;
 2759              		.loc 1 806 0
 2760 004c 9B46     		mov	fp, r3
ARM GAS  C:\Users\EDTRIC~1\AppData\Local\Temp\ccXQQyjM.s 			page 65


 819:.\herkulex2.c ****             break;
 2761              		.loc 1 819 0
 2762 004e 02E0     		b	.L147
 2763              	.LVL248:
 2764              	.L148:
 808:.\herkulex2.c ****     switch (LED) 
 2765              		.loc 1 808 0
 2766 0050 0021     		movs	r1, #0
 812:.\herkulex2.c ****             break;
 2767              		.loc 1 812 0
 2768 0052 0123     		movs	r3, #1
 2769              	.LVL249:
 806:.\herkulex2.c ****     int green = 0;
 2770              		.loc 1 806 0
 2771 0054 8B46     		mov	fp, r1
 2772              	.LVL250:
 2773              	.L147:
 820:.\herkulex2.c ****     }
 821:.\herkulex2.c ****     
 822:.\herkulex2.c ****     int setValue = 2 + green * 4 + blue * 8 + red * 16;
 2774              		.loc 1 822 0
 2775 0056 9B00     		lsls	r3, r3, #2
 2776              	.LVL251:
 2777 0058 0233     		adds	r3, r3, #2
 2778 005a 03EBCB03 		add	r3, r3, fp, lsl #3
 2779 005e 03EB011B 		add	fp, r3, r1, lsl #4
 2780              	.LVL252:
 823:.\herkulex2.c ****     
 824:.\herkulex2.c ****     playTime = (int)((float)time/11.2);
 2781              		.loc 1 824 0
 2782 0062 1046     		mov	r0, r2
 2783              	.LVL253:
 2784 0064 FFF7FEFF 		bl	__aeabi_i2f
 2785              	.LVL254:
 2786 0068 FFF7FEFF 		bl	__aeabi_f2d
 2787              	.LVL255:
 2788 006c 4FF06632 		mov	r2, #1717986918
 2789 0070 224B     		ldr	r3, .L150
 2790 0072 FFF7FEFF 		bl	__aeabi_ddiv
 2791              	.LVL256:
 2792 0076 FFF7FEFF 		bl	__aeabi_d2iz
 2793              	.LVL257:
 2794 007a 214F     		ldr	r7, .L150+4
 2795 007c 3860     		str	r0, [r7]
 825:.\herkulex2.c ****     
 826:.\herkulex2.c ****     pSize = 0x0C;
 2796              		.loc 1 826 0
 2797 007e DFF89C90 		ldr	r9, .L150+32
 2798 0082 0C23     		movs	r3, #12
 2799 0084 89F80030 		strb	r3, [r9]
 827:.\herkulex2.c ****     cmd = S_JOG;
 2800              		.loc 1 827 0
 2801 0088 DFF89480 		ldr	r8, .L150+36
 2802 008c 0623     		movs	r3, #6
 2803 008e 88F80030 		strb	r3, [r8]
 828:.\herkulex2.c ****     
 829:.\herkulex2.c ****     data[0] = speedGoalLSB;
ARM GAS  C:\Users\EDTRIC~1\AppData\Local\Temp\ccXQQyjM.s 			page 66


 2804              		.loc 1 829 0
 2805 0092 1C4C     		ldr	r4, .L150+8
 2806              	.LVL258:
 2807 0094 2570     		strb	r5, [r4]
 830:.\herkulex2.c ****     data[1] = speedGoalMSB;
 2808              		.loc 1 830 0
 2809 0096 84F801A0 		strb	r10, [r4, #1]
 831:.\herkulex2.c ****     data[2] = setValue;
 2810              		.loc 1 831 0
 2811 009a 84F802B0 		strb	fp, [r4, #2]
 832:.\herkulex2.c ****     data[3] = servoID;
 2812              		.loc 1 832 0
 2813 009e E670     		strb	r6, [r4, #3]
 833:.\herkulex2.c ****     
 834:.\herkulex2.c ****     pID = servoID ^ playTime;
 2814              		.loc 1 834 0
 2815 00a0 194D     		ldr	r5, .L150+12
 2816              	.LVL259:
 2817 00a2 7040     		eors	r0, r0, r6
 2818 00a4 2870     		strb	r0, [r5]
 835:.\herkulex2.c ****     lengthString = 4;
 2819              		.loc 1 835 0
 2820 00a6 0421     		movs	r1, #4
 2821 00a8 184B     		ldr	r3, .L150+16
 2822 00aa 1970     		strb	r1, [r3]
 836:.\herkulex2.c ****     
 837:.\herkulex2.c ****     ck1 = checksum1( data , lengthString );
 2823              		.loc 1 837 0
 2824 00ac 2046     		mov	r0, r4
 2825 00ae FFF7FEFF 		bl	checksum1
 2826              	.LVL260:
 2827 00b2 8246     		mov	r10, r0
 2828              	.LVL261:
 2829 00b4 164B     		ldr	r3, .L150+20
 2830 00b6 1870     		strb	r0, [r3]
 838:.\herkulex2.c ****     ck2 = checksum2( ck1 );
 2831              		.loc 1 838 0
 2832 00b8 FFF7FEFF 		bl	checksum2
 2833              	.LVL262:
 2834 00bc 154B     		ldr	r3, .L150+24
 2835 00be 1870     		strb	r0, [r3]
 839:.\herkulex2.c ****     
 840:.\herkulex2.c ****     pID = servoID;
 2836              		.loc 1 840 0
 2837 00c0 2E70     		strb	r6, [r5]
 841:.\herkulex2.c ****     
 842:.\herkulex2.c ****     dataEx[0] = HEADER;
 2838              		.loc 1 842 0
 2839 00c2 154B     		ldr	r3, .L150+28
 2840 00c4 FF22     		movs	r2, #255
 2841 00c6 1A70     		strb	r2, [r3]
 843:.\herkulex2.c ****     dataEx[1] = HEADER;
 2842              		.loc 1 843 0
 2843 00c8 5A70     		strb	r2, [r3, #1]
 844:.\herkulex2.c ****     dataEx[2] = pSize;
 2844              		.loc 1 844 0
 2845 00ca 99F80010 		ldrb	r1, [r9]	@ zero_extendqisi2
ARM GAS  C:\Users\EDTRIC~1\AppData\Local\Temp\ccXQQyjM.s 			page 67


 2846 00ce 9970     		strb	r1, [r3, #2]
 845:.\herkulex2.c ****     dataEx[3] = pID;
 2847              		.loc 1 845 0
 2848 00d0 DE70     		strb	r6, [r3, #3]
 846:.\herkulex2.c ****     dataEx[4] = cmd;
 2849              		.loc 1 846 0
 2850 00d2 98F80020 		ldrb	r2, [r8]	@ zero_extendqisi2
 2851 00d6 1A71     		strb	r2, [r3, #4]
 847:.\herkulex2.c ****     dataEx[5] = ck1;
 2852              		.loc 1 847 0
 2853 00d8 83F805A0 		strb	r10, [r3, #5]
 848:.\herkulex2.c ****     dataEx[6] = ck2;
 2854              		.loc 1 848 0
 2855 00dc 9871     		strb	r0, [r3, #6]
 849:.\herkulex2.c ****     dataEx[7] = playTime;
 2856              		.loc 1 849 0
 2857 00de 3A68     		ldr	r2, [r7]
 2858 00e0 DA71     		strb	r2, [r3, #7]
 850:.\herkulex2.c ****     dataEx[8] = data[0];
 2859              		.loc 1 850 0
 2860 00e2 2278     		ldrb	r2, [r4]	@ zero_extendqisi2
 2861 00e4 1A72     		strb	r2, [r3, #8]
 851:.\herkulex2.c ****     dataEx[9] = data[1];
 2862              		.loc 1 851 0
 2863 00e6 6278     		ldrb	r2, [r4, #1]	@ zero_extendqisi2
 2864 00e8 5A72     		strb	r2, [r3, #9]
 852:.\herkulex2.c ****     dataEx[10] = data[2];
 2865              		.loc 1 852 0
 2866 00ea A278     		ldrb	r2, [r4, #2]	@ zero_extendqisi2
 2867 00ec 9A72     		strb	r2, [r3, #10]
 853:.\herkulex2.c ****     dataEx[11] = data[3];
 2868              		.loc 1 853 0
 2869 00ee E278     		ldrb	r2, [r4, #3]	@ zero_extendqisi2
 2870 00f0 DA72     		strb	r2, [r3, #11]
 854:.\herkulex2.c ****     
 855:.\herkulex2.c ****     sendData( dataEx , pSize );
 2871              		.loc 1 855 0
 2872 00f2 1846     		mov	r0, r3
 2873 00f4 FFF7FEFF 		bl	sendData
 2874              	.LVL263:
 2875              	.L141:
 2876 00f8 BDE8F88F 		pop	{r3, r4, r5, r6, r7, r8, r9, r10, fp, pc}
 2877              	.L151:
 2878              		.align	2
 2879              	.L150:
 2880 00fc 66662640 		.word	1076258406
 2881 0100 00000000 		.word	playTime
 2882 0104 00000000 		.word	data
 2883 0108 00000000 		.word	pID
 2884 010c 00000000 		.word	lengthString
 2885 0110 00000000 		.word	ck1
 2886 0114 00000000 		.word	ck2
 2887 0118 00000000 		.word	dataEx
 2888 011c 00000000 		.word	pSize
 2889 0120 00000000 		.word	cmd
 2890              		.cfi_endproc
 2891              	.LFE89:
ARM GAS  C:\Users\EDTRIC~1\AppData\Local\Temp\ccXQQyjM.s 			page 68


 2892              		.size	Servo_moveSpeedOne, .-Servo_moveSpeedOne
 2893              		.section	.text.Servo_writeRegistryRAM,"ax",%progbits
 2894              		.align	2
 2895              		.global	Servo_writeRegistryRAM
 2896              		.thumb
 2897              		.thumb_func
 2898              		.type	Servo_writeRegistryRAM, %function
 2899              	Servo_writeRegistryRAM:
 2900              	.LFB90:
 856:.\herkulex2.c **** }
 857:.\herkulex2.c **** 
 858:.\herkulex2.c **** void Servo_writeRegistryRAM( uint8 servoID , uint8 address , uint8 writeByte )
 859:.\herkulex2.c **** {
 2901              		.loc 1 859 0
 2902              		.cfi_startproc
 2903              		@ args = 0, pretend = 0, frame = 0
 2904              		@ frame_needed = 0, uses_anonymous_args = 0
 2905              	.LVL264:
 2906 0000 2DE9F041 		push	{r4, r5, r6, r7, r8, lr}
 2907              		.cfi_def_cfa_offset 24
 2908              		.cfi_offset 4, -24
 2909              		.cfi_offset 5, -20
 2910              		.cfi_offset 6, -16
 2911              		.cfi_offset 7, -12
 2912              		.cfi_offset 8, -8
 2913              		.cfi_offset 14, -4
 860:.\herkulex2.c ****     pSize = 0x0A;
 2914              		.loc 1 860 0
 2915 0004 DFF88480 		ldr	r8, .L154+28
 2916 0008 0A23     		movs	r3, #10
 2917 000a 88F80030 		strb	r3, [r8]
 861:.\herkulex2.c ****     pID = servoID;
 2918              		.loc 1 861 0
 2919 000e 184F     		ldr	r7, .L154
 2920 0010 3870     		strb	r0, [r7]
 862:.\herkulex2.c ****     cmd = RAM_WRITE;
 2921              		.loc 1 862 0
 2922 0012 184E     		ldr	r6, .L154+4
 2923 0014 0323     		movs	r3, #3
 2924 0016 3370     		strb	r3, [r6]
 863:.\herkulex2.c ****     data[0] = address;
 2925              		.loc 1 863 0
 2926 0018 174C     		ldr	r4, .L154+8
 2927 001a 2170     		strb	r1, [r4]
 864:.\herkulex2.c ****     data[1] = 0x01;
 2928              		.loc 1 864 0
 2929 001c 0121     		movs	r1, #1
 2930              	.LVL265:
 2931 001e 6170     		strb	r1, [r4, #1]
 865:.\herkulex2.c ****     data[2] = writeByte;
 2932              		.loc 1 865 0
 2933 0020 A270     		strb	r2, [r4, #2]
 866:.\herkulex2.c ****     lengthString = 3;
 2934              		.loc 1 866 0
 2935 0022 164A     		ldr	r2, .L154+12
 2936              	.LVL266:
 2937 0024 1370     		strb	r3, [r2]
ARM GAS  C:\Users\EDTRIC~1\AppData\Local\Temp\ccXQQyjM.s 			page 69


 867:.\herkulex2.c ****     
 868:.\herkulex2.c ****     ck1 = checksum1( data , lengthString );
 2938              		.loc 1 868 0
 2939 0026 2046     		mov	r0, r4
 2940              	.LVL267:
 2941 0028 1946     		mov	r1, r3
 2942 002a FFF7FEFF 		bl	checksum1
 2943              	.LVL268:
 2944 002e 0546     		mov	r5, r0
 2945 0030 134B     		ldr	r3, .L154+16
 2946 0032 1870     		strb	r0, [r3]
 869:.\herkulex2.c ****     ck2 = checksum2( ck1 );
 2947              		.loc 1 869 0
 2948 0034 FFF7FEFF 		bl	checksum2
 2949              	.LVL269:
 2950 0038 124B     		ldr	r3, .L154+20
 2951 003a 1870     		strb	r0, [r3]
 870:.\herkulex2.c ****     
 871:.\herkulex2.c ****     dataEx[0] = HEADER;
 2952              		.loc 1 871 0
 2953 003c 124B     		ldr	r3, .L154+24
 2954 003e FF22     		movs	r2, #255
 2955 0040 1A70     		strb	r2, [r3]
 872:.\herkulex2.c ****     dataEx[1] = HEADER;
 2956              		.loc 1 872 0
 2957 0042 5A70     		strb	r2, [r3, #1]
 873:.\herkulex2.c ****     dataEx[2] = pSize;
 2958              		.loc 1 873 0
 2959 0044 98F80010 		ldrb	r1, [r8]	@ zero_extendqisi2
 2960 0048 9970     		strb	r1, [r3, #2]
 874:.\herkulex2.c ****     dataEx[3] = pID;
 2961              		.loc 1 874 0
 2962 004a 3A78     		ldrb	r2, [r7]	@ zero_extendqisi2
 2963 004c DA70     		strb	r2, [r3, #3]
 875:.\herkulex2.c ****     dataEx[4] = cmd;
 2964              		.loc 1 875 0
 2965 004e 3278     		ldrb	r2, [r6]	@ zero_extendqisi2
 2966 0050 1A71     		strb	r2, [r3, #4]
 876:.\herkulex2.c ****     dataEx[5] = ck1;
 2967              		.loc 1 876 0
 2968 0052 5D71     		strb	r5, [r3, #5]
 877:.\herkulex2.c ****     dataEx[6] = ck2;
 2969              		.loc 1 877 0
 2970 0054 9871     		strb	r0, [r3, #6]
 878:.\herkulex2.c ****     dataEx[7] = data[0];
 2971              		.loc 1 878 0
 2972 0056 2278     		ldrb	r2, [r4]	@ zero_extendqisi2
 2973 0058 DA71     		strb	r2, [r3, #7]
 879:.\herkulex2.c ****     dataEx[8] = data[1];
 2974              		.loc 1 879 0
 2975 005a 6278     		ldrb	r2, [r4, #1]	@ zero_extendqisi2
 2976 005c 1A72     		strb	r2, [r3, #8]
 880:.\herkulex2.c ****     dataEx[9] = data[2];
 2977              		.loc 1 880 0
 2978 005e A278     		ldrb	r2, [r4, #2]	@ zero_extendqisi2
 2979 0060 5A72     		strb	r2, [r3, #9]
 881:.\herkulex2.c ****     dataEx[10] = data[3];
ARM GAS  C:\Users\EDTRIC~1\AppData\Local\Temp\ccXQQyjM.s 			page 70


 2980              		.loc 1 881 0
 2981 0062 E278     		ldrb	r2, [r4, #3]	@ zero_extendqisi2
 2982 0064 9A72     		strb	r2, [r3, #10]
 882:.\herkulex2.c ****     
 883:.\herkulex2.c ****     sendData( dataEx , pSize );
 2983              		.loc 1 883 0
 2984 0066 1846     		mov	r0, r3
 2985 0068 FFF7FEFF 		bl	sendData
 2986              	.LVL270:
 2987 006c BDE8F081 		pop	{r4, r5, r6, r7, r8, pc}
 2988              	.L155:
 2989              		.align	2
 2990              	.L154:
 2991 0070 00000000 		.word	pID
 2992 0074 00000000 		.word	cmd
 2993 0078 00000000 		.word	data
 2994 007c 00000000 		.word	lengthString
 2995 0080 00000000 		.word	ck1
 2996 0084 00000000 		.word	ck2
 2997 0088 00000000 		.word	dataEx
 2998 008c 00000000 		.word	pSize
 2999              		.cfi_endproc
 3000              	.LFE90:
 3001              		.size	Servo_writeRegistryRAM, .-Servo_writeRegistryRAM
 3002              		.section	.text.Servo_writeRegistryEEP,"ax",%progbits
 3003              		.align	2
 3004              		.global	Servo_writeRegistryEEP
 3005              		.thumb
 3006              		.thumb_func
 3007              		.type	Servo_writeRegistryEEP, %function
 3008              	Servo_writeRegistryEEP:
 3009              	.LFB91:
 884:.\herkulex2.c **** }
 885:.\herkulex2.c **** 
 886:.\herkulex2.c **** void Servo_writeRegistryEEP( uint8 servoID , uint8 address , uint8 writeByte )
 887:.\herkulex2.c **** {
 3010              		.loc 1 887 0
 3011              		.cfi_startproc
 3012              		@ args = 0, pretend = 0, frame = 0
 3013              		@ frame_needed = 0, uses_anonymous_args = 0
 3014              	.LVL271:
 3015 0000 2DE9F041 		push	{r4, r5, r6, r7, r8, lr}
 3016              		.cfi_def_cfa_offset 24
 3017              		.cfi_offset 4, -24
 3018              		.cfi_offset 5, -20
 3019              		.cfi_offset 6, -16
 3020              		.cfi_offset 7, -12
 3021              		.cfi_offset 8, -8
 3022              		.cfi_offset 14, -4
 888:.\herkulex2.c ****     pSize = 0x0A;
 3023              		.loc 1 888 0
 3024 0004 DFF88480 		ldr	r8, .L158+28
 3025 0008 0A23     		movs	r3, #10
 3026 000a 88F80030 		strb	r3, [r8]
 889:.\herkulex2.c ****     pID = servoID;
 3027              		.loc 1 889 0
 3028 000e 184F     		ldr	r7, .L158
ARM GAS  C:\Users\EDTRIC~1\AppData\Local\Temp\ccXQQyjM.s 			page 71


 3029 0010 3870     		strb	r0, [r7]
 890:.\herkulex2.c ****     cmd = EEP_WRITE;
 3030              		.loc 1 890 0
 3031 0012 184E     		ldr	r6, .L158+4
 3032 0014 0123     		movs	r3, #1
 3033 0016 3370     		strb	r3, [r6]
 891:.\herkulex2.c ****     data[0] = address;
 3034              		.loc 1 891 0
 3035 0018 174C     		ldr	r4, .L158+8
 3036 001a 2170     		strb	r1, [r4]
 892:.\herkulex2.c ****     data[1] = 0x01;
 3037              		.loc 1 892 0
 3038 001c 6370     		strb	r3, [r4, #1]
 893:.\herkulex2.c ****     data[2] = writeByte;
 3039              		.loc 1 893 0
 3040 001e A270     		strb	r2, [r4, #2]
 894:.\herkulex2.c ****     lengthString = 3;
 3041              		.loc 1 894 0
 3042 0020 0321     		movs	r1, #3
 3043              	.LVL272:
 3044 0022 164B     		ldr	r3, .L158+12
 3045 0024 1970     		strb	r1, [r3]
 895:.\herkulex2.c ****     
 896:.\herkulex2.c ****     ck1 = checksum1( data , lengthString );
 3046              		.loc 1 896 0
 3047 0026 2046     		mov	r0, r4
 3048              	.LVL273:
 3049 0028 FFF7FEFF 		bl	checksum1
 3050              	.LVL274:
 3051 002c 0546     		mov	r5, r0
 3052 002e 144B     		ldr	r3, .L158+16
 3053 0030 1870     		strb	r0, [r3]
 897:.\herkulex2.c ****     ck2 = checksum2( ck1 );
 3054              		.loc 1 897 0
 3055 0032 FFF7FEFF 		bl	checksum2
 3056              	.LVL275:
 3057 0036 134B     		ldr	r3, .L158+20
 3058 0038 1870     		strb	r0, [r3]
 898:.\herkulex2.c ****     
 899:.\herkulex2.c ****     dataEx[0] = HEADER;
 3059              		.loc 1 899 0
 3060 003a 134B     		ldr	r3, .L158+24
 3061 003c FF22     		movs	r2, #255
 3062 003e 1A70     		strb	r2, [r3]
 900:.\herkulex2.c ****     dataEx[1] = HEADER;
 3063              		.loc 1 900 0
 3064 0040 5A70     		strb	r2, [r3, #1]
 901:.\herkulex2.c ****     dataEx[2] = pSize;
 3065              		.loc 1 901 0
 3066 0042 98F80010 		ldrb	r1, [r8]	@ zero_extendqisi2
 3067 0046 9970     		strb	r1, [r3, #2]
 902:.\herkulex2.c ****     dataEx[3] = pID;
 3068              		.loc 1 902 0
 3069 0048 3A78     		ldrb	r2, [r7]	@ zero_extendqisi2
 3070 004a DA70     		strb	r2, [r3, #3]
 903:.\herkulex2.c ****     dataEx[4] = cmd;
 3071              		.loc 1 903 0
ARM GAS  C:\Users\EDTRIC~1\AppData\Local\Temp\ccXQQyjM.s 			page 72


 3072 004c 3278     		ldrb	r2, [r6]	@ zero_extendqisi2
 3073 004e 1A71     		strb	r2, [r3, #4]
 904:.\herkulex2.c ****     dataEx[5] = ck1;
 3074              		.loc 1 904 0
 3075 0050 5D71     		strb	r5, [r3, #5]
 905:.\herkulex2.c ****     dataEx[6] = ck2;
 3076              		.loc 1 905 0
 3077 0052 9871     		strb	r0, [r3, #6]
 906:.\herkulex2.c ****     dataEx[7] = data[0];
 3078              		.loc 1 906 0
 3079 0054 2278     		ldrb	r2, [r4]	@ zero_extendqisi2
 3080 0056 DA71     		strb	r2, [r3, #7]
 907:.\herkulex2.c ****     dataEx[8] = data[1];
 3081              		.loc 1 907 0
 3082 0058 6278     		ldrb	r2, [r4, #1]	@ zero_extendqisi2
 3083 005a 1A72     		strb	r2, [r3, #8]
 908:.\herkulex2.c ****     dataEx[9] = data[2];
 3084              		.loc 1 908 0
 3085 005c A278     		ldrb	r2, [r4, #2]	@ zero_extendqisi2
 3086 005e 5A72     		strb	r2, [r3, #9]
 909:.\herkulex2.c ****     dataEx[10] = data[3];
 3087              		.loc 1 909 0
 3088 0060 E278     		ldrb	r2, [r4, #3]	@ zero_extendqisi2
 3089 0062 9A72     		strb	r2, [r3, #10]
 910:.\herkulex2.c ****     
 911:.\herkulex2.c ****     sendData( dataEx , pSize );
 3090              		.loc 1 911 0
 3091 0064 1846     		mov	r0, r3
 3092 0066 FFF7FEFF 		bl	sendData
 3093              	.LVL276:
 3094 006a BDE8F081 		pop	{r4, r5, r6, r7, r8, pc}
 3095              	.L159:
 3096 006e 00BF     		.align	2
 3097              	.L158:
 3098 0070 00000000 		.word	pID
 3099 0074 00000000 		.word	cmd
 3100 0078 00000000 		.word	data
 3101 007c 00000000 		.word	lengthString
 3102 0080 00000000 		.word	ck1
 3103 0084 00000000 		.word	ck2
 3104 0088 00000000 		.word	dataEx
 3105 008c 00000000 		.word	pSize
 3106              		.cfi_endproc
 3107              	.LFE91:
 3108              		.size	Servo_writeRegistryEEP, .-Servo_writeRegistryEEP
 3109              		.comm	moveData,50,4
 3110              		.comm	dataEx,58,4
 3111              		.comm	data,30,4
 3112              		.comm	playTime,4,4
 3113              		.comm	XOR,1,1
 3114              		.comm	conta,1,1
 3115              		.comm	ck2,1,1
 3116              		.comm	ck1,1,1
 3117              		.comm	lengthString,1,1
 3118              		.comm	cmd,1,1
 3119              		.comm	pID,1,1
 3120              		.comm	pSize,1,1
ARM GAS  C:\Users\EDTRIC~1\AppData\Local\Temp\ccXQQyjM.s 			page 73


 3121              		.text
 3122              	.Letext0:
 3123              		.file 2 "c:\\program files (x86)\\cypress\\psoc creator\\3.3\\psoc creator\\import\\gnu\\arm\\4.9.
 3124              		.file 3 "c:\\program files (x86)\\cypress\\psoc creator\\3.3\\psoc creator\\import\\gnu\\arm\\4.9.
 3125              		.file 4 "Generated_Source\\PSoC5/cytypes.h"
 3126              		.file 5 "Generated_Source\\PSoC5/core_cm3.h"
 3127              		.file 6 "Generated_Source\\PSoC5/UART_SRV.h"
 3128              		.file 7 "Generated_Source\\PSoC5/CyLib.h"