ARM GAS  C:\Users\EDTRIC~1\AppData\Local\Temp\ccR9mJFt.s 			page 1


   1              		.syntax unified
   2              		.cpu cortex-m3
   3              		.fpu softvfp
   4              		.eabi_attribute 20, 1
   5              		.eabi_attribute 21, 1
   6              		.eabi_attribute 23, 3
   7              		.eabi_attribute 24, 1
   8              		.eabi_attribute 25, 1
   9              		.eabi_attribute 26, 1
  10              		.eabi_attribute 30, 1
  11              		.eabi_attribute 34, 1
  12              		.eabi_attribute 18, 4
  13              		.thumb
  14              		.file	"nimbelink.c"
  15              		.text
  16              	.Ltext0:
  17              		.cfi_sections	.debug_frame
  18              		.section	.text.RX_INT_Handler,"ax",%progbits
  19              		.align	2
  20              		.global	RX_INT_Handler
  21              		.thumb
  22              		.thumb_func
  23              		.type	RX_INT_Handler, %function
  24              	RX_INT_Handler:
  25              	.LFB63:
  26              		.file 1 ".\\nimbelink.c"
   1:.\nimbelink.c **** /* ========================================
   2:.\nimbelink.c ****  *
   3:.\nimbelink.c ****  * Copyright YOUR COMPANY, THE YEAR
   4:.\nimbelink.c ****  * All Rights Reserved
   5:.\nimbelink.c ****  * UNPUBLISHED, LICENSED SOFTWARE.
   6:.\nimbelink.c ****  *
   7:.\nimbelink.c ****  * CONFIDENTIAL AND PROPRIETARY INFORMATION
   8:.\nimbelink.c ****  * WHICH IS THE PROPERTY OF your company.
   9:.\nimbelink.c ****  *
  10:.\nimbelink.c ****  * ========================================
  11:.\nimbelink.c **** */
  12:.\nimbelink.c **** 
  13:.\nimbelink.c **** #include "nimbelink.h"
  14:.\nimbelink.c **** 
  15:.\nimbelink.c **** char cmd[12];
  16:.\nimbelink.c **** char param[50];
  17:.\nimbelink.c **** 
  18:.\nimbelink.c **** char msgUART[DATATXRX];
  19:.\nimbelink.c **** char recvdMsg[DATATXRX];
  20:.\nimbelink.c **** 
  21:.\nimbelink.c **** char msgParse[6][60];
  22:.\nimbelink.c **** char infoParse[6][20];
  23:.\nimbelink.c **** char * nltoken;
  24:.\nimbelink.c **** char * spctoken;
  25:.\nimbelink.c **** char * cmatoken;
  26:.\nimbelink.c **** char reply_num[13];
  27:.\nimbelink.c **** char sckt[2];
  28:.\nimbelink.c **** 
  29:.\nimbelink.c **** uint8 counter;
  30:.\nimbelink.c **** uint8 recByte;
  31:.\nimbelink.c **** 
ARM GAS  C:\Users\EDTRIC~1\AppData\Local\Temp\ccR9mJFt.s 			page 2


  32:.\nimbelink.c **** hostData GS;
  33:.\nimbelink.c **** 
  34:.\nimbelink.c **** CY_ISR( RX_INT_Handler )
  35:.\nimbelink.c **** {
  27              		.loc 1 35 0
  28              		.cfi_startproc
  29              		@ args = 0, pretend = 0, frame = 0
  30              		@ frame_needed = 0, uses_anonymous_args = 0
  31 0000 08B5     		push	{r3, lr}
  32              		.cfi_def_cfa_offset 8
  33              		.cfi_offset 3, -8
  34              		.cfi_offset 14, -4
  36:.\nimbelink.c ****     RX_ISR_ClearPending();
  35              		.loc 1 36 0
  36 0002 FFF7FEFF 		bl	RX_ISR_ClearPending
  37              	.LVL0:
  37:.\nimbelink.c ****     
  38:.\nimbelink.c ****     char recv;
  39:.\nimbelink.c ****     recv = UART_NL_GetChar();
  38              		.loc 1 39 0
  39 0006 FFF7FEFF 		bl	UART_NL_GetChar
  40              	.LVL1:
  41 000a 08BD     		pop	{r3, pc}
  42              		.cfi_endproc
  43              	.LFE63:
  44              		.size	RX_INT_Handler, .-RX_INT_Handler
  45              		.section	.text.substring,"ax",%progbits
  46              		.align	2
  47              		.global	substring
  48              		.thumb
  49              		.thumb_func
  50              		.type	substring, %function
  51              	substring:
  52              	.LFB64:
  40:.\nimbelink.c ****     
  41:.\nimbelink.c ****     if( recv != '$' ) return;
  42:.\nimbelink.c **** }
  43:.\nimbelink.c **** 
  44:.\nimbelink.c **** /*
  45:.\nimbelink.c ****     Searches for string StrToFind in the string MesToSearch
  46:.\nimbelink.c ****     using the string.h function strstr(). If the substring 
  47:.\nimbelink.c ****     is found, the returned pointer to the match is compared 
  48:.\nimbelink.c ****     to the original substring using the function strcmp(). 
  49:.\nimbelink.c ****     The substring function will then return a 1 if the 
  50:.\nimbelink.c ****     compared value is greater than or equal to 0 and 0 if 
  51:.\nimbelink.c ****     the value is less than 1.
  52:.\nimbelink.c **** */
  53:.\nimbelink.c **** uint8 substring( const char * MesToSearch , const char * StrToFind )
  54:.\nimbelink.c **** {
  53              		.loc 1 54 0
  54              		.cfi_startproc
  55              		@ args = 0, pretend = 0, frame = 0
  56              		@ frame_needed = 0, uses_anonymous_args = 0
  57              	.LVL2:
  58 0000 08B5     		push	{r3, lr}
  59              		.cfi_def_cfa_offset 8
  60              		.cfi_offset 3, -8
ARM GAS  C:\Users\EDTRIC~1\AppData\Local\Temp\ccR9mJFt.s 			page 3


  61              		.cfi_offset 14, -4
  55:.\nimbelink.c ****     char * result;
  56:.\nimbelink.c ****     result = strstr(MesToSearch,StrToFind);
  62              		.loc 1 56 0
  63 0002 FFF7FEFF 		bl	strstr
  64              	.LVL3:
  57:.\nimbelink.c ****     
  58:.\nimbelink.c ****     if( result == NULL ) return 0;
  65              		.loc 1 58 0
  66 0006 00B1     		cbz	r0, .L4
  59:.\nimbelink.c ****     else return 1;
  67              		.loc 1 59 0
  68 0008 0120     		movs	r0, #1
  69              	.LVL4:
  70              	.L4:
  60:.\nimbelink.c **** }
  71              		.loc 1 60 0
  72 000a 08BD     		pop	{r3, pc}
  73              		.cfi_endproc
  74              	.LFE64:
  75              		.size	substring, .-substring
  76              		.section	.text.msg_parse,"ax",%progbits
  77              		.align	2
  78              		.global	msg_parse
  79              		.thumb
  80              		.thumb_func
  81              		.type	msg_parse, %function
  82              	msg_parse:
  83              	.LFB65:
  61:.\nimbelink.c **** 
  62:.\nimbelink.c **** /*
  63:.\nimbelink.c ****     Takes the message that is stored in recvdMsg and parses 
  64:.\nimbelink.c ****     it into separate strings, stored in the array of strings 
  65:.\nimbelink.c ****     msgParse. It parses the message by using the string.h 
  66:.\nimbelink.c ****     function strtok(). It separates the message by each new 
  67:.\nimbelink.c ****     line that is present and ignores new lines that only have 
  68:.\nimbelink.c ****     a carriage return present.
  69:.\nimbelink.c **** */
  70:.\nimbelink.c **** void msg_parse( void )
  71:.\nimbelink.c **** {
  84              		.loc 1 71 0
  85              		.cfi_startproc
  86              		@ args = 0, pretend = 0, frame = 0
  87              		@ frame_needed = 0, uses_anonymous_args = 0
  88 0000 10B5     		push	{r4, lr}
  89              		.cfi_def_cfa_offset 8
  90              		.cfi_offset 4, -8
  91              		.cfi_offset 14, -4
  72:.\nimbelink.c ****     memset( msgParse , 0 , sizeof( msgParse ) );
  92              		.loc 1 72 0
  93 0002 174C     		ldr	r4, .L11
  94 0004 2046     		mov	r0, r4
  95 0006 0021     		movs	r1, #0
  96 0008 4FF4B472 		mov	r2, #360
  97 000c FFF7FEFF 		bl	memset
  98              	.LVL5:
  73:.\nimbelink.c ****     CyDelay(5);
ARM GAS  C:\Users\EDTRIC~1\AppData\Local\Temp\ccR9mJFt.s 			page 4


  99              		.loc 1 73 0
 100 0010 0520     		movs	r0, #5
 101 0012 FFF7FEFF 		bl	CyDelay
 102              	.LVL6:
  74:.\nimbelink.c ****     
  75:.\nimbelink.c ****     counter = 1;
 103              		.loc 1 75 0
 104 0016 0122     		movs	r2, #1
 105 0018 124B     		ldr	r3, .L11+4
 106 001a 1A70     		strb	r2, [r3]
  76:.\nimbelink.c ****     nltoken = strtok( recvdMsg , "\r\n" );
 107              		.loc 1 76 0
 108 001c 1248     		ldr	r0, .L11+8
 109 001e 1349     		ldr	r1, .L11+12
 110 0020 FFF7FEFF 		bl	strtok
 111              	.LVL7:
 112 0024 0146     		mov	r1, r0
 113 0026 124B     		ldr	r3, .L11+16
 114 0028 1860     		str	r0, [r3]
  77:.\nimbelink.c ****     strcpy( msgParse[0] , nltoken );
 115              		.loc 1 77 0
 116 002a 2046     		mov	r0, r4
 117 002c FFF7FEFF 		bl	strcpy
 118              	.LVL8:
  78:.\nimbelink.c ****     
  79:.\nimbelink.c ****     while( nltoken != NULL )
 119              		.loc 1 79 0
 120 0030 11E0     		b	.L8
 121              	.L9:
  80:.\nimbelink.c ****     {
  81:.\nimbelink.c ****         nltoken = strtok( NULL , "\r\n" );
 122              		.loc 1 81 0
 123 0032 0020     		movs	r0, #0
 124 0034 0D49     		ldr	r1, .L11+12
 125 0036 FFF7FEFF 		bl	strtok
 126              	.LVL9:
 127 003a 0146     		mov	r1, r0
 128 003c 0C4B     		ldr	r3, .L11+16
 129 003e 1860     		str	r0, [r3]
  82:.\nimbelink.c ****         strcpy( msgParse[counter++] , nltoken );
 130              		.loc 1 82 0
 131 0040 084B     		ldr	r3, .L11+4
 132 0042 1878     		ldrb	r0, [r3]	@ zero_extendqisi2
 133 0044 421C     		adds	r2, r0, #1
 134 0046 1A70     		strb	r2, [r3]
 135 0048 C0EB0010 		rsb	r0, r0, r0, lsl #4
 136 004c 8000     		lsls	r0, r0, #2
 137 004e 044B     		ldr	r3, .L11
 138 0050 1844     		add	r0, r0, r3
 139 0052 FFF7FEFF 		bl	strcpy
 140              	.LVL10:
 141              	.L8:
  79:.\nimbelink.c ****     {
 142              		.loc 1 79 0
 143 0056 064B     		ldr	r3, .L11+16
 144 0058 1B68     		ldr	r3, [r3]
 145 005a 002B     		cmp	r3, #0
ARM GAS  C:\Users\EDTRIC~1\AppData\Local\Temp\ccR9mJFt.s 			page 5


 146 005c E9D1     		bne	.L9
  83:.\nimbelink.c ****     }
  84:.\nimbelink.c **** }
 147              		.loc 1 84 0
 148 005e 10BD     		pop	{r4, pc}
 149              	.L12:
 150              		.align	2
 151              	.L11:
 152 0060 00000000 		.word	msgParse
 153 0064 00000000 		.word	counter
 154 0068 00000000 		.word	recvdMsg
 155 006c 00000000 		.word	.LC0
 156 0070 00000000 		.word	nltoken
 157              		.cfi_endproc
 158              	.LFE65:
 159              		.size	msg_parse, .-msg_parse
 160              		.section	.text.data_parse,"ax",%progbits
 161              		.align	2
 162              		.global	data_parse
 163              		.thumb
 164              		.thumb_func
 165              		.type	data_parse, %function
 166              	data_parse:
 167              	.LFB66:
  85:.\nimbelink.c **** 
  86:.\nimbelink.c **** /*
  87:.\nimbelink.c ****     Takes the array of strings that was previously filled 
  88:.\nimbelink.c ****     by msg_parse and further divides the strings by spaces 
  89:.\nimbelink.c ****     and by carriage returns. For now, this function is meant 
  90:.\nimbelink.c ****     to extract the SRING data coming from the modem, e.g. 
  91:.\nimbelink.c ****     "SRING: 1,17" where "1,17" would be the relavant data.
  92:.\nimbelink.c **** */
  93:.\nimbelink.c **** void data_parse( uint8 type )
  94:.\nimbelink.c **** {
 168              		.loc 1 94 0
 169              		.cfi_startproc
 170              		@ args = 0, pretend = 0, frame = 0
 171              		@ frame_needed = 0, uses_anonymous_args = 0
 172              	.LVL11:
 173 0000 70B5     		push	{r4, r5, r6, lr}
 174              		.cfi_def_cfa_offset 16
 175              		.cfi_offset 4, -16
 176              		.cfi_offset 5, -12
 177              		.cfi_offset 6, -8
 178              		.cfi_offset 14, -4
 179 0002 0546     		mov	r5, r0
  95:.\nimbelink.c ****     memset( infoParse , 0 , sizeof( infoParse ) );
 180              		.loc 1 95 0
 181 0004 2E48     		ldr	r0, .L21
 182              	.LVL12:
 183 0006 0021     		movs	r1, #0
 184 0008 7822     		movs	r2, #120
 185 000a FFF7FEFF 		bl	memset
 186              	.LVL13:
  96:.\nimbelink.c ****     CyDelay(5);
 187              		.loc 1 96 0
 188 000e 0520     		movs	r0, #5
ARM GAS  C:\Users\EDTRIC~1\AppData\Local\Temp\ccR9mJFt.s 			page 6


 189 0010 FFF7FEFF 		bl	CyDelay
 190              	.LVL14:
  97:.\nimbelink.c **** 
  98:.\nimbelink.c ****     if( type == P2P )
 191              		.loc 1 98 0
 192 0014 002D     		cmp	r5, #0
 193 0016 30D1     		bne	.L14
  99:.\nimbelink.c ****     {
 100:.\nimbelink.c ****         spctoken = strtok( msgParse[0] , " " );
 194              		.loc 1 100 0
 195 0018 2A4E     		ldr	r6, .L21+4
 196 001a 2B48     		ldr	r0, .L21+8
 197 001c 3146     		mov	r1, r6
 198 001e FFF7FEFF 		bl	strtok
 199              	.LVL15:
 200 0022 2A4C     		ldr	r4, .L21+12
 201 0024 2060     		str	r0, [r4]
 101:.\nimbelink.c ****         spctoken = strtok( NULL , " " );
 202              		.loc 1 101 0
 203 0026 0020     		movs	r0, #0
 204 0028 3146     		mov	r1, r6
 205 002a FFF7FEFF 		bl	strtok
 206              	.LVL16:
 207 002e 0146     		mov	r1, r0
 208 0030 2060     		str	r0, [r4]
 102:.\nimbelink.c ****         strcpy( infoParse[0] , spctoken );
 209              		.loc 1 102 0
 210 0032 234C     		ldr	r4, .L21
 211 0034 2046     		mov	r0, r4
 212 0036 FFF7FEFF 		bl	strcpy
 213              	.LVL17:
 103:.\nimbelink.c ****         
 104:.\nimbelink.c ****         cmatoken = strtok( infoParse[0] , "," );
 214              		.loc 1 104 0
 215 003a 2046     		mov	r0, r4
 216 003c 2449     		ldr	r1, .L21+16
 217 003e FFF7FEFF 		bl	strtok
 218              	.LVL18:
 219 0042 244B     		ldr	r3, .L21+20
 220 0044 1860     		str	r0, [r3]
 105:.\nimbelink.c ****         for( counter = 1 ; counter < 6 ; counter++ )
 221              		.loc 1 105 0
 222 0046 0122     		movs	r2, #1
 223 0048 234B     		ldr	r3, .L21+24
 224 004a 1A70     		strb	r2, [r3]
 225 004c 11E0     		b	.L15
 226              	.L16:
 106:.\nimbelink.c ****         {
 107:.\nimbelink.c ****             strcpy( infoParse[counter] , cmatoken );
 227              		.loc 1 107 0 discriminator 3
 228 004e 00EB8000 		add	r0, r0, r0, lsl #2
 229 0052 8000     		lsls	r0, r0, #2
 230 0054 1F4C     		ldr	r4, .L21+20
 231 0056 1A4B     		ldr	r3, .L21
 232 0058 1844     		add	r0, r0, r3
 233 005a 2168     		ldr	r1, [r4]
 234 005c FFF7FEFF 		bl	strcpy
ARM GAS  C:\Users\EDTRIC~1\AppData\Local\Temp\ccR9mJFt.s 			page 7


 235              	.LVL19:
 108:.\nimbelink.c ****             cmatoken = strtok( NULL , "," );
 236              		.loc 1 108 0 discriminator 3
 237 0060 0020     		movs	r0, #0
 238 0062 1B49     		ldr	r1, .L21+16
 239 0064 FFF7FEFF 		bl	strtok
 240              	.LVL20:
 241 0068 2060     		str	r0, [r4]
 105:.\nimbelink.c ****         for( counter = 1 ; counter < 6 ; counter++ )
 242              		.loc 1 105 0 discriminator 3
 243 006a 1B4A     		ldr	r2, .L21+24
 244 006c 1378     		ldrb	r3, [r2]	@ zero_extendqisi2
 245 006e 0133     		adds	r3, r3, #1
 246 0070 1370     		strb	r3, [r2]
 247              	.L15:
 105:.\nimbelink.c ****         for( counter = 1 ; counter < 6 ; counter++ )
 248              		.loc 1 105 0 is_stmt 0 discriminator 1
 249 0072 194B     		ldr	r3, .L21+24
 250 0074 1878     		ldrb	r0, [r3]	@ zero_extendqisi2
 251 0076 0528     		cmp	r0, #5
 252 0078 E9D9     		bls	.L16
 253              	.L14:
 109:.\nimbelink.c ****         }
 110:.\nimbelink.c ****     }
 111:.\nimbelink.c ****     
 112:.\nimbelink.c ****     if( type == SMS )
 254              		.loc 1 112 0 is_stmt 1
 255 007a 012D     		cmp	r5, #1
 256 007c 1FD1     		bne	.L13
 113:.\nimbelink.c ****     {
 114:.\nimbelink.c ****         cmatoken = strtok( msgParse[0] , "," );
 257              		.loc 1 114 0
 258 007e 1248     		ldr	r0, .L21+8
 259 0080 1349     		ldr	r1, .L21+16
 260 0082 FFF7FEFF 		bl	strtok
 261              	.LVL21:
 262 0086 134B     		ldr	r3, .L21+20
 263 0088 1860     		str	r0, [r3]
 115:.\nimbelink.c ****         for( counter = 0 ; counter < 6 ; counter++ )
 264              		.loc 1 115 0
 265 008a 0022     		movs	r2, #0
 266 008c 124B     		ldr	r3, .L21+24
 267 008e 1A70     		strb	r2, [r3]
 268 0090 11E0     		b	.L18
 269              	.L19:
 116:.\nimbelink.c ****         {
 117:.\nimbelink.c ****             strcpy( infoParse[counter] , cmatoken );
 270              		.loc 1 117 0 discriminator 3
 271 0092 00EB8000 		add	r0, r0, r0, lsl #2
 272 0096 8000     		lsls	r0, r0, #2
 273 0098 0E4C     		ldr	r4, .L21+20
 274 009a 094B     		ldr	r3, .L21
 275 009c 1844     		add	r0, r0, r3
 276 009e 2168     		ldr	r1, [r4]
 277 00a0 FFF7FEFF 		bl	strcpy
 278              	.LVL22:
 118:.\nimbelink.c ****             cmatoken = strtok( NULL , "," );
ARM GAS  C:\Users\EDTRIC~1\AppData\Local\Temp\ccR9mJFt.s 			page 8


 279              		.loc 1 118 0 discriminator 3
 280 00a4 0020     		movs	r0, #0
 281 00a6 0A49     		ldr	r1, .L21+16
 282 00a8 FFF7FEFF 		bl	strtok
 283              	.LVL23:
 284 00ac 2060     		str	r0, [r4]
 115:.\nimbelink.c ****         for( counter = 0 ; counter < 6 ; counter++ )
 285              		.loc 1 115 0 discriminator 3
 286 00ae 0A4A     		ldr	r2, .L21+24
 287 00b0 1378     		ldrb	r3, [r2]	@ zero_extendqisi2
 288 00b2 0133     		adds	r3, r3, #1
 289 00b4 1370     		strb	r3, [r2]
 290              	.L18:
 115:.\nimbelink.c ****         for( counter = 0 ; counter < 6 ; counter++ )
 291              		.loc 1 115 0 is_stmt 0 discriminator 1
 292 00b6 084B     		ldr	r3, .L21+24
 293 00b8 1878     		ldrb	r0, [r3]	@ zero_extendqisi2
 294 00ba 0528     		cmp	r0, #5
 295 00bc E9D9     		bls	.L19
 296              	.L13:
 297 00be 70BD     		pop	{r4, r5, r6, pc}
 298              	.L22:
 299              		.align	2
 300              	.L21:
 301 00c0 00000000 		.word	infoParse
 302 00c4 04000000 		.word	.LC1
 303 00c8 00000000 		.word	msgParse
 304 00cc 00000000 		.word	spctoken
 305 00d0 08000000 		.word	.LC2
 306 00d4 00000000 		.word	cmatoken
 307 00d8 00000000 		.word	counter
 308              		.cfi_endproc
 309              	.LFE66:
 310              		.size	data_parse, .-data_parse
 311              		.section	.text.clearCMD,"ax",%progbits
 312              		.align	2
 313              		.global	clearCMD
 314              		.thumb
 315              		.thumb_func
 316              		.type	clearCMD, %function
 317              	clearCMD:
 318              	.LFB67:
 119:.\nimbelink.c ****         }
 120:.\nimbelink.c ****     }
 121:.\nimbelink.c **** }
 122:.\nimbelink.c **** 
 123:.\nimbelink.c **** inline void clearCMD( void )
 124:.\nimbelink.c **** {
 319              		.loc 1 124 0 is_stmt 1
 320              		.cfi_startproc
 321              		@ args = 0, pretend = 0, frame = 0
 322              		@ frame_needed = 0, uses_anonymous_args = 0
 323 0000 08B5     		push	{r3, lr}
 324              		.cfi_def_cfa_offset 8
 325              		.cfi_offset 3, -8
 326              		.cfi_offset 14, -4
 125:.\nimbelink.c ****     memset( cmd , 0 , sizeof( cmd ) ); 
ARM GAS  C:\Users\EDTRIC~1\AppData\Local\Temp\ccR9mJFt.s 			page 9


 327              		.loc 1 125 0
 328 0002 0F49     		ldr	r1, .L25
 329 0004 0B46     		mov	r3, r1
 330 0006 0022     		movs	r2, #0
 331 0008 03F8012B 		strb	r2, [r3], #1
 332 000c 4A70     		strb	r2, [r1, #1]
 333 000e 0133     		adds	r3, r3, #1
 334 0010 03F8012B 		strb	r2, [r3], #1
 335 0014 03F8012B 		strb	r2, [r3], #1
 336 0018 03F8012B 		strb	r2, [r3], #1
 337 001c 03F8012B 		strb	r2, [r3], #1
 338 0020 03F8012B 		strb	r2, [r3], #1
 339 0024 03F8012B 		strb	r2, [r3], #1
 340 0028 03F8012B 		strb	r2, [r3], #1
 341 002c 03F8012B 		strb	r2, [r3], #1
 342 0030 03F8012B 		strb	r2, [r3], #1
 343 0034 1A70     		strb	r2, [r3]
 126:.\nimbelink.c ****     CyDelay(10);
 344              		.loc 1 126 0
 345 0036 0A20     		movs	r0, #10
 346 0038 FFF7FEFF 		bl	CyDelay
 347              	.LVL24:
 348 003c 08BD     		pop	{r3, pc}
 349              	.L26:
 350 003e 00BF     		.align	2
 351              	.L25:
 352 0040 00000000 		.word	cmd
 353              		.cfi_endproc
 354              	.LFE67:
 355              		.size	clearCMD, .-clearCMD
 356              		.section	.text.clearPARAM,"ax",%progbits
 357              		.align	2
 358              		.global	clearPARAM
 359              		.thumb
 360              		.thumb_func
 361              		.type	clearPARAM, %function
 362              	clearPARAM:
 363              	.LFB68:
 127:.\nimbelink.c **** }
 128:.\nimbelink.c **** 
 129:.\nimbelink.c **** inline void clearPARAM( void )
 130:.\nimbelink.c **** {
 364              		.loc 1 130 0
 365              		.cfi_startproc
 366              		@ args = 0, pretend = 0, frame = 0
 367              		@ frame_needed = 0, uses_anonymous_args = 0
 368 0000 08B5     		push	{r3, lr}
 369              		.cfi_def_cfa_offset 8
 370              		.cfi_offset 3, -8
 371              		.cfi_offset 14, -4
 131:.\nimbelink.c ****     memset( param , 0 , sizeof( param ) ); 
 372              		.loc 1 131 0
 373 0002 0448     		ldr	r0, .L29
 374 0004 0021     		movs	r1, #0
 375 0006 3222     		movs	r2, #50
 376 0008 FFF7FEFF 		bl	memset
 377              	.LVL25:
ARM GAS  C:\Users\EDTRIC~1\AppData\Local\Temp\ccR9mJFt.s 			page 10


 132:.\nimbelink.c ****     CyDelay(10);
 378              		.loc 1 132 0
 379 000c 0A20     		movs	r0, #10
 380 000e FFF7FEFF 		bl	CyDelay
 381              	.LVL26:
 382 0012 08BD     		pop	{r3, pc}
 383              	.L30:
 384              		.align	2
 385              	.L29:
 386 0014 00000000 		.word	param
 387              		.cfi_endproc
 388              	.LFE68:
 389              		.size	clearPARAM, .-clearPARAM
 390              		.section	.text.writeCMD,"ax",%progbits
 391              		.align	2
 392              		.global	writeCMD
 393              		.thumb
 394              		.thumb_func
 395              		.type	writeCMD, %function
 396              	writeCMD:
 397              	.LFB69:
 133:.\nimbelink.c **** }
 134:.\nimbelink.c **** 
 135:.\nimbelink.c **** void writeCMD( char * command )
 136:.\nimbelink.c **** {
 398              		.loc 1 136 0
 399              		.cfi_startproc
 400              		@ args = 0, pretend = 0, frame = 0
 401              		@ frame_needed = 0, uses_anonymous_args = 0
 402              	.LVL27:
 403 0000 10B5     		push	{r4, lr}
 404              		.cfi_def_cfa_offset 8
 405              		.cfi_offset 4, -8
 406              		.cfi_offset 14, -4
 407 0002 0446     		mov	r4, r0
 137:.\nimbelink.c ****     uint8 cmd_len = strlen(cmd);
 408              		.loc 1 137 0
 409 0004 1348     		ldr	r0, .L34
 410              	.LVL28:
 411 0006 FFF7FEFF 		bl	strlen
 412              	.LVL29:
 413 000a C0B2     		uxtb	r0, r0
 414              	.LVL30:
 138:.\nimbelink.c ****     
 139:.\nimbelink.c ****     if( cmd_len > 0 ) clearCMD();
 415              		.loc 1 139 0
 416 000c E0B1     		cbz	r0, .L32
 417              	.LBB16:
 418              	.LBB17:
 125:.\nimbelink.c ****     CyDelay(10);
 419              		.loc 1 125 0
 420 000e 1149     		ldr	r1, .L34
 421 0010 0B46     		mov	r3, r1
 422 0012 0022     		movs	r2, #0
 423 0014 03F8012B 		strb	r2, [r3], #1
 424 0018 4A70     		strb	r2, [r1, #1]
 425 001a 0133     		adds	r3, r3, #1
ARM GAS  C:\Users\EDTRIC~1\AppData\Local\Temp\ccR9mJFt.s 			page 11


 426 001c 03F8012B 		strb	r2, [r3], #1
 427 0020 03F8012B 		strb	r2, [r3], #1
 428 0024 03F8012B 		strb	r2, [r3], #1
 429 0028 03F8012B 		strb	r2, [r3], #1
 430 002c 03F8012B 		strb	r2, [r3], #1
 431 0030 03F8012B 		strb	r2, [r3], #1
 432 0034 03F8012B 		strb	r2, [r3], #1
 433 0038 03F8012B 		strb	r2, [r3], #1
 434 003c 03F8012B 		strb	r2, [r3], #1
 435 0040 1A70     		strb	r2, [r3]
 126:.\nimbelink.c **** }
 436              		.loc 1 126 0
 437 0042 0A20     		movs	r0, #10
 438              	.LVL31:
 439 0044 FFF7FEFF 		bl	CyDelay
 440              	.LVL32:
 441              	.L32:
 442              	.LBE17:
 443              	.LBE16:
 140:.\nimbelink.c ****     
 141:.\nimbelink.c ****     strcpy( cmd , command );
 444              		.loc 1 141 0
 445 0048 0248     		ldr	r0, .L34
 446 004a 2146     		mov	r1, r4
 447 004c FFF7FEFF 		bl	strcpy
 448              	.LVL33:
 449 0050 10BD     		pop	{r4, pc}
 450              	.LVL34:
 451              	.L35:
 452 0052 00BF     		.align	2
 453              	.L34:
 454 0054 00000000 		.word	cmd
 455              		.cfi_endproc
 456              	.LFE69:
 457              		.size	writeCMD, .-writeCMD
 458              		.section	.text.writePARAM,"ax",%progbits
 459              		.align	2
 460              		.global	writePARAM
 461              		.thumb
 462              		.thumb_func
 463              		.type	writePARAM, %function
 464              	writePARAM:
 465              	.LFB70:
 142:.\nimbelink.c **** }
 143:.\nimbelink.c **** 
 144:.\nimbelink.c **** void writePARAM( char * _param )
 145:.\nimbelink.c **** {
 466              		.loc 1 145 0
 467              		.cfi_startproc
 468              		@ args = 0, pretend = 0, frame = 0
 469              		@ frame_needed = 0, uses_anonymous_args = 0
 470              	.LVL35:
 471 0000 10B5     		push	{r4, lr}
 472              		.cfi_def_cfa_offset 8
 473              		.cfi_offset 4, -8
 474              		.cfi_offset 14, -4
 475 0002 0446     		mov	r4, r0
ARM GAS  C:\Users\EDTRIC~1\AppData\Local\Temp\ccR9mJFt.s 			page 12


 146:.\nimbelink.c ****     uint8 data_len = strlen(param);
 476              		.loc 1 146 0
 477 0004 0848     		ldr	r0, .L39
 478              	.LVL36:
 479 0006 FFF7FEFF 		bl	strlen
 480              	.LVL37:
 481 000a C0B2     		uxtb	r0, r0
 482              	.LVL38:
 147:.\nimbelink.c ****     
 148:.\nimbelink.c ****     if( data_len > 0 ) clearPARAM();
 483              		.loc 1 148 0
 484 000c 38B1     		cbz	r0, .L37
 485              	.LBB20:
 486              	.LBB21:
 131:.\nimbelink.c ****     CyDelay(10);
 487              		.loc 1 131 0
 488 000e 0648     		ldr	r0, .L39
 489              	.LVL39:
 490 0010 0021     		movs	r1, #0
 491 0012 3222     		movs	r2, #50
 492 0014 FFF7FEFF 		bl	memset
 493              	.LVL40:
 132:.\nimbelink.c **** }
 494              		.loc 1 132 0
 495 0018 0A20     		movs	r0, #10
 496 001a FFF7FEFF 		bl	CyDelay
 497              	.LVL41:
 498              	.L37:
 499              	.LBE21:
 500              	.LBE20:
 149:.\nimbelink.c ****     
 150:.\nimbelink.c ****     strcpy( param , _param );
 501              		.loc 1 150 0
 502 001e 0248     		ldr	r0, .L39
 503 0020 2146     		mov	r1, r4
 504 0022 FFF7FEFF 		bl	strcpy
 505              	.LVL42:
 506 0026 10BD     		pop	{r4, pc}
 507              	.LVL43:
 508              	.L40:
 509              		.align	2
 510              	.L39:
 511 0028 00000000 		.word	param
 512              		.cfi_endproc
 513              	.LFE70:
 514              		.size	writePARAM, .-writePARAM
 515              		.section	.text.addPARAM,"ax",%progbits
 516              		.align	2
 517              		.global	addPARAM
 518              		.thumb
 519              		.thumb_func
 520              		.type	addPARAM, %function
 521              	addPARAM:
 522              	.LFB71:
 151:.\nimbelink.c **** }
 152:.\nimbelink.c **** 
 153:.\nimbelink.c **** inline void addPARAM ( char * _param_add )
ARM GAS  C:\Users\EDTRIC~1\AppData\Local\Temp\ccR9mJFt.s 			page 13


 154:.\nimbelink.c **** {
 523              		.loc 1 154 0
 524              		.cfi_startproc
 525              		@ args = 0, pretend = 0, frame = 0
 526              		@ frame_needed = 0, uses_anonymous_args = 0
 527              	.LVL44:
 528 0000 08B5     		push	{r3, lr}
 529              		.cfi_def_cfa_offset 8
 530              		.cfi_offset 3, -8
 531              		.cfi_offset 14, -4
 532 0002 0146     		mov	r1, r0
 155:.\nimbelink.c ****     strcat( param , _param_add );
 533              		.loc 1 155 0
 534 0004 0148     		ldr	r0, .L43
 535              	.LVL45:
 536 0006 FFF7FEFF 		bl	strcat
 537              	.LVL46:
 538 000a 08BD     		pop	{r3, pc}
 539              	.L44:
 540              		.align	2
 541              	.L43:
 542 000c 00000000 		.word	param
 543              		.cfi_endproc
 544              	.LFE71:
 545              		.size	addPARAM, .-addPARAM
 546              		.section	.text.NL_TX,"ax",%progbits
 547              		.align	2
 548              		.global	NL_TX
 549              		.thumb
 550              		.thumb_func
 551              		.type	NL_TX, %function
 552              	NL_TX:
 553              	.LFB72:
 156:.\nimbelink.c **** }
 157:.\nimbelink.c **** 
 158:.\nimbelink.c **** /*
 159:.\nimbelink.c ****     Transmits data to the modem by first assembling the 
 160:.\nimbelink.c ****     command and data into a packet called msgUART and then 
 161:.\nimbelink.c ****     sending it through the UART TX line. The command is 
 162:.\nimbelink.c ****     separate from the data, and depending on whether or not 
 163:.\nimbelink.c ****     both must be sent at the same time, the packet will be 
 164:.\nimbelink.c ****     constructed in the appropriate manner.
 165:.\nimbelink.c **** */
 166:.\nimbelink.c **** void NL_TX( uint8 headCmdPSNT , uint8 paramPSNT )
 167:.\nimbelink.c **** {
 554              		.loc 1 167 0
 555              		.cfi_startproc
 556              		@ args = 0, pretend = 0, frame = 0
 557              		@ frame_needed = 0, uses_anonymous_args = 0
 558              	.LVL47:
 559 0000 70B5     		push	{r4, r5, r6, lr}
 560              		.cfi_def_cfa_offset 16
 561              		.cfi_offset 4, -16
 562              		.cfi_offset 5, -12
 563              		.cfi_offset 6, -8
 564              		.cfi_offset 14, -4
 565 0002 0646     		mov	r6, r0
ARM GAS  C:\Users\EDTRIC~1\AppData\Local\Temp\ccR9mJFt.s 			page 14


 566 0004 0D46     		mov	r5, r1
 168:.\nimbelink.c ****     UART_NL_ClearTxBuffer();
 567              		.loc 1 168 0
 568 0006 FFF7FEFF 		bl	UART_NL_ClearTxBuffer
 569              	.LVL48:
 169:.\nimbelink.c ****     UART_NL_ClearRxBuffer();
 570              		.loc 1 169 0
 571 000a FFF7FEFF 		bl	UART_NL_ClearRxBuffer
 572              	.LVL49:
 170:.\nimbelink.c ****     UART_DEBUG_ClearTxBuffer();
 573              		.loc 1 170 0
 574 000e FFF7FEFF 		bl	UART_DEBUG_ClearTxBuffer
 575              	.LVL50:
 171:.\nimbelink.c ****     
 172:.\nimbelink.c ****     memset( msgUART , 0 , sizeof( msgUART ) );
 576              		.loc 1 172 0
 577 0012 9624     		movs	r4, #150
 578 0014 1948     		ldr	r0, .L50
 579 0016 0021     		movs	r1, #0
 580 0018 2246     		mov	r2, r4
 581 001a FFF7FEFF 		bl	memset
 582              	.LVL51:
 173:.\nimbelink.c ****     CyDelay(10);
 583              		.loc 1 173 0
 584 001e 0A20     		movs	r0, #10
 585 0020 FFF7FEFF 		bl	CyDelay
 586              	.LVL52:
 174:.\nimbelink.c ****     memset( recvdMsg , 0 , sizeof( recvdMsg ) );
 587              		.loc 1 174 0
 588 0024 1648     		ldr	r0, .L50+4
 589 0026 0021     		movs	r1, #0
 590 0028 2246     		mov	r2, r4
 591 002a FFF7FEFF 		bl	memset
 592              	.LVL53:
 175:.\nimbelink.c ****     CyDelay(10);    
 593              		.loc 1 175 0
 594 002e 0A20     		movs	r0, #10
 595 0030 FFF7FEFF 		bl	CyDelay
 596              	.LVL54:
 176:.\nimbelink.c **** 
 177:.\nimbelink.c ****     if( headCmdPSNT )
 597              		.loc 1 177 0
 598 0034 7EB1     		cbz	r6, .L46
 178:.\nimbelink.c ****     {
 179:.\nimbelink.c ****         strcpy( msgUART , cmd );
 599              		.loc 1 179 0
 600 0036 1148     		ldr	r0, .L50
 601 0038 1249     		ldr	r1, .L50+8
 602 003a FFF7FEFF 		bl	strcpy
 603              	.LVL55:
 180:.\nimbelink.c ****         
 181:.\nimbelink.c ****         if( paramPSNT ) strcat( msgUART , param );
 604              		.loc 1 181 0
 605 003e 1DB1     		cbz	r5, .L47
 606              		.loc 1 181 0 is_stmt 0 discriminator 1
 607 0040 0E48     		ldr	r0, .L50
 608 0042 1149     		ldr	r1, .L50+12
ARM GAS  C:\Users\EDTRIC~1\AppData\Local\Temp\ccR9mJFt.s 			page 15


 609 0044 FFF7FEFF 		bl	strcat
 610              	.LVL56:
 611              	.L47:
 182:.\nimbelink.c ****         
 183:.\nimbelink.c ****         UART_NL_PutString( msgUART );
 612              		.loc 1 183 0 is_stmt 1
 613 0048 0C48     		ldr	r0, .L50
 614 004a FFF7FEFF 		bl	UART_NL_PutString
 615              	.LVL57:
 184:.\nimbelink.c ****         UART_NL_PutString( "\r" );
 616              		.loc 1 184 0
 617 004e 0F48     		ldr	r0, .L50+16
 618 0050 FFF7FEFF 		bl	UART_NL_PutString
 619              	.LVL58:
 620 0054 70BD     		pop	{r4, r5, r6, pc}
 621              	.L46:
 185:.\nimbelink.c ****     } 
 186:.\nimbelink.c ****     else if( paramPSNT )
 622              		.loc 1 186 0
 623 0056 85B1     		cbz	r5, .L45
 187:.\nimbelink.c ****     {
 188:.\nimbelink.c ****         strcpy( msgUART , param );
 624              		.loc 1 188 0
 625 0058 084C     		ldr	r4, .L50
 626 005a 2046     		mov	r0, r4
 627 005c 0A49     		ldr	r1, .L50+12
 628 005e FFF7FEFF 		bl	strcpy
 629              	.LVL59:
 189:.\nimbelink.c ****         
 190:.\nimbelink.c ****         UART_NL_PutString( msgUART );
 630              		.loc 1 190 0
 631 0062 2046     		mov	r0, r4
 632 0064 FFF7FEFF 		bl	UART_NL_PutString
 633              	.LVL60:
 191:.\nimbelink.c ****         UART_DEBUG_PutString( msgUART );
 634              		.loc 1 191 0
 635 0068 2046     		mov	r0, r4
 636 006a FFF7FEFF 		bl	UART_DEBUG_PutString
 637              	.LVL61:
 192:.\nimbelink.c ****         UART_DEBUG_PutString( "\r\n" );
 638              		.loc 1 192 0
 639 006e 0848     		ldr	r0, .L50+20
 640 0070 FFF7FEFF 		bl	UART_DEBUG_PutString
 641              	.LVL62:
 193:.\nimbelink.c ****         UART_NL_PutChar( 0x1A );
 642              		.loc 1 193 0
 643 0074 1A20     		movs	r0, #26
 644 0076 FFF7FEFF 		bl	UART_NL_PutChar
 645              	.LVL63:
 646              	.L45:
 647 007a 70BD     		pop	{r4, r5, r6, pc}
 648              	.L51:
 649              		.align	2
 650              	.L50:
 651 007c 00000000 		.word	msgUART
 652 0080 00000000 		.word	recvdMsg
 653 0084 00000000 		.word	cmd
ARM GAS  C:\Users\EDTRIC~1\AppData\Local\Temp\ccR9mJFt.s 			page 16


 654 0088 00000000 		.word	param
 655 008c 0C000000 		.word	.LC3
 656 0090 00000000 		.word	.LC0
 657              		.cfi_endproc
 658              	.LFE72:
 659              		.size	NL_TX, .-NL_TX
 660              		.section	.text.NL_RX,"ax",%progbits
 661              		.align	2
 662              		.global	NL_RX
 663              		.thumb
 664              		.thumb_func
 665              		.type	NL_RX, %function
 666              	NL_RX:
 667              	.LFB73:
 194:.\nimbelink.c ****     }    
 195:.\nimbelink.c **** }
 196:.\nimbelink.c **** 
 197:.\nimbelink.c **** /*
 198:.\nimbelink.c ****     Receives the data present in the UART RX buffer. As long 
 199:.\nimbelink.c ****     as there is data in the buffer, it will store each byte 
 200:.\nimbelink.c ****     of data in recvdMsg until the buffer is empty.
 201:.\nimbelink.c **** */
 202:.\nimbelink.c **** void NL_RX( void )
 203:.\nimbelink.c **** {
 668              		.loc 1 203 0
 669              		.cfi_startproc
 670              		@ args = 0, pretend = 0, frame = 0
 671              		@ frame_needed = 0, uses_anonymous_args = 0
 672 0000 10B5     		push	{r4, lr}
 673              		.cfi_def_cfa_offset 8
 674              		.cfi_offset 4, -8
 675              		.cfi_offset 14, -4
 204:.\nimbelink.c ****     counter = 0;
 676              		.loc 1 204 0
 677 0002 0022     		movs	r2, #0
 678 0004 0A4B     		ldr	r3, .L56
 679 0006 1A70     		strb	r2, [r3]
 205:.\nimbelink.c ****     
 206:.\nimbelink.c ****     while( UART_NL_GetRxBufferSize() > 0 )
 680              		.loc 1 206 0
 681 0008 0CE0     		b	.L53
 682              	.L54:
 207:.\nimbelink.c ****     {
 208:.\nimbelink.c ****         recByte = UART_NL_GetChar();
 683              		.loc 1 208 0
 684 000a FFF7FEFF 		bl	UART_NL_GetChar
 685              	.LVL64:
 686 000e 094C     		ldr	r4, .L56+4
 687 0010 2070     		strb	r0, [r4]
 209:.\nimbelink.c ****         UART_DEBUG_PutChar(recByte);
 688              		.loc 1 209 0
 689 0012 FFF7FEFF 		bl	UART_DEBUG_PutChar
 690              	.LVL65:
 210:.\nimbelink.c ****         
 211:.\nimbelink.c ****         recvdMsg[counter++] = recByte;
 691              		.loc 1 211 0
 692 0016 064A     		ldr	r2, .L56
ARM GAS  C:\Users\EDTRIC~1\AppData\Local\Temp\ccR9mJFt.s 			page 17


 693 0018 1378     		ldrb	r3, [r2]	@ zero_extendqisi2
 694 001a 591C     		adds	r1, r3, #1
 695 001c 1170     		strb	r1, [r2]
 696 001e 2178     		ldrb	r1, [r4]	@ zero_extendqisi2
 697 0020 054A     		ldr	r2, .L56+8
 698 0022 D154     		strb	r1, [r2, r3]
 699              	.L53:
 206:.\nimbelink.c ****     {
 700              		.loc 1 206 0
 701 0024 FFF7FEFF 		bl	UART_NL_GetRxBufferSize
 702              	.LVL66:
 703 0028 0028     		cmp	r0, #0
 704 002a EED1     		bne	.L54
 212:.\nimbelink.c ****     }
 213:.\nimbelink.c **** }
 705              		.loc 1 213 0
 706 002c 10BD     		pop	{r4, pc}
 707              	.L57:
 708 002e 00BF     		.align	2
 709              	.L56:
 710 0030 00000000 		.word	counter
 711 0034 00000000 		.word	recByte
 712 0038 00000000 		.word	recvdMsg
 713              		.cfi_endproc
 714              	.LFE73:
 715              		.size	NL_RX, .-NL_RX
 716              		.section	.text.msg_clear,"ax",%progbits
 717              		.align	2
 718              		.global	msg_clear
 719              		.thumb
 720              		.thumb_func
 721              		.type	msg_clear, %function
 722              	msg_clear:
 723              	.LFB74:
 214:.\nimbelink.c **** 
 215:.\nimbelink.c **** /*
 216:.\nimbelink.c ****     Clears any strings stored in cmd and data to allow new 
 217:.\nimbelink.c ****     commands and data to be stored.
 218:.\nimbelink.c **** */
 219:.\nimbelink.c **** void msg_clear( void )
 220:.\nimbelink.c **** {
 724              		.loc 1 220 0
 725              		.cfi_startproc
 726              		@ args = 0, pretend = 0, frame = 0
 727              		@ frame_needed = 0, uses_anonymous_args = 0
 728 0000 08B5     		push	{r3, lr}
 729              		.cfi_def_cfa_offset 8
 730              		.cfi_offset 3, -8
 731              		.cfi_offset 14, -4
 221:.\nimbelink.c ****     memset( cmd , 0 , sizeof( cmd ) );
 732              		.loc 1 221 0
 733 0002 114A     		ldr	r2, .L60
 734 0004 1346     		mov	r3, r2
 735 0006 0021     		movs	r1, #0
 736 0008 03F8011B 		strb	r1, [r3], #1
 737 000c 5170     		strb	r1, [r2, #1]
 738 000e 0133     		adds	r3, r3, #1
ARM GAS  C:\Users\EDTRIC~1\AppData\Local\Temp\ccR9mJFt.s 			page 18


 739 0010 03F8011B 		strb	r1, [r3], #1
 740 0014 03F8011B 		strb	r1, [r3], #1
 741 0018 03F8011B 		strb	r1, [r3], #1
 742 001c 03F8011B 		strb	r1, [r3], #1
 743 0020 03F8011B 		strb	r1, [r3], #1
 744 0024 03F8011B 		strb	r1, [r3], #1
 745 0028 03F8011B 		strb	r1, [r3], #1
 746 002c 03F8011B 		strb	r1, [r3], #1
 747 0030 03F8011B 		strb	r1, [r3], #1
 748 0034 1970     		strb	r1, [r3]
 222:.\nimbelink.c ****     memset( param , 0 , sizeof( param ) ); 
 749              		.loc 1 222 0
 750 0036 0548     		ldr	r0, .L60+4
 751 0038 3222     		movs	r2, #50
 752 003a FFF7FEFF 		bl	memset
 753              	.LVL67:
 223:.\nimbelink.c ****     CyDelay(10);
 754              		.loc 1 223 0
 755 003e 0A20     		movs	r0, #10
 756 0040 FFF7FEFF 		bl	CyDelay
 757              	.LVL68:
 758 0044 08BD     		pop	{r3, pc}
 759              	.L61:
 760 0046 00BF     		.align	2
 761              	.L60:
 762 0048 00000000 		.word	cmd
 763 004c 00000000 		.word	param
 764              		.cfi_endproc
 765              	.LFE74:
 766              		.size	msg_clear, .-msg_clear
 767              		.section	.text.NL_scktsend,"ax",%progbits
 768              		.align	2
 769              		.global	NL_scktsend
 770              		.thumb
 771              		.thumb_func
 772              		.type	NL_scktsend, %function
 773              	NL_scktsend:
 774              	.LFB75:
 224:.\nimbelink.c **** }
 225:.\nimbelink.c **** 
 226:.\nimbelink.c **** /*
 227:.\nimbelink.c ****     Sends data through the modem network socket. There are 
 228:.\nimbelink.c ****     6 sockets to send data through, but for now there is only 
 229:.\nimbelink.c ****     one in use.
 230:.\nimbelink.c **** */
 231:.\nimbelink.c **** void NL_scktsend( uint8 socket , char * _scktdata )
 232:.\nimbelink.c **** {
 775              		.loc 1 232 0
 776              		.cfi_startproc
 777              		@ args = 0, pretend = 0, frame = 0
 778              		@ frame_needed = 0, uses_anonymous_args = 0
 779              	.LVL69:
 780 0000 38B5     		push	{r3, r4, r5, lr}
 781              		.cfi_def_cfa_offset 16
 782              		.cfi_offset 3, -16
 783              		.cfi_offset 4, -12
 784              		.cfi_offset 5, -8
ARM GAS  C:\Users\EDTRIC~1\AppData\Local\Temp\ccR9mJFt.s 			page 19


 785              		.cfi_offset 14, -4
 786 0002 0246     		mov	r2, r0
 787 0004 0D46     		mov	r5, r1
 233:.\nimbelink.c ****     sprintf( sckt , "%d" , socket );
 788              		.loc 1 233 0
 789 0006 104C     		ldr	r4, .L64
 790 0008 2046     		mov	r0, r4
 791              	.LVL70:
 792 000a 1049     		ldr	r1, .L64+4
 793              	.LVL71:
 794 000c FFF7FEFF 		bl	sprintf
 795              	.LVL72:
 234:.\nimbelink.c ****     writeCMD( SCKT_SEND );
 796              		.loc 1 234 0
 797 0010 0F48     		ldr	r0, .L64+8
 798 0012 FFF7FEFF 		bl	writeCMD
 799              	.LVL73:
 235:.\nimbelink.c ****     writePARAM( sckt );
 800              		.loc 1 235 0
 801 0016 2046     		mov	r0, r4
 802 0018 FFF7FEFF 		bl	writePARAM
 803              	.LVL74:
 236:.\nimbelink.c ****     NL_TX(1,1);
 804              		.loc 1 236 0
 805 001c 0120     		movs	r0, #1
 806 001e 0146     		mov	r1, r0
 807 0020 FFF7FEFF 		bl	NL_TX
 808              	.LVL75:
 237:.\nimbelink.c ****     CyDelay(50);
 809              		.loc 1 237 0
 810 0024 3220     		movs	r0, #50
 811 0026 FFF7FEFF 		bl	CyDelay
 812              	.LVL76:
 238:.\nimbelink.c ****     NL_RX();
 813              		.loc 1 238 0
 814 002a FFF7FEFF 		bl	NL_RX
 815              	.LVL77:
 239:.\nimbelink.c **** //    msg_clear();
 240:.\nimbelink.c ****     
 241:.\nimbelink.c ****     writePARAM( _scktdata );
 816              		.loc 1 241 0
 817 002e 2846     		mov	r0, r5
 818 0030 FFF7FEFF 		bl	writePARAM
 819              	.LVL78:
 242:.\nimbelink.c ****     NL_TX(0,1);
 820              		.loc 1 242 0
 821 0034 0020     		movs	r0, #0
 822 0036 0121     		movs	r1, #1
 823 0038 FFF7FEFF 		bl	NL_TX
 824              	.LVL79:
 243:.\nimbelink.c ****     CyDelay(50);
 825              		.loc 1 243 0
 826 003c 3220     		movs	r0, #50
 827 003e FFF7FEFF 		bl	CyDelay
 828              	.LVL80:
 244:.\nimbelink.c ****     NL_RX();
 829              		.loc 1 244 0
ARM GAS  C:\Users\EDTRIC~1\AppData\Local\Temp\ccR9mJFt.s 			page 20


 830 0042 FFF7FEFF 		bl	NL_RX
 831              	.LVL81:
 832 0046 38BD     		pop	{r3, r4, r5, pc}
 833              	.LVL82:
 834              	.L65:
 835              		.align	2
 836              	.L64:
 837 0048 00000000 		.word	sckt
 838 004c 10000000 		.word	.LC4
 839 0050 14000000 		.word	.LC5
 840              		.cfi_endproc
 841              	.LFE75:
 842              		.size	NL_scktsend, .-NL_scktsend
 843              		.section	.text.NL_scktrecv,"ax",%progbits
 844              		.align	2
 845              		.global	NL_scktrecv
 846              		.thumb
 847              		.thumb_func
 848              		.type	NL_scktrecv, %function
 849              	NL_scktrecv:
 850              	.LFB76:
 245:.\nimbelink.c **** //    msg_clear();
 246:.\nimbelink.c **** }
 247:.\nimbelink.c **** 
 248:.\nimbelink.c **** /*
 249:.\nimbelink.c ****     Receives data through the modem network socket. The function 
 250:.\nimbelink.c ****     waits until bytes are received in the RX buffer to start 
 251:.\nimbelink.c ****     reading and recording the data.
 252:.\nimbelink.c **** */
 253:.\nimbelink.c **** void NL_scktrecv( uint8 socket )
 254:.\nimbelink.c **** {
 851              		.loc 1 254 0
 852              		.cfi_startproc
 853              		@ args = 0, pretend = 0, frame = 0
 854              		@ frame_needed = 0, uses_anonymous_args = 0
 855              	.LVL83:
 856 0000 10B5     		push	{r4, lr}
 857              		.cfi_def_cfa_offset 8
 858              		.cfi_offset 4, -8
 859              		.cfi_offset 14, -4
 860 0002 0246     		mov	r2, r0
 255:.\nimbelink.c ****     sprintf( sckt , "%d" , socket );
 861              		.loc 1 255 0
 862 0004 1C4C     		ldr	r4, .L69
 863 0006 2046     		mov	r0, r4
 864              	.LVL84:
 865 0008 1C49     		ldr	r1, .L69+4
 866 000a FFF7FEFF 		bl	sprintf
 867              	.LVL85:
 256:.\nimbelink.c ****     writeCMD( "AT#SI=" );
 868              		.loc 1 256 0
 869 000e 1C48     		ldr	r0, .L69+8
 870 0010 FFF7FEFF 		bl	writeCMD
 871              	.LVL86:
 257:.\nimbelink.c ****     writePARAM( sckt );
 872              		.loc 1 257 0
 873 0014 2046     		mov	r0, r4
ARM GAS  C:\Users\EDTRIC~1\AppData\Local\Temp\ccR9mJFt.s 			page 21


 874 0016 FFF7FEFF 		bl	writePARAM
 875              	.LVL87:
 258:.\nimbelink.c ****     NL_TX(1,1);
 876              		.loc 1 258 0
 877 001a 0120     		movs	r0, #1
 878 001c 0146     		mov	r1, r0
 879 001e FFF7FEFF 		bl	NL_TX
 880              	.LVL88:
 259:.\nimbelink.c ****     CyDelay(50);
 881              		.loc 1 259 0
 882 0022 3220     		movs	r0, #50
 883 0024 FFF7FEFF 		bl	CyDelay
 884              	.LVL89:
 260:.\nimbelink.c ****     NL_RX();
 885              		.loc 1 260 0
 886 0028 FFF7FEFF 		bl	NL_RX
 887              	.LVL90:
 261:.\nimbelink.c ****     msg_parse();
 888              		.loc 1 261 0
 889 002c FFF7FEFF 		bl	msg_parse
 890              	.LVL91:
 262:.\nimbelink.c ****     data_parse(P2P);
 891              		.loc 1 262 0
 892 0030 0020     		movs	r0, #0
 893 0032 FFF7FEFF 		bl	data_parse
 894              	.LVL92:
 263:.\nimbelink.c ****     
 264:.\nimbelink.c ****     if( !substring( infoParse[4] , "0" ) )
 895              		.loc 1 264 0
 896 0036 1348     		ldr	r0, .L69+12
 897 0038 1349     		ldr	r1, .L69+16
 898 003a FFF7FEFF 		bl	substring
 899              	.LVL93:
 900 003e C8B9     		cbnz	r0, .L66
 265:.\nimbelink.c ****     {
 266:.\nimbelink.c ****         writeCMD( SCKT_RECV );
 901              		.loc 1 266 0
 902 0040 1248     		ldr	r0, .L69+20
 903 0042 FFF7FEFF 		bl	writeCMD
 904              	.LVL94:
 267:.\nimbelink.c ****         writePARAM( sckt );
 905              		.loc 1 267 0
 906 0046 2046     		mov	r0, r4
 907 0048 FFF7FEFF 		bl	writePARAM
 908              	.LVL95:
 909              	.LBB22:
 910              	.LBB23:
 155:.\nimbelink.c **** }
 911              		.loc 1 155 0
 912 004c 104C     		ldr	r4, .L69+24
 913 004e 2046     		mov	r0, r4
 914 0050 FFF7FEFF 		bl	strlen
 915              	.LVL96:
 916 0054 0F4B     		ldr	r3, .L69+28
 917 0056 1B88     		ldrh	r3, [r3]	@ unaligned
 918 0058 2352     		strh	r3, [r4, r0]	@ unaligned
 919              	.LVL97:
ARM GAS  C:\Users\EDTRIC~1\AppData\Local\Temp\ccR9mJFt.s 			page 22


 920              	.LBE23:
 921              	.LBE22:
 922              	.LBB24:
 923              	.LBB25:
 924 005a 2046     		mov	r0, r4
 925 005c 0949     		ldr	r1, .L69+12
 926              	.LVL98:
 927 005e FFF7FEFF 		bl	strcat
 928              	.LVL99:
 929              	.LBE25:
 930              	.LBE24:
 268:.\nimbelink.c ****         addPARAM( "," );
 269:.\nimbelink.c ****         addPARAM( infoParse[4] );
 270:.\nimbelink.c ****         NL_TX(1,1);
 931              		.loc 1 270 0
 932 0062 0120     		movs	r0, #1
 933 0064 0146     		mov	r1, r0
 934 0066 FFF7FEFF 		bl	NL_TX
 935              	.LVL100:
 271:.\nimbelink.c ****         CyDelay(50);
 936              		.loc 1 271 0
 937 006a 3220     		movs	r0, #50
 938 006c FFF7FEFF 		bl	CyDelay
 939              	.LVL101:
 272:.\nimbelink.c ****         NL_RX();
 940              		.loc 1 272 0
 941 0070 FFF7FEFF 		bl	NL_RX
 942              	.LVL102:
 943              	.L66:
 944 0074 10BD     		pop	{r4, pc}
 945              	.L70:
 946 0076 00BF     		.align	2
 947              	.L69:
 948 0078 00000000 		.word	sckt
 949 007c 10000000 		.word	.LC4
 950 0080 20000000 		.word	.LC6
 951 0084 50000000 		.word	infoParse+80
 952 0088 28000000 		.word	.LC7
 953 008c 2C000000 		.word	.LC8
 954 0090 00000000 		.word	param
 955 0094 08000000 		.word	.LC2
 956              		.cfi_endproc
 957              	.LFE76:
 958              		.size	NL_scktrecv, .-NL_scktrecv
 959              		.section	.text.NL_sendSMS,"ax",%progbits
 960              		.align	2
 961              		.global	NL_sendSMS
 962              		.thumb
 963              		.thumb_func
 964              		.type	NL_sendSMS, %function
 965              	NL_sendSMS:
 966              	.LFB77:
 273:.\nimbelink.c ****     }
 274:.\nimbelink.c ****     
 275:.\nimbelink.c **** //    while( !(UART_NL_GetRxBufferSize() > 0) );
 276:.\nimbelink.c **** //    memset( recvdMsg , 0 , sizeof(recvdMsg) );
 277:.\nimbelink.c **** //    CyDelay(10);
ARM GAS  C:\Users\EDTRIC~1\AppData\Local\Temp\ccR9mJFt.s 			page 23


 278:.\nimbelink.c **** //    NL_RX();
 279:.\nimbelink.c **** //    msg_parse();
 280:.\nimbelink.c **** //    data_parse();
 281:.\nimbelink.c **** //    
 282:.\nimbelink.c **** //    writeCMD( SCKT_RECV );
 283:.\nimbelink.c **** //    writePARAM( msgParse[2] );
 284:.\nimbelink.c **** //    NL_TX(1,1);
 285:.\nimbelink.c **** //    CyDelay(50);
 286:.\nimbelink.c **** //    NL_RX();
 287:.\nimbelink.c **** //    msg_clear();
 288:.\nimbelink.c **** }
 289:.\nimbelink.c **** 
 290:.\nimbelink.c **** void NL_sendSMS( char * number , char * message )
 291:.\nimbelink.c **** {
 967              		.loc 1 291 0
 968              		.cfi_startproc
 969              		@ args = 0, pretend = 0, frame = 0
 970              		@ frame_needed = 0, uses_anonymous_args = 0
 971              	.LVL103:
 972 0000 38B5     		push	{r3, r4, r5, lr}
 973              		.cfi_def_cfa_offset 16
 974              		.cfi_offset 3, -16
 975              		.cfi_offset 4, -12
 976              		.cfi_offset 5, -8
 977              		.cfi_offset 14, -4
 978 0002 0546     		mov	r5, r0
 979 0004 0C46     		mov	r4, r1
 292:.\nimbelink.c ****     writeCMD( SEND_TEXT_MESSAGE );
 980              		.loc 1 292 0
 981 0006 1648     		ldr	r0, .L74
 982              	.LVL104:
 983 0008 FFF7FEFF 		bl	writeCMD
 984              	.LVL105:
 293:.\nimbelink.c ****     writePARAM( number );
 985              		.loc 1 293 0
 986 000c 2846     		mov	r0, r5
 987 000e FFF7FEFF 		bl	writePARAM
 988              	.LVL106:
 294:.\nimbelink.c ****     NL_TX(1,1);
 989              		.loc 1 294 0
 990 0012 0120     		movs	r0, #1
 991 0014 0146     		mov	r1, r0
 992 0016 FFF7FEFF 		bl	NL_TX
 993              	.LVL107:
 295:.\nimbelink.c ****     CyDelay(50);
 994              		.loc 1 295 0
 995 001a 3220     		movs	r0, #50
 996 001c FFF7FEFF 		bl	CyDelay
 997              	.LVL108:
 296:.\nimbelink.c ****     NL_RX();
 998              		.loc 1 296 0
 999 0020 FFF7FEFF 		bl	NL_RX
 1000              	.LVL109:
 297:.\nimbelink.c ****     
 298:.\nimbelink.c ****     writePARAM( message );
 1001              		.loc 1 298 0
 1002 0024 2046     		mov	r0, r4
ARM GAS  C:\Users\EDTRIC~1\AppData\Local\Temp\ccR9mJFt.s 			page 24


 1003 0026 FFF7FEFF 		bl	writePARAM
 1004              	.LVL110:
 299:.\nimbelink.c ****     NL_TX(0,1);
 1005              		.loc 1 299 0
 1006 002a 0020     		movs	r0, #0
 1007 002c 0121     		movs	r1, #1
 1008 002e FFF7FEFF 		bl	NL_TX
 1009              	.LVL111:
 300:.\nimbelink.c ****     CyDelay(50);
 1010              		.loc 1 300 0
 1011 0032 3220     		movs	r0, #50
 1012 0034 FFF7FEFF 		bl	CyDelay
 1013              	.LVL112:
 301:.\nimbelink.c ****     NL_RX();
 1014              		.loc 1 301 0
 1015 0038 FFF7FEFF 		bl	NL_RX
 1016              	.LVL113:
 302:.\nimbelink.c ****     UART_NL_ClearRxBuffer();
 1017              		.loc 1 302 0
 1018 003c FFF7FEFF 		bl	UART_NL_ClearRxBuffer
 1019              	.LVL114:
 1020              	.L72:
 303:.\nimbelink.c ****         
 304:.\nimbelink.c ****     while( !(UART_NL_GetRxBufferSize() > 0) );        
 1021              		.loc 1 304 0 discriminator 1
 1022 0040 FFF7FEFF 		bl	UART_NL_GetRxBufferSize
 1023              	.LVL115:
 1024 0044 0028     		cmp	r0, #0
 1025 0046 FBD0     		beq	.L72
 305:.\nimbelink.c ****     memset( recvdMsg , 0 , sizeof(recvdMsg) );
 1026              		.loc 1 305 0
 1027 0048 0648     		ldr	r0, .L74+4
 1028 004a 0021     		movs	r1, #0
 1029 004c 9622     		movs	r2, #150
 1030 004e FFF7FEFF 		bl	memset
 1031              	.LVL116:
 306:.\nimbelink.c ****     CyDelay(10);
 1032              		.loc 1 306 0
 1033 0052 0A20     		movs	r0, #10
 1034 0054 FFF7FEFF 		bl	CyDelay
 1035              	.LVL117:
 307:.\nimbelink.c ****     NL_RX();
 1036              		.loc 1 307 0
 1037 0058 FFF7FEFF 		bl	NL_RX
 1038              	.LVL118:
 1039 005c 38BD     		pop	{r3, r4, r5, pc}
 1040              	.LVL119:
 1041              	.L75:
 1042 005e 00BF     		.align	2
 1043              	.L74:
 1044 0060 38000000 		.word	.LC9
 1045 0064 00000000 		.word	recvdMsg
 1046              		.cfi_endproc
 1047              	.LFE77:
 1048              		.size	NL_sendSMS, .-NL_sendSMS
 1049              		.section	.text.NL_recvSMS,"ax",%progbits
 1050              		.align	2
ARM GAS  C:\Users\EDTRIC~1\AppData\Local\Temp\ccR9mJFt.s 			page 25


 1051              		.global	NL_recvSMS
 1052              		.thumb
 1053              		.thumb_func
 1054              		.type	NL_recvSMS, %function
 1055              	NL_recvSMS:
 1056              	.LFB78:
 308:.\nimbelink.c **** }
 309:.\nimbelink.c **** 
 310:.\nimbelink.c **** void NL_recvSMS( void )
 311:.\nimbelink.c **** {
 1057              		.loc 1 311 0
 1058              		.cfi_startproc
 1059              		@ args = 0, pretend = 0, frame = 0
 1060              		@ frame_needed = 0, uses_anonymous_args = 0
 1061 0000 10B5     		push	{r4, lr}
 1062              		.cfi_def_cfa_offset 8
 1063              		.cfi_offset 4, -8
 1064              		.cfi_offset 14, -4
 312:.\nimbelink.c ****     UART_DEBUG_PutString( "Checking for text messages\r\n" );
 1065              		.loc 1 312 0
 1066 0002 1C48     		ldr	r0, .L79
 1067 0004 FFF7FEFF 		bl	UART_DEBUG_PutString
 1068              	.LVL120:
 313:.\nimbelink.c ****     writeCMD( LIST_TEXT_MESSAGE );
 1069              		.loc 1 313 0
 1070 0008 1B48     		ldr	r0, .L79+4
 1071 000a FFF7FEFF 		bl	writeCMD
 1072              	.LVL121:
 314:.\nimbelink.c ****     writePARAM( "\"REC UNREAD\"" );
 1073              		.loc 1 314 0
 1074 000e 1B48     		ldr	r0, .L79+8
 1075 0010 FFF7FEFF 		bl	writePARAM
 1076              	.LVL122:
 315:.\nimbelink.c ****     NL_TX(1,1);
 1077              		.loc 1 315 0
 1078 0014 0120     		movs	r0, #1
 1079 0016 0146     		mov	r1, r0
 1080 0018 FFF7FEFF 		bl	NL_TX
 1081              	.LVL123:
 316:.\nimbelink.c ****     CyDelay(50);
 1082              		.loc 1 316 0
 1083 001c 3220     		movs	r0, #50
 1084 001e FFF7FEFF 		bl	CyDelay
 1085              	.LVL124:
 317:.\nimbelink.c ****     NL_RX();
 1086              		.loc 1 317 0
 1087 0022 FFF7FEFF 		bl	NL_RX
 1088              	.LVL125:
 318:.\nimbelink.c ****     
 319:.\nimbelink.c ****     msg_parse();
 1089              		.loc 1 319 0
 1090 0026 FFF7FEFF 		bl	msg_parse
 1091              	.LVL126:
 320:.\nimbelink.c ****     
 321:.\nimbelink.c ****     if( !substring( msgParse[0] , "OK" ) ) 
 1092              		.loc 1 321 0
 1093 002a 1548     		ldr	r0, .L79+12
ARM GAS  C:\Users\EDTRIC~1\AppData\Local\Temp\ccR9mJFt.s 			page 26


 1094 002c 1549     		ldr	r1, .L79+16
 1095 002e FFF7FEFF 		bl	substring
 1096              	.LVL127:
 1097 0032 E8B9     		cbnz	r0, .L76
 322:.\nimbelink.c ****     {
 323:.\nimbelink.c **** //        CyDelay(10);
 324:.\nimbelink.c ****         CMD_SEND( msgParse[1] );
 1098              		.loc 1 324 0
 1099 0034 1448     		ldr	r0, .L79+20
 1100 0036 FFF7FEFF 		bl	CMD_SEND
 1101              	.LVL128:
 325:.\nimbelink.c ****         
 326:.\nimbelink.c ****         data_parse(SMS);
 1102              		.loc 1 326 0
 1103 003a 0120     		movs	r0, #1
 1104 003c FFF7FEFF 		bl	data_parse
 1105              	.LVL129:
 327:.\nimbelink.c ****         strcpy( reply_num , infoParse[2] );
 1106              		.loc 1 327 0
 1107 0040 124C     		ldr	r4, .L79+24
 1108 0042 2046     		mov	r0, r4
 1109 0044 1249     		ldr	r1, .L79+28
 1110 0046 FFF7FEFF 		bl	strcpy
 1111              	.LVL130:
 328:.\nimbelink.c ****         NL_sendSMS( reply_num ,"Text received" );
 1112              		.loc 1 328 0
 1113 004a 2046     		mov	r0, r4
 1114 004c 1149     		ldr	r1, .L79+32
 1115 004e FFF7FEFF 		bl	NL_sendSMS
 1116              	.LVL131:
 329:.\nimbelink.c **** 
 330:.\nimbelink.c ****         writeCMD( DEL_TEXT_MESSAGE );
 1117              		.loc 1 330 0
 1118 0052 1148     		ldr	r0, .L79+36
 1119 0054 FFF7FEFF 		bl	writeCMD
 1120              	.LVL132:
 331:.\nimbelink.c ****         writePARAM( "1,4" );
 1121              		.loc 1 331 0
 1122 0058 1048     		ldr	r0, .L79+40
 1123 005a FFF7FEFF 		bl	writePARAM
 1124              	.LVL133:
 332:.\nimbelink.c ****         NL_TX(1,1);
 1125              		.loc 1 332 0
 1126 005e 0120     		movs	r0, #1
 1127 0060 0146     		mov	r1, r0
 1128 0062 FFF7FEFF 		bl	NL_TX
 1129              	.LVL134:
 333:.\nimbelink.c ****         CyDelay(50);
 1130              		.loc 1 333 0
 1131 0066 3220     		movs	r0, #50
 1132 0068 FFF7FEFF 		bl	CyDelay
 1133              	.LVL135:
 334:.\nimbelink.c ****         NL_RX();
 1134              		.loc 1 334 0
 1135 006c FFF7FEFF 		bl	NL_RX
 1136              	.LVL136:
 1137              	.L76:
ARM GAS  C:\Users\EDTRIC~1\AppData\Local\Temp\ccR9mJFt.s 			page 27


 1138 0070 10BD     		pop	{r4, pc}
 1139              	.L80:
 1140 0072 00BF     		.align	2
 1141              	.L79:
 1142 0074 44000000 		.word	.LC10
 1143 0078 64000000 		.word	.LC11
 1144 007c 70000000 		.word	.LC12
 1145 0080 00000000 		.word	msgParse
 1146 0084 80000000 		.word	.LC13
 1147 0088 3C000000 		.word	msgParse+60
 1148 008c 00000000 		.word	reply_num
 1149 0090 28000000 		.word	infoParse+40
 1150 0094 84000000 		.word	.LC14
 1151 0098 94000000 		.word	.LC15
 1152 009c A0000000 		.word	.LC16
 1153              		.cfi_endproc
 1154              	.LFE78:
 1155              		.size	NL_recvSMS, .-NL_recvSMS
 1156              		.section	.text.Nimbelink_Start,"ax",%progbits
 1157              		.align	2
 1158              		.global	Nimbelink_Start
 1159              		.thumb
 1160              		.thumb_func
 1161              		.type	Nimbelink_Start, %function
 1162              	Nimbelink_Start:
 1163              	.LFB79:
 335:.\nimbelink.c ****     }
 336:.\nimbelink.c **** }
 337:.\nimbelink.c **** 
 338:.\nimbelink.c **** void Nimbelink_Start( void )
 339:.\nimbelink.c **** {
 1164              		.loc 1 339 0
 1165              		.cfi_startproc
 1166              		@ args = 0, pretend = 0, frame = 0
 1167              		@ frame_needed = 0, uses_anonymous_args = 0
 1168 0000 08B5     		push	{r3, lr}
 1169              		.cfi_def_cfa_offset 8
 1170              		.cfi_offset 3, -8
 1171              		.cfi_offset 14, -4
 340:.\nimbelink.c ****     /*ON_OFF_Write(0);
 341:.\nimbelink.c ****     CyDelay(1100);
 342:.\nimbelink.c ****     ON_OFF_Write(1);
 343:.\nimbelink.c ****     CyDelay(9000);*/
 344:.\nimbelink.c ****     
 345:.\nimbelink.c ****     writeCMD( "ATE0" );
 1172              		.loc 1 345 0
 1173 0002 1A48     		ldr	r0, .L85
 1174 0004 FFF7FEFF 		bl	writeCMD
 1175              	.LVL137:
 346:.\nimbelink.c ****     NL_TX(1,0);
 1176              		.loc 1 346 0
 1177 0008 0120     		movs	r0, #1
 1178 000a 0021     		movs	r1, #0
 1179 000c FFF7FEFF 		bl	NL_TX
 1180              	.LVL138:
 347:.\nimbelink.c ****     CyDelay(50);
 1181              		.loc 1 347 0
ARM GAS  C:\Users\EDTRIC~1\AppData\Local\Temp\ccR9mJFt.s 			page 28


 1182 0010 3220     		movs	r0, #50
 1183 0012 FFF7FEFF 		bl	CyDelay
 1184              	.LVL139:
 348:.\nimbelink.c ****     NL_RX();
 1185              		.loc 1 348 0
 1186 0016 FFF7FEFF 		bl	NL_RX
 1187              	.LVL140:
 349:.\nimbelink.c **** //    msg_clear();
 350:.\nimbelink.c ****     
 351:.\nimbelink.c ****     writeCMD( NET_REG_REPORT );
 1188              		.loc 1 351 0
 1189 001a 1548     		ldr	r0, .L85+4
 1190 001c FFF7FEFF 		bl	writeCMD
 1191              	.LVL141:
 352:.\nimbelink.c ****     NL_TX(1,0);
 1192              		.loc 1 352 0
 1193 0020 0120     		movs	r0, #1
 1194 0022 0021     		movs	r1, #0
 1195 0024 FFF7FEFF 		bl	NL_TX
 1196              	.LVL142:
 353:.\nimbelink.c ****     CyDelay(50);
 1197              		.loc 1 353 0
 1198 0028 3220     		movs	r0, #50
 1199 002a FFF7FEFF 		bl	CyDelay
 1200              	.LVL143:
 354:.\nimbelink.c ****     NL_RX();
 1201              		.loc 1 354 0
 1202 002e FFF7FEFF 		bl	NL_RX
 1203              	.LVL144:
 355:.\nimbelink.c ****     if( substring( recvdMsg , "0,1" ) || substring( recvdMsg , "0,5" ) )
 1204              		.loc 1 355 0
 1205 0032 1048     		ldr	r0, .L85+8
 1206 0034 1049     		ldr	r1, .L85+12
 1207 0036 FFF7FEFF 		bl	substring
 1208              	.LVL145:
 1209 003a 20B9     		cbnz	r0, .L82
 1210              		.loc 1 355 0 is_stmt 0 discriminator 1
 1211 003c 0D48     		ldr	r0, .L85+8
 1212 003e 0F49     		ldr	r1, .L85+16
 1213 0040 FFF7FEFF 		bl	substring
 1214              	.LVL146:
 1215 0044 10B1     		cbz	r0, .L83
 1216              	.L82:
 356:.\nimbelink.c ****     {
 357:.\nimbelink.c ****         UART_DEBUG_PutString("Connection Successful!\r\n");
 1217              		.loc 1 357 0 is_stmt 1
 1218 0046 0E48     		ldr	r0, .L85+20
 1219 0048 FFF7FEFF 		bl	UART_DEBUG_PutString
 1220              	.LVL147:
 1221              	.L83:
 358:.\nimbelink.c ****     }
 359:.\nimbelink.c ****     
 360:.\nimbelink.c ****     writeCMD( MESSAGE_FORMAT );
 1222              		.loc 1 360 0
 1223 004c 0D48     		ldr	r0, .L85+24
 1224 004e FFF7FEFF 		bl	writeCMD
 1225              	.LVL148:
ARM GAS  C:\Users\EDTRIC~1\AppData\Local\Temp\ccR9mJFt.s 			page 29


 361:.\nimbelink.c ****     writePARAM( "1" );
 1226              		.loc 1 361 0
 1227 0052 0D48     		ldr	r0, .L85+28
 1228 0054 FFF7FEFF 		bl	writePARAM
 1229              	.LVL149:
 362:.\nimbelink.c ****     NL_TX(1,1);
 1230              		.loc 1 362 0
 1231 0058 0120     		movs	r0, #1
 1232 005a 0146     		mov	r1, r0
 1233 005c FFF7FEFF 		bl	NL_TX
 1234              	.LVL150:
 363:.\nimbelink.c ****     CyDelay(50);
 1235              		.loc 1 363 0
 1236 0060 3220     		movs	r0, #50
 1237 0062 FFF7FEFF 		bl	CyDelay
 1238              	.LVL151:
 364:.\nimbelink.c ****     NL_RX();
 1239              		.loc 1 364 0
 1240 0066 FFF7FEFF 		bl	NL_RX
 1241              	.LVL152:
 1242 006a 08BD     		pop	{r3, pc}
 1243              	.L86:
 1244              		.align	2
 1245              	.L85:
 1246 006c A4000000 		.word	.LC17
 1247 0070 AC000000 		.word	.LC18
 1248 0074 00000000 		.word	recvdMsg
 1249 0078 B8000000 		.word	.LC19
 1250 007c BC000000 		.word	.LC20
 1251 0080 C0000000 		.word	.LC21
 1252 0084 DC000000 		.word	.LC22
 1253 0088 E8000000 		.word	.LC23
 1254              		.cfi_endproc
 1255              	.LFE79:
 1256              		.size	Nimbelink_Start, .-Nimbelink_Start
 1257              		.section	.text.Nimbelink_ConnectGS,"ax",%progbits
 1258              		.align	2
 1259              		.global	Nimbelink_ConnectGS
 1260              		.thumb
 1261              		.thumb_func
 1262              		.type	Nimbelink_ConnectGS, %function
 1263              	Nimbelink_ConnectGS:
 1264              	.LFB80:
 365:.\nimbelink.c **** //    msg_clear();
 366:.\nimbelink.c **** }
 367:.\nimbelink.c **** 
 368:.\nimbelink.c **** void Nimbelink_ConnectGS( char * port , char * IP )
 369:.\nimbelink.c **** { 
 1265              		.loc 1 369 0
 1266              		.cfi_startproc
 1267              		@ args = 0, pretend = 0, frame = 32
 1268              		@ frame_needed = 0, uses_anonymous_args = 0
 1269              	.LVL153:
 1270 0000 30B5     		push	{r4, r5, lr}
 1271              		.cfi_def_cfa_offset 12
 1272              		.cfi_offset 4, -12
 1273              		.cfi_offset 5, -8
ARM GAS  C:\Users\EDTRIC~1\AppData\Local\Temp\ccR9mJFt.s 			page 30


 1274              		.cfi_offset 14, -4
 1275 0002 89B0     		sub	sp, sp, #36
 1276              		.cfi_def_cfa_offset 48
 370:.\nimbelink.c ****     uint8 count;
 371:.\nimbelink.c ****     char shutdownMes[30];
 372:.\nimbelink.c ****     GS.portNum = port;
 1277              		.loc 1 372 0
 1278 0004 6B4B     		ldr	r3, .L99
 1279 0006 5860     		str	r0, [r3, #4]
 373:.\nimbelink.c ****     GS.ipAddress = IP;
 1280              		.loc 1 373 0
 1281 0008 1960     		str	r1, [r3]
 374:.\nimbelink.c ****     
 375:.\nimbelink.c ****     writeCMD( SCKT_STATUS );
 1282              		.loc 1 375 0
 1283 000a 6B48     		ldr	r0, .L99+4
 1284              	.LVL154:
 1285 000c FFF7FEFF 		bl	writeCMD
 1286              	.LVL155:
 376:.\nimbelink.c ****     NL_TX(1,0);
 1287              		.loc 1 376 0
 1288 0010 0120     		movs	r0, #1
 1289 0012 0021     		movs	r1, #0
 1290 0014 FFF7FEFF 		bl	NL_TX
 1291              	.LVL156:
 377:.\nimbelink.c ****     CyDelay(50);
 1292              		.loc 1 377 0
 1293 0018 3220     		movs	r0, #50
 1294 001a FFF7FEFF 		bl	CyDelay
 1295              	.LVL157:
 378:.\nimbelink.c ****     NL_RX();
 1296              		.loc 1 378 0
 1297 001e FFF7FEFF 		bl	NL_RX
 1298              	.LVL158:
 379:.\nimbelink.c ****     msg_parse();
 1299              		.loc 1 379 0
 1300 0022 FFF7FEFF 		bl	msg_parse
 1301              	.LVL159:
 380:.\nimbelink.c **** //    msg_clear();
 381:.\nimbelink.c ****     
 382:.\nimbelink.c ****     for( count = 0 ; count < 6 ; count++ )
 1302              		.loc 1 382 0
 1303 0026 0024     		movs	r4, #0
 1304 0028 2CE0     		b	.L88
 1305              	.LVL160:
 1306              	.L90:
 383:.\nimbelink.c ****     {
 384:.\nimbelink.c ****         if( strstr( msgParse[count] , ",0" ) == NULL )
 1307              		.loc 1 384 0
 1308 002a C4EB0413 		rsb	r3, r4, r4, lsl #4
 1309 002e 9B00     		lsls	r3, r3, #2
 1310 0030 6248     		ldr	r0, .L99+8
 1311 0032 1844     		add	r0, r0, r3
 1312 0034 6249     		ldr	r1, .L99+12
 1313 0036 FFF7FEFF 		bl	strstr
 1314              	.LVL161:
 1315 003a 08BB     		cbnz	r0, .L89
ARM GAS  C:\Users\EDTRIC~1\AppData\Local\Temp\ccR9mJFt.s 			page 31


 385:.\nimbelink.c ****         {
 386:.\nimbelink.c ****             sprintf( sckt , "%d" , count + 1 );
 1316              		.loc 1 386 0
 1317 003c 614D     		ldr	r5, .L99+16
 1318 003e 2846     		mov	r0, r5
 1319 0040 6149     		ldr	r1, .L99+20
 1320 0042 621C     		adds	r2, r4, #1
 1321 0044 FFF7FEFF 		bl	sprintf
 1322              	.LVL162:
 387:.\nimbelink.c ****             writeCMD( SCKT_SHUTDOWN );
 1323              		.loc 1 387 0
 1324 0048 6048     		ldr	r0, .L99+24
 1325 004a FFF7FEFF 		bl	writeCMD
 1326              	.LVL163:
 388:.\nimbelink.c ****             writePARAM( sckt );
 1327              		.loc 1 388 0
 1328 004e 2846     		mov	r0, r5
 1329 0050 FFF7FEFF 		bl	writePARAM
 1330              	.LVL164:
 389:.\nimbelink.c ****             NL_TX(1,1);
 1331              		.loc 1 389 0
 1332 0054 0120     		movs	r0, #1
 1333 0056 0146     		mov	r1, r0
 1334 0058 FFF7FEFF 		bl	NL_TX
 1335              	.LVL165:
 390:.\nimbelink.c ****             CyDelay(50);
 1336              		.loc 1 390 0
 1337 005c 3220     		movs	r0, #50
 1338 005e FFF7FEFF 		bl	CyDelay
 1339              	.LVL166:
 391:.\nimbelink.c ****             NL_RX();
 1340              		.loc 1 391 0
 1341 0062 FFF7FEFF 		bl	NL_RX
 1342              	.LVL167:
 392:.\nimbelink.c ****             if( substring( recvdMsg , "OK" ) )
 1343              		.loc 1 392 0
 1344 0066 5A48     		ldr	r0, .L99+28
 1345 0068 5A49     		ldr	r1, .L99+32
 1346 006a FFF7FEFF 		bl	substring
 1347              	.LVL168:
 1348 006e 38B1     		cbz	r0, .L89
 393:.\nimbelink.c ****             {
 394:.\nimbelink.c ****                 sprintf( shutdownMes , "\r\nSocket %s has been shut down.\r\n" , sckt );
 1349              		.loc 1 394 0
 1350 0070 6846     		mov	r0, sp
 1351 0072 5949     		ldr	r1, .L99+36
 1352 0074 2A46     		mov	r2, r5
 1353 0076 FFF7FEFF 		bl	sprintf
 1354              	.LVL169:
 395:.\nimbelink.c ****                 UART_DEBUG_PutString(shutdownMes);
 1355              		.loc 1 395 0
 1356 007a 6846     		mov	r0, sp
 1357 007c FFF7FEFF 		bl	UART_DEBUG_PutString
 1358              	.LVL170:
 1359              	.L89:
 382:.\nimbelink.c ****     {
 1360              		.loc 1 382 0 discriminator 2
ARM GAS  C:\Users\EDTRIC~1\AppData\Local\Temp\ccR9mJFt.s 			page 32


 1361 0080 0134     		adds	r4, r4, #1
 1362              	.LVL171:
 1363 0082 E4B2     		uxtb	r4, r4
 1364              	.LVL172:
 1365              	.L88:
 382:.\nimbelink.c ****     {
 1366              		.loc 1 382 0 is_stmt 0 discriminator 1
 1367 0084 052C     		cmp	r4, #5
 1368 0086 D0D9     		bls	.L90
 396:.\nimbelink.c ****             }
 397:.\nimbelink.c **** //            msg_clear();
 398:.\nimbelink.c ****         }
 399:.\nimbelink.c ****     }
 400:.\nimbelink.c ****     
 401:.\nimbelink.c ****     writeCMD( CONTEXT_ACTIVATE_Q );
 1369              		.loc 1 401 0 is_stmt 1
 1370 0088 5448     		ldr	r0, .L99+40
 1371 008a FFF7FEFF 		bl	writeCMD
 1372              	.LVL173:
 402:.\nimbelink.c ****     NL_TX(1,0);
 1373              		.loc 1 402 0
 1374 008e 0120     		movs	r0, #1
 1375 0090 0021     		movs	r1, #0
 1376 0092 FFF7FEFF 		bl	NL_TX
 1377              	.LVL174:
 403:.\nimbelink.c ****     CyDelay(50);
 1378              		.loc 1 403 0
 1379 0096 3220     		movs	r0, #50
 1380 0098 FFF7FEFF 		bl	CyDelay
 1381              	.LVL175:
 404:.\nimbelink.c ****     NL_RX();
 1382              		.loc 1 404 0
 1383 009c FFF7FEFF 		bl	NL_RX
 1384              	.LVL176:
 405:.\nimbelink.c **** //    msg_clear();
 406:.\nimbelink.c ****     if( substring( recvdMsg , "1,0" ) )
 1385              		.loc 1 406 0
 1386 00a0 4B48     		ldr	r0, .L99+28
 1387 00a2 4F49     		ldr	r1, .L99+44
 1388 00a4 FFF7FEFF 		bl	substring
 1389              	.LVL177:
 1390 00a8 28B3     		cbz	r0, .L91
 407:.\nimbelink.c ****     {
 408:.\nimbelink.c ****         writeCMD( CONTEXT_ACTIVATE );
 1391              		.loc 1 408 0
 1392 00aa 4E48     		ldr	r0, .L99+48
 1393 00ac FFF7FEFF 		bl	writeCMD
 1394              	.LVL178:
 409:.\nimbelink.c ****         writePARAM( "1,1" );
 1395              		.loc 1 409 0
 1396 00b0 4D48     		ldr	r0, .L99+52
 1397 00b2 FFF7FEFF 		bl	writePARAM
 1398              	.LVL179:
 410:.\nimbelink.c ****         NL_TX(1,1);
 1399              		.loc 1 410 0
 1400 00b6 0120     		movs	r0, #1
 1401 00b8 0146     		mov	r1, r0
ARM GAS  C:\Users\EDTRIC~1\AppData\Local\Temp\ccR9mJFt.s 			page 33


 1402 00ba FFF7FEFF 		bl	NL_TX
 1403              	.LVL180:
 411:.\nimbelink.c ****         CyDelay(50);
 1404              		.loc 1 411 0
 1405 00be 3220     		movs	r0, #50
 1406 00c0 FFF7FEFF 		bl	CyDelay
 1407              	.LVL181:
 412:.\nimbelink.c ****         NL_RX();
 1408              		.loc 1 412 0
 1409 00c4 FFF7FEFF 		bl	NL_RX
 1410              	.LVL182:
 413:.\nimbelink.c **** //        msg_clear();
 414:.\nimbelink.c ****         UART_NL_ClearRxBuffer();
 1411              		.loc 1 414 0
 1412 00c8 FFF7FEFF 		bl	UART_NL_ClearRxBuffer
 1413              	.LVL183:
 415:.\nimbelink.c **** 
 416:.\nimbelink.c ****         UART_DEBUG_PutString("\r\nActivating context...\r\n");
 1414              		.loc 1 416 0
 1415 00cc 4748     		ldr	r0, .L99+56
 1416 00ce FFF7FEFF 		bl	UART_DEBUG_PutString
 1417              	.LVL184:
 1418              	.L92:
 417:.\nimbelink.c ****         
 418:.\nimbelink.c ****         while( !(UART_NL_GetRxBufferSize() > 0) );        
 1419              		.loc 1 418 0 discriminator 1
 1420 00d2 FFF7FEFF 		bl	UART_NL_GetRxBufferSize
 1421              	.LVL185:
 1422 00d6 0028     		cmp	r0, #0
 1423 00d8 FBD0     		beq	.L92
 419:.\nimbelink.c ****         memset( recvdMsg , 0 , sizeof(recvdMsg) );
 1424              		.loc 1 419 0
 1425 00da 3D48     		ldr	r0, .L99+28
 1426 00dc 0021     		movs	r1, #0
 1427 00de 9622     		movs	r2, #150
 1428 00e0 FFF7FEFF 		bl	memset
 1429              	.LVL186:
 420:.\nimbelink.c ****         CyDelay(10);
 1430              		.loc 1 420 0
 1431 00e4 0A20     		movs	r0, #10
 1432 00e6 FFF7FEFF 		bl	CyDelay
 1433              	.LVL187:
 421:.\nimbelink.c ****         NL_RX();
 1434              		.loc 1 421 0
 1435 00ea FFF7FEFF 		bl	NL_RX
 1436              	.LVL188:
 422:.\nimbelink.c ****         UART_DEBUG_PutString("\r\nDone!\r\n");
 1437              		.loc 1 422 0
 1438 00ee 4048     		ldr	r0, .L99+60
 1439 00f0 FFF7FEFF 		bl	UART_DEBUG_PutString
 1440              	.LVL189:
 1441 00f4 07E0     		b	.L93
 1442              	.L91:
 423:.\nimbelink.c ****     }
 424:.\nimbelink.c ****     else if( substring( recvdMsg , "1,1" ) )
 1443              		.loc 1 424 0
 1444 00f6 3648     		ldr	r0, .L99+28
ARM GAS  C:\Users\EDTRIC~1\AppData\Local\Temp\ccR9mJFt.s 			page 34


 1445 00f8 3B49     		ldr	r1, .L99+52
 1446 00fa FFF7FEFF 		bl	substring
 1447              	.LVL190:
 1448 00fe 10B1     		cbz	r0, .L93
 425:.\nimbelink.c ****     {
 426:.\nimbelink.c ****         UART_DEBUG_PutString("Context has been activated\r\n");
 1449              		.loc 1 426 0
 1450 0100 3C48     		ldr	r0, .L99+64
 1451 0102 FFF7FEFF 		bl	UART_DEBUG_PutString
 1452              	.LVL191:
 1453              	.L93:
 427:.\nimbelink.c ****     }
 428:.\nimbelink.c ****     CyDelay(1);
 1454              		.loc 1 428 0
 1455 0106 0120     		movs	r0, #1
 1456 0108 FFF7FEFF 		bl	CyDelay
 1457              	.LVL192:
 429:.\nimbelink.c ****     
 430:.\nimbelink.c **** //    msg_clear();
 431:.\nimbelink.c ****     
 432:.\nimbelink.c ****     writeCMD( SCKT_CONNECT );
 1458              		.loc 1 432 0
 1459 010c 3A48     		ldr	r0, .L99+68
 1460 010e FFF7FEFF 		bl	writeCMD
 1461              	.LVL193:
 433:.\nimbelink.c ****     writePARAM( "1,0," );
 1462              		.loc 1 433 0
 1463 0112 3A48     		ldr	r0, .L99+72
 1464 0114 FFF7FEFF 		bl	writePARAM
 1465              	.LVL194:
 434:.\nimbelink.c ****     addPARAM( GS.portNum );
 1466              		.loc 1 434 0
 1467 0118 264D     		ldr	r5, .L99
 1468              	.LVL195:
 1469              	.LBB26:
 1470              	.LBB27:
 155:.\nimbelink.c **** }
 1471              		.loc 1 155 0
 1472 011a 394C     		ldr	r4, .L99+76
 1473              	.LVL196:
 1474 011c 2046     		mov	r0, r4
 1475 011e 6968     		ldr	r1, [r5, #4]
 1476 0120 FFF7FEFF 		bl	strcat
 1477              	.LVL197:
 1478              	.LBE27:
 1479              	.LBE26:
 1480              	.LBB28:
 1481              	.LBB29:
 1482 0124 2046     		mov	r0, r4
 1483 0126 FFF7FEFF 		bl	strlen
 1484              	.LVL198:
 1485 012a 364B     		ldr	r3, .L99+80
 1486 012c 1B88     		ldrh	r3, [r3]	@ unaligned
 1487 012e 2352     		strh	r3, [r4, r0]	@ unaligned
 1488              	.LVL199:
 1489              	.LBE29:
 1490              	.LBE28:
ARM GAS  C:\Users\EDTRIC~1\AppData\Local\Temp\ccR9mJFt.s 			page 35


 1491              	.LBB30:
 1492              	.LBB31:
 1493 0130 2046     		mov	r0, r4
 1494 0132 2968     		ldr	r1, [r5]
 1495 0134 FFF7FEFF 		bl	strcat
 1496              	.LVL200:
 1497              	.LBE31:
 1498              	.LBE30:
 1499              	.LBB32:
 1500              	.LBB33:
 1501 0138 2046     		mov	r0, r4
 1502 013a FFF7FEFF 		bl	strlen
 1503              	.LVL201:
 1504 013e 0146     		mov	r1, r0
 1505 0140 0219     		adds	r2, r0, r4
 1506 0142 314B     		ldr	r3, .L99+84
 1507 0144 1868     		ldr	r0, [r3]	@ unaligned
 1508 0146 0851     		str	r0, [r1, r4]	@ unaligned
 1509 0148 9988     		ldrh	r1, [r3, #4]	@ unaligned
 1510 014a 9B79     		ldrb	r3, [r3, #6]	@ zero_extendqisi2
 1511 014c 9180     		strh	r1, [r2, #4]	@ unaligned
 1512 014e 9371     		strb	r3, [r2, #6]
 1513              	.LBE33:
 1514              	.LBE32:
 435:.\nimbelink.c ****     addPARAM( "," );
 436:.\nimbelink.c ****     addPARAM( GS.ipAddress);
 437:.\nimbelink.c ****     addPARAM( ",0,0,1" );
 438:.\nimbelink.c ****     NL_TX(1,1);
 1515              		.loc 1 438 0
 1516 0150 0120     		movs	r0, #1
 1517 0152 0146     		mov	r1, r0
 1518 0154 FFF7FEFF 		bl	NL_TX
 1519              	.LVL202:
 439:.\nimbelink.c ****     CyDelay(50);
 1520              		.loc 1 439 0
 1521 0158 3220     		movs	r0, #50
 1522 015a FFF7FEFF 		bl	CyDelay
 1523              	.LVL203:
 440:.\nimbelink.c ****     NL_RX();
 1524              		.loc 1 440 0
 1525 015e FFF7FEFF 		bl	NL_RX
 1526              	.LVL204:
 441:.\nimbelink.c **** //    msg_clear();
 442:.\nimbelink.c ****     UART_NL_ClearRxBuffer();
 1527              		.loc 1 442 0
 1528 0162 FFF7FEFF 		bl	UART_NL_ClearRxBuffer
 1529              	.LVL205:
 443:.\nimbelink.c ****     
 444:.\nimbelink.c ****     
 445:.\nimbelink.c ****     UART_DEBUG_PutString("\r\nConnecting to ground station...\r\n");
 1530              		.loc 1 445 0
 1531 0166 2948     		ldr	r0, .L99+88
 1532 0168 FFF7FEFF 		bl	UART_DEBUG_PutString
 1533              	.LVL206:
 1534              	.L94:
 446:.\nimbelink.c ****     
 447:.\nimbelink.c ****     while ( !(UART_NL_GetRxBufferSize() > 0) );
ARM GAS  C:\Users\EDTRIC~1\AppData\Local\Temp\ccR9mJFt.s 			page 36


 1535              		.loc 1 447 0 discriminator 1
 1536 016c FFF7FEFF 		bl	UART_NL_GetRxBufferSize
 1537              	.LVL207:
 1538 0170 0028     		cmp	r0, #0
 1539 0172 FBD0     		beq	.L94
 448:.\nimbelink.c ****     memset( recvdMsg , 0 , sizeof(recvdMsg) );
 1540              		.loc 1 448 0
 1541 0174 164C     		ldr	r4, .L99+28
 1542 0176 2046     		mov	r0, r4
 1543 0178 0021     		movs	r1, #0
 1544 017a 9622     		movs	r2, #150
 1545 017c FFF7FEFF 		bl	memset
 1546              	.LVL208:
 449:.\nimbelink.c ****     CyDelay(10);
 1547              		.loc 1 449 0
 1548 0180 0A20     		movs	r0, #10
 1549 0182 FFF7FEFF 		bl	CyDelay
 1550              	.LVL209:
 450:.\nimbelink.c ****     NL_RX();
 1551              		.loc 1 450 0
 1552 0186 FFF7FEFF 		bl	NL_RX
 1553              	.LVL210:
 451:.\nimbelink.c ****     if( strstr( recvdMsg , "OK" ) )
 1554              		.loc 1 451 0
 1555 018a 2046     		mov	r0, r4
 1556 018c 1149     		ldr	r1, .L99+32
 1557 018e FFF7FEFF 		bl	strstr
 1558              	.LVL211:
 1559 0192 18B1     		cbz	r0, .L95
 452:.\nimbelink.c ****     {
 453:.\nimbelink.c ****         UART_DEBUG_PutString("Successfully connected!\r\n");
 1560              		.loc 1 453 0
 1561 0194 1E48     		ldr	r0, .L99+92
 1562 0196 FFF7FEFF 		bl	UART_DEBUG_PutString
 1563              	.LVL212:
 1564 019a 08E0     		b	.L87
 1565              	.L95:
 454:.\nimbelink.c **** //        RX_ISR_StartEx( RX_INT_Handler );
 455:.\nimbelink.c ****     }
 456:.\nimbelink.c ****     else if( strstr( recvdMsg , "ERROR" ) )
 1566              		.loc 1 456 0
 1567 019c 0C48     		ldr	r0, .L99+28
 1568 019e 1D49     		ldr	r1, .L99+96
 1569 01a0 FFF7FEFF 		bl	strstr
 1570              	.LVL213:
 1571 01a4 18B1     		cbz	r0, .L87
 457:.\nimbelink.c ****     {
 458:.\nimbelink.c ****         UART_DEBUG_PutString("Connection error. LAME!!!\r\n");
 1572              		.loc 1 458 0
 1573 01a6 1C48     		ldr	r0, .L99+100
 1574 01a8 FFF7FEFF 		bl	UART_DEBUG_PutString
 1575              	.LVL214:
 1576              	.L97:
 459:.\nimbelink.c ****         while(1);
 1577              		.loc 1 459 0 discriminator 1
 1578 01ac FEE7     		b	.L97
 1579              	.L87:
ARM GAS  C:\Users\EDTRIC~1\AppData\Local\Temp\ccR9mJFt.s 			page 37


 460:.\nimbelink.c ****     }
 461:.\nimbelink.c **** }
 1580              		.loc 1 461 0
 1581 01ae 09B0     		add	sp, sp, #36
 1582              		.cfi_def_cfa_offset 12
 1583              		@ sp needed
 1584 01b0 30BD     		pop	{r4, r5, pc}
 1585              	.L100:
 1586 01b2 00BF     		.align	2
 1587              	.L99:
 1588 01b4 00000000 		.word	GS
 1589 01b8 EC000000 		.word	.LC24
 1590 01bc 00000000 		.word	msgParse
 1591 01c0 F4000000 		.word	.LC25
 1592 01c4 00000000 		.word	sckt
 1593 01c8 10000000 		.word	.LC4
 1594 01cc F8000000 		.word	.LC26
 1595 01d0 00000000 		.word	recvdMsg
 1596 01d4 80000000 		.word	.LC13
 1597 01d8 00010000 		.word	.LC27
 1598 01dc 24010000 		.word	.LC28
 1599 01e0 30010000 		.word	.LC29
 1600 01e4 34010000 		.word	.LC30
 1601 01e8 40010000 		.word	.LC31
 1602 01ec 44010000 		.word	.LC32
 1603 01f0 60010000 		.word	.LC33
 1604 01f4 6C010000 		.word	.LC34
 1605 01f8 8C010000 		.word	.LC35
 1606 01fc 94010000 		.word	.LC36
 1607 0200 00000000 		.word	param
 1608 0204 08000000 		.word	.LC2
 1609 0208 9C010000 		.word	.LC37
 1610 020c A4010000 		.word	.LC38
 1611 0210 C8010000 		.word	.LC39
 1612 0214 E4010000 		.word	.LC40
 1613 0218 EC010000 		.word	.LC41
 1614              		.cfi_endproc
 1615              	.LFE80:
 1616              		.size	Nimbelink_ConnectGS, .-Nimbelink_ConnectGS
 1617              		.section	.text.Nimbelink_GSDataXfer,"ax",%progbits
 1618              		.align	2
 1619              		.global	Nimbelink_GSDataXfer
 1620              		.thumb
 1621              		.thumb_func
 1622              		.type	Nimbelink_GSDataXfer, %function
 1623              	Nimbelink_GSDataXfer:
 1624              	.LFB81:
 462:.\nimbelink.c **** 
 463:.\nimbelink.c **** void Nimbelink_GSDataXfer( uint8 sckt , char * data )
 464:.\nimbelink.c **** {
 1625              		.loc 1 464 0
 1626              		.cfi_startproc
 1627              		@ args = 0, pretend = 0, frame = 0
 1628              		@ frame_needed = 0, uses_anonymous_args = 0
 1629              	.LVL215:
 1630 0000 38B5     		push	{r3, r4, r5, lr}
 1631              		.cfi_def_cfa_offset 16
ARM GAS  C:\Users\EDTRIC~1\AppData\Local\Temp\ccR9mJFt.s 			page 38


 1632              		.cfi_offset 3, -16
 1633              		.cfi_offset 4, -12
 1634              		.cfi_offset 5, -8
 1635              		.cfi_offset 14, -4
 1636 0002 0546     		mov	r5, r0
 1637 0004 0C46     		mov	r4, r1
 465:.\nimbelink.c **** //    NL_scktrecv(sckt);
 466:.\nimbelink.c ****     NL_recvSMS();
 1638              		.loc 1 466 0
 1639 0006 FFF7FEFF 		bl	NL_recvSMS
 1640              	.LVL216:
 467:.\nimbelink.c ****     NL_scktsend(sckt,data);    
 1641              		.loc 1 467 0
 1642 000a 2846     		mov	r0, r5
 1643 000c 2146     		mov	r1, r4
 1644 000e FFF7FEFF 		bl	NL_scktsend
 1645              	.LVL217:
 1646 0012 38BD     		pop	{r3, r4, r5, pc}
 1647              		.cfi_endproc
 1648              	.LFE81:
 1649              		.size	Nimbelink_GSDataXfer, .-Nimbelink_GSDataXfer
 1650              		.comm	GS,8,4
 1651              		.comm	recByte,1,1
 1652              		.comm	counter,1,1
 1653              		.comm	sckt,2,4
 1654              		.comm	reply_num,13,4
 1655              		.comm	cmatoken,4,4
 1656              		.comm	spctoken,4,4
 1657              		.comm	nltoken,4,4
 1658              		.comm	infoParse,120,4
 1659              		.comm	msgParse,360,4
 1660              		.comm	recvdMsg,150,4
 1661              		.comm	msgUART,150,4
 1662              		.comm	param,50,4
 1663              		.comm	cmd,12,4
 1664              		.comm	radioSwitch,1,1
 1665              		.section	.rodata.str1.4,"aMS",%progbits,1
 1666              		.align	2
 1667              	.LC0:
 1668 0000 0D0A00   		.ascii	"\015\012\000"
 1669 0003 00       		.space	1
 1670              	.LC1:
 1671 0004 2000     		.ascii	" \000"
 1672 0006 0000     		.space	2
 1673              	.LC2:
 1674 0008 2C00     		.ascii	",\000"
 1675 000a 0000     		.space	2
 1676              	.LC3:
 1677 000c 0D00     		.ascii	"\015\000"
 1678 000e 0000     		.space	2
 1679              	.LC4:
 1680 0010 256400   		.ascii	"%d\000"
 1681 0013 00       		.space	1
 1682              	.LC5:
 1683 0014 41542353 		.ascii	"AT#SSEND=\000"
 1683      53454E44 
 1683      3D00
ARM GAS  C:\Users\EDTRIC~1\AppData\Local\Temp\ccR9mJFt.s 			page 39


 1684 001e 0000     		.space	2
 1685              	.LC6:
 1686 0020 41542353 		.ascii	"AT#SI=\000"
 1686      493D00
 1687 0027 00       		.space	1
 1688              	.LC7:
 1689 0028 3000     		.ascii	"0\000"
 1690 002a 0000     		.space	2
 1691              	.LC8:
 1692 002c 41542353 		.ascii	"AT#SRECV=\000"
 1692      52454356 
 1692      3D00
 1693 0036 0000     		.space	2
 1694              	.LC9:
 1695 0038 41542B43 		.ascii	"AT+CMGS=\000"
 1695      4D47533D 
 1695      00
 1696 0041 000000   		.space	3
 1697              	.LC10:
 1698 0044 43686563 		.ascii	"Checking for text messages\015\012\000"
 1698      6B696E67 
 1698      20666F72 
 1698      20746578 
 1698      74206D65 
 1699 0061 000000   		.space	3
 1700              	.LC11:
 1701 0064 41542B43 		.ascii	"AT+CMGL=\000"
 1701      4D474C3D 
 1701      00
 1702 006d 000000   		.space	3
 1703              	.LC12:
 1704 0070 22524543 		.ascii	"\"REC UNREAD\"\000"
 1704      20554E52 
 1704      45414422 
 1704      00
 1705 007d 000000   		.space	3
 1706              	.LC13:
 1707 0080 4F4B00   		.ascii	"OK\000"
 1708 0083 00       		.space	1
 1709              	.LC14:
 1710 0084 54657874 		.ascii	"Text received\000"
 1710      20726563 
 1710      65697665 
 1710      6400
 1711 0092 0000     		.space	2
 1712              	.LC15:
 1713 0094 41542B43 		.ascii	"AT+CMGD=\000"
 1713      4D47443D 
 1713      00
 1714 009d 000000   		.space	3
 1715              	.LC16:
 1716 00a0 312C3400 		.ascii	"1,4\000"
 1717              	.LC17:
 1718 00a4 41544530 		.ascii	"ATE0\000"
 1718      00
 1719 00a9 000000   		.space	3
 1720              	.LC18:
ARM GAS  C:\Users\EDTRIC~1\AppData\Local\Temp\ccR9mJFt.s 			page 40


 1721 00ac 41542B43 		.ascii	"AT+CREG?\000"
 1721      5245473F 
 1721      00
 1722 00b5 000000   		.space	3
 1723              	.LC19:
 1724 00b8 302C3100 		.ascii	"0,1\000"
 1725              	.LC20:
 1726 00bc 302C3500 		.ascii	"0,5\000"
 1727              	.LC21:
 1728 00c0 436F6E6E 		.ascii	"Connection Successful!\015\012\000"
 1728      65637469 
 1728      6F6E2053 
 1728      75636365 
 1728      73736675 
 1729 00d9 000000   		.space	3
 1730              	.LC22:
 1731 00dc 41542B43 		.ascii	"AT+CMGF=\000"
 1731      4D47463D 
 1731      00
 1732 00e5 000000   		.space	3
 1733              	.LC23:
 1734 00e8 3100     		.ascii	"1\000"
 1735 00ea 0000     		.space	2
 1736              	.LC24:
 1737 00ec 41542353 		.ascii	"AT#SS\000"
 1737      5300
 1738 00f2 0000     		.space	2
 1739              	.LC25:
 1740 00f4 2C3000   		.ascii	",0\000"
 1741 00f7 00       		.space	1
 1742              	.LC26:
 1743 00f8 41542353 		.ascii	"AT#SH=\000"
 1743      483D00
 1744 00ff 00       		.space	1
 1745              	.LC27:
 1746 0100 0D0A536F 		.ascii	"\015\012Socket %s has been shut down.\015\012\000"
 1746      636B6574 
 1746      20257320 
 1746      68617320 
 1746      6265656E 
 1747 0122 0000     		.space	2
 1748              	.LC28:
 1749 0124 41542353 		.ascii	"AT#SGACT?\000"
 1749      47414354 
 1749      3F00
 1750 012e 0000     		.space	2
 1751              	.LC29:
 1752 0130 312C3000 		.ascii	"1,0\000"
 1753              	.LC30:
 1754 0134 41542353 		.ascii	"AT#SGACT=\000"
 1754      47414354 
 1754      3D00
 1755 013e 0000     		.space	2
 1756              	.LC31:
 1757 0140 312C3100 		.ascii	"1,1\000"
 1758              	.LC32:
 1759 0144 0D0A4163 		.ascii	"\015\012Activating context...\015\012\000"
ARM GAS  C:\Users\EDTRIC~1\AppData\Local\Temp\ccR9mJFt.s 			page 41


 1759      74697661 
 1759      74696E67 
 1759      20636F6E 
 1759      74657874 
 1760 015e 0000     		.space	2
 1761              	.LC33:
 1762 0160 0D0A446F 		.ascii	"\015\012Done!\015\012\000"
 1762      6E65210D 
 1762      0A00
 1763 016a 0000     		.space	2
 1764              	.LC34:
 1765 016c 436F6E74 		.ascii	"Context has been activated\015\012\000"
 1765      65787420 
 1765      68617320 
 1765      6265656E 
 1765      20616374 
 1766 0189 000000   		.space	3
 1767              	.LC35:
 1768 018c 41542353 		.ascii	"AT#SD=\000"
 1768      443D00
 1769 0193 00       		.space	1
 1770              	.LC36:
 1771 0194 312C302C 		.ascii	"1,0,\000"
 1771      00
 1772 0199 000000   		.space	3
 1773              	.LC37:
 1774 019c 2C302C30 		.ascii	",0,0,1\000"
 1774      2C3100
 1775 01a3 00       		.space	1
 1776              	.LC38:
 1777 01a4 0D0A436F 		.ascii	"\015\012Connecting to ground station...\015\012\000"
 1777      6E6E6563 
 1777      74696E67 
 1777      20746F20 
 1777      67726F75 
 1778              	.LC39:
 1779 01c8 53756363 		.ascii	"Successfully connected!\015\012\000"
 1779      65737366 
 1779      756C6C79 
 1779      20636F6E 
 1779      6E656374 
 1780 01e2 0000     		.space	2
 1781              	.LC40:
 1782 01e4 4552524F 		.ascii	"ERROR\000"
 1782      5200
 1783 01ea 0000     		.space	2
 1784              	.LC41:
 1785 01ec 436F6E6E 		.ascii	"Connection error. LAME!!!\015\012\000"
 1785      65637469 
 1785      6F6E2065 
 1785      72726F72 
 1785      2E204C41 
 1786              		.text
 1787              	.Letext0:
 1788              		.file 2 "c:\\program files (x86)\\cypress\\psoc creator\\3.3\\psoc creator\\import\\gnu\\arm\\4.9.
 1789              		.file 3 "c:\\program files (x86)\\cypress\\psoc creator\\3.3\\psoc creator\\import\\gnu\\arm\\4.9.
 1790              		.file 4 "Generated_Source\\PSoC5/cytypes.h"
ARM GAS  C:\Users\EDTRIC~1\AppData\Local\Temp\ccR9mJFt.s 			page 42


 1791              		.file 5 "c:\\program files (x86)\\cypress\\psoc creator\\3.3\\psoc creator\\import\\gnu\\arm\\4.9.
 1792              		.file 6 ".\\nimbelink.h"
 1793              		.file 7 "Generated_Source\\PSoC5/core_cm3.h"
 1794              		.file 8 "Generated_Source\\PSoC5/RX_ISR.h"
 1795              		.file 9 "Generated_Source\\PSoC5/CyLib.h"
 1796              		.file 10 "c:\\program files (x86)\\cypress\\psoc creator\\3.3\\psoc creator\\import\\gnu\\arm\\4.9
 1797              		.file 11 "Generated_Source\\PSoC5/UART_NL.h"
 1798              		.file 12 "Generated_Source\\PSoC5/UART_DEBUG.h"
 1799              		.file 13 "c:\\program files (x86)\\cypress\\psoc creator\\3.3\\psoc creator\\import\\gnu\\arm\\4.9
 1800              		.file 14 "<built-in>"
 1801              		.file 15 ".\\CMD_Handler.h"